Sjasm Z80 Assembler v0.42b8 - www.xl2s.tk             [2017.09.02 - 12:52:48]

main.asm
Errors: 0

       1   00:0000                      	defpage	0,0x4000, 0x8000		; page 0 contains main code + far call routines
       2   00:0000                      
       3   00:0000                      ; -----------------------------
       4   00:0000                      ; TT-replayer example
       5   00:0000                      ; 
       6   00:0000                      ; This example plays compiled PSG+SCC songs
       7   00:0000                      ; ------------------------------
       8   00:0000                      
       9   00:0000                      ;	include	".\code\variables.asm"
      10   00:0000                      
      11   00:0000  (00)                	page 0
      12   00:4000                      	code page 0
      13   00:4000                      	
      14   00:4000                      	org	04000h
      15   00:4000  41 42               	db	041h,042h
      16   00:4002  10 40               	dw	initmain
      17   00:4004                      	dz 	'TTDEMO'
      17   00:4004  54 54 44 45 4D 4F 00 
      18   00:400B  00 (5)              	ds	5
      19   00:4010                      		
      20   00:4010                      initmain:
      21   00:4010                      
      22   00:4010  FB                  	ei
      23   00:4011  76                  	halt
      24   00:4012  F3                  	di
      25   00:4013                      		
      26   00:4013                      ;; set pages and subslot
      27   00:4013                      ;;
      28   00:4013  CD 38 01            	call    0x138
      29   00:4016  0F                  	rrca
      30   00:4017  0F                  	rrca
      31   00:4018  E6 03               	and     0x03
      32   00:401A  4F                  	ld      c,a
      33   00:401B  06 00               	ld      b,0
      34   00:401D  21 C1 FC            	ld      hl,0xfcc1
      35   00:4020  09                  	add     hl,bc
      36   00:4021  B6                  	or      (hl)
      37   00:4022  47                  	ld      b,a
      38   00:4023  23                  	inc     hl
      39   00:4024  23                  	inc     hl
      40   00:4025  23                  	inc     hl
      41   00:4026  23                  	inc     hl
      42   00:4027  7E                  	ld      a,(hl)
      43   00:4028  E6 0C               	and     0x0c
      44   00:402A  B0                  	or      b
      45   00:402B                          
      46   00:402B  26 80               	ld      h,0x80
      47   00:402D  CD 24 00            	call    0x24        
      48   00:4030                      	
      49   00:4030                      	;clear RAM (first kb only)
      50   00:4030  01 00 04            	ld	bc,1024
      51   00:4033  21 00 C0            	ld	hl,0xc000
      52   00:4036  11 01 C0            	ld	de,0xc001
      53   00:4039                      
      54   00:4039  36 00               	ld	(hl),0
      55   00:403B  ED B0               	ldir	
      56   00:403D                      
      57   00:403D                      	;--- place replayer on hook
      58   00:403D  3E C3               	ld	a,0xc3
      59   00:403F  21 73 40            	ld	hl,isr
      60   00:4042  32 9A FD            	ld	(0xFD9A),a
      61   00:4045  22 9B FD            	ld	(0xFD9B),hl	
      62   00:4048                      	
      63   00:4048                      	;--- initialise replayer
      64   00:4048  CD 7F 40            	call	replay_init
      65   00:404B  CD 06 50            	call	ttsfx_init
      66   00:404E                      	
      67   00:404E                      	;--- initialise demo song
      68   00:404E  21 69 51            	ld	hl,demo_song
      69   00:4051  CD E2 40            	call	replay_loadsong
      70   00:4054                      	
      71   00:4054                      	;--- initialise sfx pointers
      72   00:4054                      	
      73   00:4054                      	
      74   00:4054                      	
      75   00:4054  FB                  	ei
      76   00:4055                      	
      77   00:4055  AF                  	xor	a
      78   00:4056  32 E3 C2            	ld	(pattern),a
      79   00:4059                      
      80   00:4059                      ;	call	replay_pause
      81   00:4059                      ;	ld	bc,$0001
      82   00:4059                      ;	call	ttsfx_start
      83   00:4059                      	
      84   00:4059                      infinite:
      85   00:4059  76                  	halt
      86   00:405A                      	;--- display debug info
      87   00:405A                      	
      88   00:405A                      	
      89   00:405A                      	
      90   00:405A                      	
      91   00:405A                      	
      92   00:405A                      	;---- Test for space
      93   00:405A  AF                  	xor	a
      94   00:405B  CD D8 00            	call	$00D8
      95   00:405E  A7                  	and	a
      96   00:405F  CA 59 40            	jp	z,infinite
      97   00:4062                      
      98   00:4062                      ;	call	replay_pause
      99   00:4062  01 01 00            	ld	bc,$0001
     100   00:4065  CD 32 50            	call	ttsfx_start
     101   00:4068                      ;	ld	a,0
     102   00:4068                      ;	call	replay_set_SCC_balance
     103   00:4068                      ;	ld	de,-2
     104   00:4068                      ;	call	replay_transpose	
     105   00:4068                      ;	ld	a,32
     106   00:4068                      ;	call	replay_fade_out
     107   00:4068                      ;	call	replay_pause
     108   00:4068                      	; wait_key_release
     109   00:4068                      99:	
     110   00:4068  AF                  	xor	a
     111   00:4069  CD D8 00            	call	$00D8
     112   00:406C  A7                  	and	a
     113   00:406D  C2 68 40            	jp	nz,99b
     114   00:4070                      	
     115   00:4070  C3 59 40            	jp	infinite
     116   00:4073                      
     117   00:4073                      	
     118   00:4073                      	
     119   00:4073                      isr:
     120   00:4073  DB 99               	in	a,(0x99)
     121   00:4075  CD DC 4B            	call	replay_route		; first outout data
     122   00:4078  CD D9 41            	call	replay_play			; calculate next output
     123   00:407B  CD 7A 50            	call	ttsfx_play
     124   00:407E  C9                  	ret
     125   00:407F                      	
     126   00:407F                      	
     127   00:407F                      	
     128   00:407F                      	include	"..\code\ttreplay.asm"
       1.  00:407F                      ;=================================
       2.  00:407F                      ; TriloTracker re-player v0.3.1
       3.  00:407F                      ;
       4.  00:407F                      ; 
       5.  00:407F                      ; Also expects the code to run as a cartridge with SCC mapper
       6.  00:407F                      ;================================
       7.  00:407F                      	
       8.  00:407F                      ;===============================
       9.  00:407F                      ; todo:
      10.  00:407F                      ; - add external SCC support through conditional code.
      11.  00:407F                      ; - add replayer speed up through conditional code.
      12.  00:407F                      ; - optimize replayer code
      13.  00:407F                      ; - instructions for external usage of the RAM variables (setting PSG/SCC base volumes etc)
      14.  00:407F                      
      15.  00:407F                      	
      16.  00:407F                      ;define EXTERNAL_SCC 
      17.  00:407F                      define INTERNAL_SCC	
      18.  00:407F                      	
      19.  00:407F                      	
      20.  00:407F                      ;===========================================================
      21.  00:407F                      ; ---	replay_init
      22.  00:407F                      ; Initialize replayer data
      23.  00:407F                      ; Only call this on start-up
      24.  00:407F                      ; Input: none
      25.  00:407F                      ;===========================================================
      26.  00:407F                      replay_init:
      27.  00:407F  3E 08               	ld	a,8
      28.  00:4081  CD C6 40            	call	replay_set_SCC_balance
      29.  00:4084  3E 08               	ld	a,8
      30.  00:4086  CD CD 40            	call	replay_set_PSG_balance
      31.  00:4089                      
      32.  00:4089  AF                  	xor	a
      33.  00:408A  32 10 C0            	ld	(replay_mode),a	
      34.  00:408D  32 61 C0            	ld	(equalization_cnt),a
      35.  00:4090  32 62 C0            	ld	(equalization_flag),a	
      36.  00:4093  32 60 C0            	ld	(equalization_freq),a	
      37.  00:4096                      	
      38.  00:4096  C9                  	ret
      39.  00:4097                      
      40.  00:4097                      ;===========================================================
      41.  00:4097                      ; ---	replay_pause
      42.  00:4097                      ; Stop/Restart music playback
      43.  00:4097                      ; 
      44.  00:4097                      ; Input: none
      45.  00:4097                      ;===========================================================
      46.  00:4097                      replay_pause:
      47.  00:4097  3A 10 C0            	ld	a,(replay_mode)
      48.  00:409A  A7                  	and	a
      49.  00:409B  CA AC 40            	jp	z,_replay_pause_r
      50.  00:409E                      	;-- stop decding and processing music data
      51.  00:409E  AF                  	xor	a
      52.  00:409F  32 10 C0            	ld	(replay_mode),a
      53.  00:40A2                      	;-- set mixers to silence.
      54.  00:40A2  3E 3F               	ld 	a,0x3F
      55.  00:40A4  32 AA C1            	ld	(AY_regMIXER),a 
      56.  00:40A7  AF                  	xor	a
      57.  00:40A8  32 40 C2            	ld	(SCC_regMIXER),a
      58.  00:40AB  C9                  	ret
      59.  00:40AC                      _replay_pause_r:	
      60.  00:40AC                      	;-- enable music decoding and processing
      61.  00:40AC  3E 01               	ld	a,1
      62.  00:40AE  32 10 C0            	ld	(replay_mode),a
      63.  00:40B1  C9                  	ret
      64.  00:40B2                      
      65.  00:40B2                      	
      66.  00:40B2                      ;===========================================================
      67.  00:40B2                      ; ---	replay_fade_out
      68.  00:40B2                      ; Fade out the music. 
      69.  00:40B2                      ; Once the sound is silence the replayer is paused.
      70.  00:40B2                      ;
      71.  00:40B2                      ; in: [A] fade speed (1 - 255)
      72.  00:40B2                      ;===========================================================	
      73.  00:40B2                      replay_fade_out:
      74.  00:40B2  32 11 C0            	ld	(replay_fade),a
      75.  00:40B5  32 12 C0            	ld	(replay_fade_timer),a
      76.  00:40B8  AF                  	xor	a
      77.  00:40B9  32 13 C0            	ld	(replay_fade_vol),a
      78.  00:40BC  C9                  	ret
      79.  00:40BD                      
      80.  00:40BD                      
      81.  00:40BD                      ;===========================================================
      82.  00:40BD                      ; ---	replay_transpose
      83.  00:40BD                      ; Transposes the whole song. 
      84.  00:40BD                      ; TT effect command 'E8y - Global transpose' will undo 
      85.  00:40BD                      ; this effect.
      86.  00:40BD                      ;
      87.  00:40BD                      ; in: [DE] number of halve tones (pos or neg) to transpose. 
      88.  00:40BD                      ;===========================================================
      89.  00:40BD                      replay_transpose:
      90.  00:40BD  21 E6 4E            	ld	hl,TRACK_ToneTable;(replay_Tonetable)
      91.  00:40C0  19                  	add	hl,de	
      92.  00:40C1  19                  	add	hl,de
      93.  00:40C2  22 19 C0            	ld	(replay_Tonetable),hl	
      94.  00:40C5  C9                  	ret
      95.  00:40C6                      	
      96.  00:40C6                      ;===========================================================
      97.  00:40C6                      ; ---	replay_set_SCC_balance
      98.  00:40C6                      ; Set the main volume for the SCC chip. This enables for
      99.  00:40C6                      ; setting the balance between SCC en PSG as some MSX models 
     100.  00:40C6                      ; default balance differs. 
     101.  00:40C6                      ;
     102.  00:40C6                      ; in: [A] master volume (0-7) 0=halve volume, 7=full volume. 
     103.  00:40C6                      ;===========================================================	
     104.  00:40C6                      replay_set_SCC_balance:
     105.  00:40C6  CD D4 40            	call	_getnewbalancebase
     106.  00:40C9  22 05 C0            	ld	(replay_mainSCCvol),hl	
     107.  00:40CC  C9                  	ret
     108.  00:40CD                      	
     109.  00:40CD                      ;===========================================================
     110.  00:40CD                      ; ---	replay_set_PSG_balance
     111.  00:40CD                      ; Set the main volume for the PSG chip. This enables for
     112.  00:40CD                      ; setting the balance between SCC en PSG as some MSX models 
     113.  00:40CD                      ; default balance differs. 
     114.  00:40CD                      ;
     115.  00:40CD                      ; in: [A] master volume (0-7) 0=halve volume, 7=full volume. 
     116.  00:40CD                      ;===========================================================	
     117.  00:40CD                      replay_set_PSG_balance:
     118.  00:40CD  CD D4 40            	call	_getnewbalancebase
     119.  00:40D0  22 03 C0            	ld	(replay_mainPSGvol),hl	
     120.  00:40D3  C9                  	ret
     121.  00:40D4                      	
     122.  00:40D4                      _getnewbalancebase:
     123.  00:40D4  07                  	rlca
     124.  00:40D5  07                  	rlca
     125.  00:40D6  07                  	rlca
     126.  00:40D7  07                  	rlca
     127.  00:40D8  21 66 4D            	ld	hl,_VOLUME_TABLE-128
     128.  00:40DB  E6 F0               	and	$f0
     129.  00:40DD  85                  	add	a,l
     130.  00:40DE  6F                  	ld	l,a
     131.  00:40DF  D0                  	ret 	nc
     132.  00:40E0  24                  	inc	h
     133.  00:40E1  C9                  	ret
     134.  00:40E2                      	
     135.  00:40E2                      	
     136.  00:40E2                      	
     137.  00:40E2                      	
     138.  00:40E2                      	
     139.  00:40E2                      	
     140.  00:40E2                      ;===========================================================
     141.  00:40E2                      ; ---	replay_loadsong
     142.  00:40E2                      ; Initialize a song for playback
     143.  00:40E2                      ; 
     144.  00:40E2                      ; Input [HL] points to start song
     145.  00:40E2                      ;===========================================================
     146.  00:40E2                      replay_loadsong:
     147.  00:40E2                      	;--- Get the start speed.
     148.  00:40E2  7E                  	ld	a,(hl)	
     149.  00:40E3  23                  	inc	hl
     150.  00:40E4  32 0D C0            	ld	(replay_speed),a
     151.  00:40E7                      
     152.  00:40E7                      	;--- Set waveform start
     153.  00:40E7  5E                  	ld	e,(hl)
     154.  00:40E8  23                  	inc	hl
     155.  00:40E9  56                  	ld 	d,(hl)
     156.  00:40EA  23                  	inc	hl
     157.  00:40EB  7B                  	ld	a,e				; check for external waveforms
     158.  00:40EC  B2                  	or	d
     159.  00:40ED  CA F4 40            	jp	z,.nwu			; is address is $0000 then do not update
     160.  00:40F0  ED 53 07 C0         	ld	(replay_wavebase),de
     161.  00:40F4                      .nwu:	
     162.  00:40F4                      	;--- Set the instrument start
     163.  00:40F4  5E                  	ld	e,(hl)
     164.  00:40F5  23                  	inc	hl
     165.  00:40F6  56                  	ld 	d,(hl)
     166.  00:40F7  23                  	inc	hl
     167.  00:40F8  7B                  	ld	a,e				; check for external instruments
     168.  00:40F9  B2                  	or	d
     169.  00:40FA  CA 01 41            	jp	z,.niu			; is address is $0000 then do not update
     170.  00:40FD  ED 53 09 C0         	ld	(replay_insbase),de
     171.  00:4101                      .niu:
     172.  00:4101                      	;--- Set track pointers to start
     173.  00:4101  11 93 C1            	ld	de,TRACK_pointer1
     174.  00:4104  01 10 00            	ld	bc,16
     175.  00:4107  ED B0               	ldir
     176.  00:4109  22 0B C0            	ld	(replay_orderpointer),hl		; store pointer for next set
     177.  00:410C                      								; of track pointers
     178.  00:410C                      	;--- Initialize replayer variables.
     179.  00:410C  AF                  	xor	a
     180.  00:410D  32 0E C0            	ld	(replay_speed_subtimer),a
     181.  00:4110  32 1B C0            	ld	(replay_morph_active),a
     182.  00:4113  32 5F C0            	ld	(replay_morph_waveform),a
     183.  00:4116                      	
     184.  00:4116                      	;--- Erase channel data	in RAM
     185.  00:4116  01 2F 01            	ld	bc,TRACK_REC_SIZE*8-1
     186.  00:4119  21 63 C0            	ld	hl,TRACK_Chan1
     187.  00:411C  11 64 C0            	ld	de,TRACK_Chan1+1
     188.  00:411F  77                  	ld	(hl),a
     189.  00:4120  ED B0               	ldir
     190.  00:4122                      	
     191.  00:4122                      	;--- Silence the chips
     192.  00:4122  32 40 C2            	ld	(SCC_regMIXER),a
     193.  00:4125  32 AB C1            	ld	(AY_regVOLA),a
     194.  00:4128  32 AC C1            	ld	(AY_regVOLB),a	
     195.  00:412B  32 AD C1            	ld	(AY_regVOLC),a
     196.  00:412E  32 A9 C1            	ld	(AY_regNOISE),a
     197.  00:4131  3E 3F               	ld	a,0x3f
     198.  00:4133  32 AA C1            	ld	(AY_regMIXER),a
     199.  00:4136                      
     200.  00:4136                      	;--- Set vibrato table
     201.  00:4136  21 A6 4F            	ld	hl,TRACK_Vibrato_sine
     202.  00:4139  22 17 C0            	ld	(replay_vib_table),hl
     203.  00:413C                      	
     204.  00:413C                      	;--- Set the tone table base
     205.  00:413C  21 E6 4E            	ld	hl,TRACK_ToneTable
     206.  00:413F  22 19 C0            	ld	(replay_Tonetable),hl
     207.  00:4142                      
     208.  00:4142  3E 01               	ld	a,1
     209.  00:4144  32 0F C0            	ld	(replay_speed_timer),a
     210.  00:4147  32 1C C0            	ld	(replay_morph_timer),a
     211.  00:414A  32 1D C0            	ld	(replay_morph_speed),a
     212.  00:414D  32 85 C0            	ld	(TRACK_Chan1+17+TRACK_Delay),a	
     213.  00:4150  32 AB C0            	ld	(TRACK_Chan2+17+TRACK_Delay),a		
     214.  00:4153  32 D1 C0            	ld	(TRACK_Chan3+17+TRACK_Delay),a	
     215.  00:4156  32 F7 C0            	ld	(TRACK_Chan4+17+TRACK_Delay),a	
     216.  00:4159  32 1D C1            	ld	(TRACK_Chan5+17+TRACK_Delay),a		
     217.  00:415C  32 43 C1            	ld	(TRACK_Chan6+17+TRACK_Delay),a		
     218.  00:415F  32 69 C1            	ld	(TRACK_Chan7+17+TRACK_Delay),a		
     219.  00:4162  32 8F C1            	ld	(TRACK_Chan8+17+TRACK_Delay),a	
     220.  00:4165                      	
     221.  00:4165  3E FE               	ld	a,254
     222.  00:4167  32 63 C0            	ld	(TRACK_Chan1+17+TRACK_Instrument),a	
     223.  00:416A  32 89 C0            	ld	(TRACK_Chan2+17+TRACK_Instrument),a		
     224.  00:416D  32 AF C0            	ld	(TRACK_Chan3+17+TRACK_Instrument),a	
     225.  00:4170  32 D5 C0            	ld	(TRACK_Chan4+17+TRACK_Instrument),a	
     226.  00:4173  32 FB C0            	ld	(TRACK_Chan5+17+TRACK_Instrument),a		
     227.  00:4176  32 21 C1            	ld	(TRACK_Chan6+17+TRACK_Instrument),a		
     228.  00:4179  32 47 C1            	ld	(TRACK_Chan7+17+TRACK_Instrument),a		
     229.  00:417C  32 6D C1            	ld	(TRACK_Chan8+17+TRACK_Instrument),a	
     230.  00:417F                      
     231.  00:417F                      IFDEF	EXTERNAL_SCC	
     232.  00:417F                    ~ 	;--- Init the SCC	(waveforms too)
     233.  00:417F                    ~ 	ld	a,(SCC_slot)
     234.  00:417F                    ~ 	ld	h,0x80
     235.  00:417F                    ~ 	call enaslt
     236.  00:417F                    ~ ENDIF
     237.  00:417F                      	
     238.  00:417F  3E FF               	ld	a,255
     239.  00:4181  32 DE C0            	ld	(TRACK_Chan4+17+TRACK_Waveform),a
     240.  00:4184  32 04 C1            	ld	(TRACK_Chan5+17+TRACK_Waveform),a
     241.  00:4187  32 2A C1            	ld	(TRACK_Chan6+17+TRACK_Waveform),a	
     242.  00:418A  32 50 C1            	ld	(TRACK_Chan7+17+TRACK_Waveform),a	
     243.  00:418D  3E 80               	ld	a,128
     244.  00:418F  32 DF C0            	ld	(TRACK_Chan4+17+TRACK_Flags),a
     245.  00:4192  32 05 C1            	ld	(TRACK_Chan5+17+TRACK_Flags),a
     246.  00:4195  32 2B C1            	ld	(TRACK_Chan6+17+TRACK_Flags),a	
     247.  00:4198  32 51 C1            	ld	(TRACK_Chan7+17+TRACK_Flags),a	
     248.  00:419B                      	
     249.  00:419B  CD 65 4C            	call scc_reg_update
     250.  00:419E                      	
     251.  00:419E                      IFDEF	EXTERNAL_SCC	
     252.  00:419E                    ~ 	ld	a,(mapper_slot)				
     253.  00:419E                    ~ 	ld	h,0x80
     254.  00:419E                    ~ 	call enaslt
     255.  00:419E                    ~ ENDIF	
     256.  00:419E                      
     257.  00:419E  CD DC 4B            	call	replay_route
     258.  00:41A1                      	
     259.  00:41A1                      	; end	is here
     260.  00:41A1  3E 01               	ld	a,1
     261.  00:41A3  32 10 C0            	ld	(replay_mode),a	
     262.  00:41A6  C9                  	ret
     263.  00:41A7                      
     264.  00:41A7                      
     265.  00:41A7                      
     266.  00:41A7                      _replay_check_patternend:
     267.  00:41A7  3A 85 C0            	ld 	a,(TRACK_Chan1+17+TRACK_Delay)
     268.  00:41AA  3D                  	dec	a
     269.  00:41AB  C2 8F 43            	jp	nz,replay_decodedata_NO
     270.  00:41AE                      	
     271.  00:41AE  2A 93 C1            	ld	hl,(TRACK_pointer1)
     272.  00:41B1  7E                  	ld	a,(hl)
     273.  00:41B2                      	
     274.  00:41B2                      	;--- check for end of pattern
     275.  00:41B2  FE BF               	cp	191	
     276.  00:41B4  C2 8F 43            	jp	nz,replay_decodedata_NO
     277.  00:41B7                      
     278.  00:41B7                      	;--- Set track pointers to start
     279.  00:41B7  2A 0B C0            	ld	hl,(replay_orderpointer)
     280.  00:41BA  AF                  	xor	a
     281.  00:41BB  BE                  	cp	(hl)
     282.  00:41BC  C2 CB 41            	jp	nz,.no_restart
     283.  00:41BF  23                  	inc	hl
     284.  00:41C0  BE                  	cp	(hl)
     285.  00:41C1  2B                  	dec	hl
     286.  00:41C2  C2 CB 41            	jp	nz,.no_restart
     287.  00:41C5                      	;--- next is restart order
     288.  00:41C5  23                  	inc	hl
     289.  00:41C6  23                  	inc	hl
     290.  00:41C7  7E                  	ld	a,(hl)
     291.  00:41C8  23                  	inc	hl
     292.  00:41C9  66                  	ld	h,(hl)
     293.  00:41CA  6F                  	ld	l,a
     294.  00:41CB                      .no_restart:	
     295.  00:41CB  11 93 C1            	ld	de,TRACK_pointer1
     296.  00:41CE  01 10 00            	ld	bc,16
     297.  00:41D1  ED B0               	ldir
     298.  00:41D3  22 0B C0            	ld	(replay_orderpointer),hl		; store pointer for next set
     299.  00:41D6                      								; of strack pointers
     300.  00:41D6  C3 8F 43            	jp	replay_decodedata_NO
     301.  00:41D9                      
     302.  00:41D9                      
     303.  00:41D9                      ;===========================================================
     304.  00:41D9                      ; ---	replay_play
     305.  00:41D9                      ; Decode music data and process instruments and effects. 
     306.  00:41D9                      ; Music chip registers will be prepared for replay_route 
     307.  00:41D9                      ;
     308.  00:41D9                      ; Input none
     309.  00:41D9                      ;===========================================================	
     310.  00:41D9                      replay_play:
     311.  00:41D9  3A 10 C0            	ld	a,(replay_mode)
     312.  00:41DC  A7                  	and	a
     313.  00:41DD  C8                  	ret	z		; replay mode = 0	; halted
     314.  00:41DE                      				
     315.  00:41DE                      				; replay mode = 1	; active
     316.  00:41DE                      	
     317.  00:41DE                      	;---- SPEED EQUALIZATION 
     318.  00:41DE  3A 60 C0            	ld	a,(equalization_freq)		; 0 = 50Hz, otherwise 60Hz
     319.  00:41E1  A7                  	and	a
     320.  00:41E2  28 14                   jr.	z,PAL               		; if PAL process at any interrupt;
     321.  00:41E4                      
     322.  00:41E4                      NTSC:
     323.  00:41E4  21 61 C0                ld	hl,equalization_cnt  		; if NTSC call 5 times out of 6
     324.  00:41E7  35                      dec	(hl)
     325.  00:41E8  20 0E                   jr.	nz,PAL               		; skip music data processing one tic out of 6
     326.  00:41EA                      
     327.  00:41EA                      	;--- Reset timer and raise equalization flag
     328.  00:41EA  3E 06               	ld	a,6
     329.  00:41EC  77                  	ld	(hl),a						
     330.  00:41ED  32 62 C0             	ld	(equalization_flag),a		
     331.  00:41F0                      
     332.  00:41F0  CD 8F 43            	call	replay_decodedata_NO	
     333.  00:41F3  AF                  	xor	a
     334.  00:41F4  32 62 C0            	ld	(equalization_flag),a
     335.  00:41F7  C9                  	ret
     336.  00:41F8                      PAL:                             ; execute the PSG and ayFX core	
     337.  00:41F8                      	;---- END SPEED EQUALIZATION	
     338.  00:41F8                      
     339.  00:41F8                      		
     340.  00:41F8                      	;--- The speed timer
     341.  00:41F8  21 0F C0            	ld	hl,replay_speed_timer
     342.  00:41FB  35                  	dec	(hl)
     343.  00:41FC                      
     344.  00:41FC  C2 A7 41            	jp	nz,_replay_check_patternend	
     345.  00:41FF                      	
     346.  00:41FF                      	;--- Re-init Timer == 0
     347.  00:41FF  AF                  	xor	a
     348.  00:4200  ED 4B 0D C0         	ld	bc,(replay_speed)		; [b]	subtimer [c] speed
     349.  00:4204  CB 39               	srl	c				; bit	0 is halve speedstep
     350.  00:4206  8F                  	adc	a,a
     351.  00:4207  A8                  	xor	b				; alternate	speed	to have halve speed.
     352.  00:4208  32 0E C0            	ld	(replay_speed_subtimer),a
     353.  00:420B  81                  	add	c
     354.  00:420C  32 0F C0            	ld	(replay_speed_timer),a
     355.  00:420F                      ;===========================================================
     356.  00:420F                      ; ---	replay_decodedata
     357.  00:420F                      ; Process the patterndata 
     358.  00:420F                      ;===========================================================
     359.  00:420F                      replay_decodedata:
     360.  00:420F                      	;--- process the channels (tracks)
     361.  00:420F  21 86 C0            	ld 	hl,TRACK_Chan1+17+TRACK_Retrig
     362.  00:4212  35                  	dec	(hl)				;Check if retrig has ended
     363.  00:4213  C2 1E 42            	jp	nz,.retrig_skip1
     364.  00:4216  3A 6D C0            	ld	a,(TRACK_Chan1+17+TRACK_Flags)
     365.  00:4219  CB 9F               	res	B_TRGCMD,a
     366.  00:421B  32 6D C0            	ld	(TRACK_Chan1+17+TRACK_Flags),a
     367.  00:421E                      	
     368.  00:421E                      .retrig_skip1:	
     369.  00:421E  2B                  	dec	hl
     370.  00:421F                      ;	ld 	hl,TRACK_Chan1+17+TRACK_Delay
     371.  00:421F  35                  	dec	(hl)
     372.  00:4220  C2 3F 42            	jp	nz,.decode2
     373.  00:4223                      
     374.  00:4223  3A 6D C0            	ld	a,(TRACK_Chan1+17+TRACK_Flags)
     375.  00:4226  E6 FB               	and	11111011b		; reset B_TRGENV
     376.  00:4228  57                  	ld	d,a
     377.  00:4229  3A 6A C0            	ld	a,(TRACK_Chan1+17+TRACK_Note)	
     378.  00:422C  DD 21 74 C0         	ld	ix,TRACK_Chan1+17
     379.  00:4230  ED 4B 93 C1         	ld	bc,(TRACK_pointer1)
     380.  00:4234  CD B6 44            	call	replay_decode_chan
     381.  00:4237  ED 43 93 C1         	ld	(TRACK_pointer1),bc
     382.  00:423B  7A                  	ld	a,d
     383.  00:423C  32 6D C0            	ld	(TRACK_Chan1+17+TRACK_Flags),a	
     384.  00:423F                      
     385.  00:423F                      .decode2:	
     386.  00:423F  21 AC C0            	ld 	hl,TRACK_Chan2+17+TRACK_Retrig
     387.  00:4242  35                  	dec	(hl)				;Check if retrig has ended
     388.  00:4243  C2 4E 42            	jp	nz,.retrig_skip2
     389.  00:4246  3A 93 C0            	ld	a,(TRACK_Chan2+17+TRACK_Flags)
     390.  00:4249  CB 9F               	res	B_TRGCMD,a
     391.  00:424B  32 93 C0            	ld	(TRACK_Chan2+17+TRACK_Flags),a
     392.  00:424E                      	
     393.  00:424E                      .retrig_skip2:	
     394.  00:424E  2B                  	dec	hl
     395.  00:424F                      ;	ld 	hl,TRACK_Chan2+17+TRACK_Delay
     396.  00:424F  35                  	dec	(hl)
     397.  00:4250  C2 6F 42            	jp	nz,.decode3
     398.  00:4253                      
     399.  00:4253  3A 93 C0            	ld	a,(TRACK_Chan2+17+TRACK_Flags)
     400.  00:4256  E6 FB               	and	11111011b		; reset B_TRGENV
     401.  00:4258  57                  	ld	d,a
     402.  00:4259  3A 90 C0            	ld	a,(TRACK_Chan2+17+TRACK_Note)	
     403.  00:425C  DD 21 9A C0         	ld	ix,TRACK_Chan2+17
     404.  00:4260  ED 4B 95 C1         	ld	bc,(TRACK_pointer2)
     405.  00:4264  CD B6 44            	call	replay_decode_chan
     406.  00:4267  ED 43 95 C1         	ld	(TRACK_pointer2),bc
     407.  00:426B  7A                  	ld	a,d				;'
     408.  00:426C  32 93 C0            	ld	(TRACK_Chan2+17+TRACK_Flags),a	
     409.  00:426F                      
     410.  00:426F                      .decode3:
     411.  00:426F  21 D2 C0            	ld 	hl,TRACK_Chan3+17+TRACK_Retrig
     412.  00:4272  35                  	dec	(hl)				;Check if retrig has ended
     413.  00:4273  C2 7E 42            	jp	nz,.retrig_skip3
     414.  00:4276  3A B9 C0            	ld	a,(TRACK_Chan3+17+TRACK_Flags)
     415.  00:4279  CB 9F               	res	B_TRGCMD,a
     416.  00:427B  32 B9 C0            	ld	(TRACK_Chan3+17+TRACK_Flags),a
     417.  00:427E                      	
     418.  00:427E                      .retrig_skip3:	
     419.  00:427E  2B                  	dec	hl
     420.  00:427F                      ;	ld 	hl,TRACK_Chan3+17+TRACK_Delay
     421.  00:427F  35                  	dec	(hl)
     422.  00:4280  C2 9F 42            	jp	nz,.decode4
     423.  00:4283                      
     424.  00:4283  3A B9 C0            	ld	a,(TRACK_Chan3+17+TRACK_Flags)
     425.  00:4286  E6 FB               	and	11111011b		; reset B_TRGENV
     426.  00:4288  57                  	ld	d,a		;'
     427.  00:4289  3A B6 C0            	ld	a,(TRACK_Chan3+17+TRACK_Note)	
     428.  00:428C  DD 21 C0 C0         	ld	ix,TRACK_Chan3+17
     429.  00:4290  ED 4B 97 C1         	ld	bc,(TRACK_pointer3)
     430.  00:4294  CD B6 44            	call	replay_decode_chan
     431.  00:4297  ED 43 97 C1         	ld	(TRACK_pointer3),bc
     432.  00:429B  7A                  	ld	a,d				;'
     433.  00:429C  32 B9 C0            	ld	(TRACK_Chan3+17+TRACK_Flags),a	
     434.  00:429F                      
     435.  00:429F                      .decode4:
     436.  00:429F  21 F8 C0            	ld 	hl,TRACK_Chan4+17+TRACK_Retrig
     437.  00:42A2  35                  	dec	(hl)				;Check if retrig has ended
     438.  00:42A3  C2 AE 42            	jp	nz,.retrig_skip4
     439.  00:42A6  3A DF C0            	ld	a,(TRACK_Chan4+17+TRACK_Flags)
     440.  00:42A9  CB 9F               	res	B_TRGCMD,a
     441.  00:42AB  32 DF C0            	ld	(TRACK_Chan4+17+TRACK_Flags),a
     442.  00:42AE                      	
     443.  00:42AE                      .retrig_skip4:	
     444.  00:42AE  2B                  	dec	hl
     445.  00:42AF                      ;	ld 	hl,TRACK_Chan4+17+TRACK_Delay
     446.  00:42AF  35                  	dec	(hl)
     447.  00:42B0  C2 CF 42            	jp	nz,.decode5
     448.  00:42B3                      
     449.  00:42B3  3A DF C0            	ld	a,(TRACK_Chan4+17+TRACK_Flags)
     450.  00:42B6  E6 FB               	and	11111011b		; reset B_TRGENV
     451.  00:42B8  57                  	ld 	d,a		;'
     452.  00:42B9  3A DC C0            	ld	a,(TRACK_Chan4+17+TRACK_Note)	
     453.  00:42BC  DD 21 E6 C0         	ld	ix,TRACK_Chan4+17
     454.  00:42C0  ED 4B 99 C1         	ld	bc,(TRACK_pointer4)
     455.  00:42C4  CD B6 44            	call	replay_decode_chan
     456.  00:42C7  ED 43 99 C1         	ld	(TRACK_pointer4),bc
     457.  00:42CB  7A                  	ld	a,d			;'
     458.  00:42CC  32 DF C0            	ld	(TRACK_Chan4+17+TRACK_Flags),a	
     459.  00:42CF                      
     460.  00:42CF                      
     461.  00:42CF                      .decode5:
     462.  00:42CF  21 1E C1            	ld 	hl,TRACK_Chan5+17+TRACK_Retrig
     463.  00:42D2  35                  	dec	(hl)				;Check if retrig has ended
     464.  00:42D3  C2 DE 42            	jp	nz,.retrig_skip5
     465.  00:42D6  3A 05 C1            	ld	a,(TRACK_Chan5+17+TRACK_Flags)
     466.  00:42D9  CB 9F               	res	B_TRGCMD,a
     467.  00:42DB  32 05 C1            	ld	(TRACK_Chan5+17+TRACK_Flags),a
     468.  00:42DE                      	
     469.  00:42DE                      .retrig_skip5:	
     470.  00:42DE  2B                  	dec	hl
     471.  00:42DF                      ;	ld 	hl,TRACK_Chan5+17+TRACK_Delay
     472.  00:42DF  35                  	dec	(hl)
     473.  00:42E0  C2 FF 42            	jp	nz,.decode6
     474.  00:42E3                      
     475.  00:42E3  3A 05 C1            	ld	a,(TRACK_Chan5+17+TRACK_Flags)
     476.  00:42E6  E6 FB               	and	11111011b		; reset B_TRGENV
     477.  00:42E8  57                  	ld	d,a		;'
     478.  00:42E9  3A 02 C1            	ld	a,(TRACK_Chan5+17+TRACK_Note)	
     479.  00:42EC  DD 21 0C C1         	ld	ix,TRACK_Chan5+17
     480.  00:42F0  ED 4B 9B C1         	ld	bc,(TRACK_pointer5)
     481.  00:42F4  CD B6 44            	call	replay_decode_chan
     482.  00:42F7  ED 43 9B C1         	ld	(TRACK_pointer5),bc
     483.  00:42FB  7A                  	ld	a,d			;'
     484.  00:42FC  32 05 C1            	ld	(TRACK_Chan5+17+TRACK_Flags),a	
     485.  00:42FF                      
     486.  00:42FF                      
     487.  00:42FF                      .decode6:
     488.  00:42FF  21 44 C1            	ld 	hl,TRACK_Chan6+17+TRACK_Retrig
     489.  00:4302  35                  	dec	(hl)				;Check if retrig has ended
     490.  00:4303  C2 0E 43            	jp	nz,.retrig_skip6
     491.  00:4306  3A 2B C1            	ld	a,(TRACK_Chan6+17+TRACK_Flags)
     492.  00:4309  CB 9F               	res	B_TRGCMD,a
     493.  00:430B  32 2B C1            	ld	(TRACK_Chan6+17+TRACK_Flags),a	
     494.  00:430E                      .retrig_skip6:	
     495.  00:430E  2B                  	dec	hl
     496.  00:430F                      ;	ld 	hl,TRACK_Chan6+17+TRACK_Delay
     497.  00:430F  35                  	dec	(hl)
     498.  00:4310  C2 2F 43            	jp	nz,.decode7
     499.  00:4313                      
     500.  00:4313  3A 2B C1            	ld	a,(TRACK_Chan6+17+TRACK_Flags)
     501.  00:4316  E6 FB               	and	11111011b		; reset B_TRGENV
     502.  00:4318  57                  	ld	d,a		;'
     503.  00:4319  3A 28 C1            	ld	a,(TRACK_Chan6+17+TRACK_Note)	
     504.  00:431C  DD 21 32 C1         	ld	ix,TRACK_Chan6+17
     505.  00:4320  ED 4B 9D C1         	ld	bc,(TRACK_pointer6)
     506.  00:4324  CD B6 44            	call	replay_decode_chan
     507.  00:4327  ED 43 9D C1         	ld	(TRACK_pointer6),bc
     508.  00:432B  7A                  	ld	a,d				;'
     509.  00:432C  32 2B C1            	ld	(TRACK_Chan6+17+TRACK_Flags),a	
     510.  00:432F                      
     511.  00:432F                      
     512.  00:432F                      .decode7:
     513.  00:432F  21 6A C1            	ld 	hl,TRACK_Chan7+17+TRACK_Retrig
     514.  00:4332  35                  	dec	(hl)				;Check if retrig has ended
     515.  00:4333  C2 3E 43            	jp	nz,.retrig_skip7
     516.  00:4336  3A 51 C1            	ld	a,(TRACK_Chan7+17+TRACK_Flags)
     517.  00:4339  CB 9F               	res	B_TRGCMD,a
     518.  00:433B  32 51 C1            	ld	(TRACK_Chan7+17+TRACK_Flags),a
     519.  00:433E                      	
     520.  00:433E                      .retrig_skip7:	
     521.  00:433E  2B                  	dec	hl
     522.  00:433F                      ;	ld 	hl,TRACK_Chan7+17+TRACK_Delay
     523.  00:433F  35                  	dec	(hl)
     524.  00:4340  C2 5F 43            	jp	nz,.decode8
     525.  00:4343                      
     526.  00:4343  3A 51 C1            	ld	a,(TRACK_Chan7+17+TRACK_Flags)
     527.  00:4346  E6 FB               	and	11111011b		; reset B_TRGENV
     528.  00:4348  57                  	ld	d,a		;'
     529.  00:4349  3A 4E C1            	ld	a,(TRACK_Chan7+17+TRACK_Note)	
     530.  00:434C  DD 21 58 C1         	ld	ix,TRACK_Chan7+17
     531.  00:4350  ED 4B 9F C1         	ld	bc,(TRACK_pointer7)
     532.  00:4354  CD B6 44            	call	replay_decode_chan
     533.  00:4357  ED 43 9F C1         	ld	(TRACK_pointer7),bc
     534.  00:435B  7A                  	ld	a,d				;'
     535.  00:435C  32 51 C1            	ld	(TRACK_Chan7+17+TRACK_Flags),a	
     536.  00:435F                      
     537.  00:435F                      
     538.  00:435F                      .decode8:
     539.  00:435F  21 90 C1            	ld 	hl,TRACK_Chan8+17+TRACK_Retrig
     540.  00:4362  35                  	dec	(hl)				;Check if retrig has ended
     541.  00:4363  C2 6E 43            	jp	nz,.retrig_skip8
     542.  00:4366  3A 77 C1            	ld	a,(TRACK_Chan8+17+TRACK_Flags)
     543.  00:4369  CB 9F               	res	B_TRGCMD,a
     544.  00:436B  32 77 C1            	ld	(TRACK_Chan8+17+TRACK_Flags),a
     545.  00:436E                      	
     546.  00:436E                      .retrig_skip8:	
     547.  00:436E  2B                  	dec	hl
     548.  00:436F                      ;	ld 	hl,TRACK_Chan8+17+TRACK_Delay
     549.  00:436F  35                  	dec	(hl)
     550.  00:4370  C2 8F 43            	jp	nz,.decode_end
     551.  00:4373                      
     552.  00:4373  3A 77 C1            	ld	a,(TRACK_Chan8+17+TRACK_Flags)
     553.  00:4376  E6 FB               	and	11111011b		; reset B_TRGENV
     554.  00:4378  57                  	ld	d,a		;'
     555.  00:4379  3A 74 C1            	ld	a,(TRACK_Chan8+17+TRACK_Note)	
     556.  00:437C  DD 21 7E C1         	ld	ix,TRACK_Chan8+17
     557.  00:4380  ED 4B A1 C1         	ld	bc,(TRACK_pointer8)
     558.  00:4384  CD B6 44            	call	replay_decode_chan
     559.  00:4387  ED 43 A1 C1         	ld	(TRACK_pointer8),bc
     560.  00:438B  7A                  	ld	a,d				;'
     561.  00:438C  32 77 C1            	ld	(TRACK_Chan8+17+TRACK_Flags),a
     562.  00:438F                      		
     563.  00:438F                      .decode_end:
     564.  00:438F                      	; continue to process data
     565.  00:438F                      ;===========================================================
     566.  00:438F                      ; ---	replay_decodedata_NO
     567.  00:438F                      ; Process changes.
     568.  00:438F                      ; 
     569.  00:438F                      ; 
     570.  00:438F                      ;===========================================================
     571.  00:438F                      replay_decodedata_NO:
     572.  00:438F                      	;---- morph routine here
     573.  00:438F  3A 1B C0            	ld	a,(replay_morph_active)
     574.  00:4392  A7                  	and	a
     575.  00:4393  C4 BF 4C            	call	nz,replay_process_morph
     576.  00:4396                      
     577.  00:4396                      	;--- Initialize PSG Mixer and volume
     578.  00:4396  AF                  	xor	a
     579.  00:4397  32 40 C2            	ld	(SCC_regMIXER),a
     580.  00:439A                      
     581.  00:439A                      	;--- PSG balance
     582.  00:439A  2A 03 C0            	ld	hl,(replay_mainPSGvol)
     583.  00:439D  22 15 C0            	ld	(replay_mainvol),hl
     584.  00:43A0                      
     585.  00:43A0                      	;--- Process track 1
     586.  00:43A0  DD 21 74 C0         	ld	ix,TRACK_Chan1+17
     587.  00:43A4  3A 6D C0            	ld	a,(TRACK_Chan1+17+TRACK_Flags)
     588.  00:43A7  57                  	ld	d,a
     589.  00:43A8  CD FB 47            	call	replay_process_chan_AY
     590.  00:43AB  22 A3 C1            	ld	(AY_regToneA),hl
     591.  00:43AE  7A                  	ld	a,d
     592.  00:43AF  32 6D C0            	ld	(TRACK_Chan1+17+TRACK_Flags),a	
     593.  00:43B2  3A 3F C2            	ld	a,(SCC_regVOLE)
     594.  00:43B5  32 AB C1            	ld	(AY_regVOLA),a	
     595.  00:43B8                      
     596.  00:43B8                      	;--- Process track 2
     597.  00:43B8  DD 21 9A C0         	ld	ix,TRACK_Chan2+17
     598.  00:43BC  3A 93 C0            	ld	a,(TRACK_Chan2+17+TRACK_Flags)
     599.  00:43BF  57                  	ld	d,a
     600.  00:43C0  CD FB 47            	call	replay_process_chan_AY
     601.  00:43C3  22 A5 C1            	ld	(AY_regToneB),hl
     602.  00:43C6  7A                  	ld	a,d
     603.  00:43C7  32 93 C0            	ld	(TRACK_Chan2+17+TRACK_Flags),a	
     604.  00:43CA  3A 3F C2            	ld	a,(SCC_regVOLE)
     605.  00:43CD  32 AC C1            	ld	(AY_regVOLB),a	
     606.  00:43D0                      
     607.  00:43D0                      	;--- Process track 3	
     608.  00:43D0  DD 21 C0 C0         	ld	ix,TRACK_Chan3+17
     609.  00:43D4  3A B9 C0            	ld	a,(TRACK_Chan3+17+TRACK_Flags)
     610.  00:43D7  57                  	ld	d,a
     611.  00:43D8  CD FB 47            	call	replay_process_chan_AY
     612.  00:43DB  22 A7 C1            	ld	(AY_regToneC),hl
     613.  00:43DE  7A                  	ld	a,d
     614.  00:43DF  32 B9 C0            	ld	(TRACK_Chan3+17+TRACK_Flags),a	
     615.  00:43E2  3A 3F C2            	ld	a,(SCC_regVOLE)
     616.  00:43E5  32 AD C1            	ld	(AY_regVOLC),a
     617.  00:43E8                      	
     618.  00:43E8                      	;--- To disable track 3 just comment above lines (9 lines) and enable below 2 lines.
     619.  00:43E8                      	;    This can be done for all tracks.
     620.  00:43E8                      ;	ld	hl,SCC_regMIXER   
     621.  00:43E8                      ;	srl	(hl)
     622.  00:43E8                      
     623.  00:43E8                      	
     624.  00:43E8                      
     625.  00:43E8                      	;-- Convert mixer to AY
     626.  00:43E8  3A 40 C2            	ld	a,(SCC_regMIXER)		
     627.  00:43EB  CB 3F               	srl	a
     628.  00:43ED  CB 3F               	srl	a
     629.  00:43EF  EE 3F               	xor	0x3f
     630.  00:43F1  32 AA C1            	ld	(AY_regMIXER),a
     631.  00:43F4                      
     632.  00:43F4                      
     633.  00:43F4                      	;--- set SCC balance
     634.  00:43F4  2A 05 C0            	ld	hl,(replay_mainSCCvol)
     635.  00:43F7  22 15 C0            	ld	(replay_mainvol),hl
     636.  00:43FA                      
     637.  00:43FA                      	
     638.  00:43FA  FD 26 00            	ld	iyh,0			; iyh stores the SCC chan#
     639.  00:43FD                      					; used for waveform updates
     640.  00:43FD                      	;--- Process track 4
     641.  00:43FD  DD 21 E6 C0         	ld	ix,TRACK_Chan4+17
     642.  00:4401  3A DF C0            	ld	a,(TRACK_Chan4+17+TRACK_Flags)
     643.  00:4404  57                  	ld	d,a
     644.  00:4405  CD FB 47            	call	replay_process_chan_AY
     645.  00:4408  22 31 C2            	ld	(SCC_regToneA),hl
     646.  00:440B  7A                  	ld	a,d
     647.  00:440C  32 DF C0            	ld	(TRACK_Chan4+17+TRACK_Flags),a	
     648.  00:440F  3A 3F C2            	ld	a,(SCC_regVOLE)
     649.  00:4412  32 3B C2            	ld	(SCC_regVOLA),a	
     650.  00:4415                      
     651.  00:4415                      	;--- Process track 5
     652.  00:4415  FD 24               	inc	iyh
     653.  00:4417                      	
     654.  00:4417  DD 21 0C C1         	ld	ix,TRACK_Chan5+17
     655.  00:441B  3A 05 C1            	ld	a,(TRACK_Chan5+17+TRACK_Flags)
     656.  00:441E  57                  	ld	d,a
     657.  00:441F  CD FB 47            	call	replay_process_chan_AY
     658.  00:4422  22 33 C2            	ld	(SCC_regToneB),hl
     659.  00:4425  7A                  	ld	a,d
     660.  00:4426  32 05 C1            	ld	(TRACK_Chan5+17+TRACK_Flags),a	
     661.  00:4429  3A 3F C2            	ld	a,(SCC_regVOLE)
     662.  00:442C  32 3C C2            	ld	(SCC_regVOLB),a	
     663.  00:442F                      
     664.  00:442F                      	;--- Process track 6
     665.  00:442F  FD 24               	inc	iyh
     666.  00:4431                      		
     667.  00:4431  DD 21 32 C1         	ld	ix,TRACK_Chan6+17
     668.  00:4435  3A 2B C1            	ld	a,(TRACK_Chan6+17+TRACK_Flags)
     669.  00:4438  57                  	ld	d,a
     670.  00:4439  CD FB 47            	call	replay_process_chan_AY
     671.  00:443C  22 35 C2            	ld	(SCC_regToneC),hl
     672.  00:443F  7A                  	ld	a,d
     673.  00:4440  32 2B C1            	ld	(TRACK_Chan6+17+TRACK_Flags),a	
     674.  00:4443  3A 3F C2            	ld	a,(SCC_regVOLE)
     675.  00:4446  32 3D C2            	ld	(SCC_regVOLC),a	
     676.  00:4449                      
     677.  00:4449                      	;--- Process track 7
     678.  00:4449  FD 24               	inc	iyh
     679.  00:444B                      		
     680.  00:444B  DD 21 58 C1         	ld	ix,TRACK_Chan7+17
     681.  00:444F  3A 51 C1            	ld	a,(TRACK_Chan7+17+TRACK_Flags)
     682.  00:4452  57                  	ld	d,a
     683.  00:4453  CD FB 47            	call	replay_process_chan_AY
     684.  00:4456  22 37 C2            	ld	(SCC_regToneD),hl
     685.  00:4459  7A                  	ld	a,d
     686.  00:445A  32 51 C1            	ld	(TRACK_Chan7+17+TRACK_Flags),a	
     687.  00:445D  3A 3F C2            	ld	a,(SCC_regVOLE)
     688.  00:4460  32 3E C2            	ld	(SCC_regVOLD),a		
     689.  00:4463                      
     690.  00:4463                      	;--- Process track 8
     691.  00:4463                      ;	inc	iyh			; no waveform for SCC channel 5
     692.  00:4463                      		
     693.  00:4463  DD 21 7E C1         	ld	ix,TRACK_Chan8+17
     694.  00:4467  3A 77 C1            	ld	a,(TRACK_Chan8+17+TRACK_Flags)
     695.  00:446A  57                  	ld	d,a
     696.  00:446B  CD FB 47            	call	replay_process_chan_AY
     697.  00:446E  22 39 C2            	ld	(SCC_regToneE),hl
     698.  00:4471  7A                  	ld	a,d
     699.  00:4472  32 77 C1            	ld	(TRACK_Chan8+17+TRACK_Flags),a	
     700.  00:4475                      
     701.  00:4475                      	;-- Fade out processing
     702.  00:4475  3A 11 C0            	ld	a,(replay_fade)
     703.  00:4478  A7                  	and	a
     704.  00:4479  C8                  	ret	z	; if replay fade = 0 then no fade active
     705.  00:447A                      	
     706.  00:447A                      	; decrease fade timer
     707.  00:447A  3A 12 C0            	ld	a,(replay_fade_timer)
     708.  00:447D  3D                  	dec	a
     709.  00:447E  C2 97 44            	jp	nz,.no_new_step
     710.  00:4481                      
     711.  00:4481  3A 13 C0            	ld	a,(replay_fade_vol)
     712.  00:4484  3C                  	inc	a
     713.  00:4485  FE 10               	cp	16
     714.  00:4487  DA 91 44            	jp	c,.cont_fadeing
     715.  00:448A  AF                  	xor	a
     716.  00:448B  32 11 C0            	ld	(replay_fade),a
     717.  00:448E  C3 97 40            	jp	replay_pause
     718.  00:4491                      .cont_fadeing:	
     719.  00:4491  32 13 C0            	ld	(replay_fade_vol),a
     720.  00:4494  3A 11 C0            	ld	a,(replay_fade)
     721.  00:4497                      .no_new_step:
     722.  00:4497  32 12 C0            	ld	(replay_fade_timer),a
     723.  00:449A                      
     724.  00:449A  3A 13 C0            	ld	a,(replay_fade_vol)
     725.  00:449D  4F                  	ld	c,a
     726.  00:449E  06 03               	ld	b,3
     727.  00:44A0  21 AB C1            	ld	hl,AY_regVOLA
     728.  00:44A3  CD AB 44            	call	.calc_vol
     729.  00:44A6  06 05               	ld	b,5
     730.  00:44A8  21 3B C2            	ld	hl,SCC_regVOLA
     731.  00:44AB                      
     732.  00:44AB                      .calc_vol:	
     733.  00:44AB  7E                  	ld	a,(hl)
     734.  00:44AC  91                  	sub	c
     735.  00:44AD  D2 B1 44            	jp	nc,.no_carry
     736.  00:44B0  AF                  	xor	a
     737.  00:44B1                      .no_carry:	
     738.  00:44B1  77                  	ld	(hl),a
     739.  00:44B2  23                  	inc	hl
     740.  00:44B3  10 F6               	djnz	.calc_vol
     741.  00:44B5  C9                  	ret
     742.  00:44B6                      
     743.  00:44B6                      
     744.  00:44B6                      	
     745.  00:44B6                      replay_decode_chan:
     746.  00:44B6                      	;--- initialize data
     747.  00:44B6                      ;	ld	a,(ix+TRACK_Note)
     748.  00:44B6  32 14 C0            	ld	(replay_previous_note),a
     749.  00:44B9                      
     750.  00:44B9                      ;	;--- Check if retrig has ended
     751.  00:44B9                      ;	dec	(ix+TRACK_Retrig)
     752.  00:44B9                      ;	jp	nz,.skip_retrig_reset
     753.  00:44B9                      ;	res 	B_TRGCMD,(ix+TRACK_Flags)
     754.  00:44B9                      ;
     755.  00:44B9                      ;.skip_retrig_reset:
     756.  00:44B9                      	;=============
     757.  00:44B9                      	; Note 
     758.  00:44B9                      	;=============
     759.  00:44B9  0A                  	ld	a,(bc)
     760.  00:44BA  FE 60               	cp	96
     761.  00:44BC                      
     762.  00:44BC  DA FD 44            	jp	c,_replay_decode_note
     763.  00:44BF  CA 09 45            	jp	z,_replay_decode_rest
     764.  00:44C2  FE 70               _rdn2:cp	112;128
     765.  00:44C4  DA 4B 45            	jp	c,_replay_decode_vol
     766.  00:44C7  FE 8F               _rdv2:cp	143
     767.  00:44C9  DA 12 45            	jp	c,_replay_decode_ins
     768.  00:44CC                      _rdi2:
     769.  00:44CC  FE BF               	cp	191
     770.  00:44CE  D2 60 45            	jp	nc,_replay_decode_delay
     771.  00:44D1  DA 6D 45            	jp	c,_replay_decode_cmd
     772.  00:44D4                      
     773.  00:44D4                      _rdn:
     774.  00:44D4  FE 61               	cp	97
     775.  00:44D6  DA F6 44            	jp	c,_rd_delay
     776.  00:44D9  C3 C2 44            	jp	_rdn2
     777.  00:44DC                      
     778.  00:44DC                      _rdi:
     779.  00:44DC  FE 8F               	cp	143
     780.  00:44DE  DA F6 44            	jp	c,_rd_delay
     781.  00:44E1  C3 CC 44            	jp	_rdi2
     782.  00:44E4                      
     783.  00:44E4                      _rdv:
     784.  00:44E4  FE 70               	cp	112
     785.  00:44E6  DA F6 44            	jp	c,_rd_delay
     786.  00:44E9  C3 C7 44            	jp	_rdv2
     787.  00:44EC                      _rdc:
     788.  00:44EC  03                  	inc	bc
     789.  00:44ED  0A                  	ld	a,(bc)
     790.  00:44EE  FE BF               	cp	191
     791.  00:44F0  DA F6 44            	jp	c,_rd_delay
     792.  00:44F3  C3 60 45            	jp	_replay_decode_delay
     793.  00:44F6                      
     794.  00:44F6                      	;--- re-init previous delay
     795.  00:44F6                      _rd_delay:
     796.  00:44F6  DD 7E 13            	ld	a,(ix+TRACK_prevDelay)
     797.  00:44F9  DD 77 11            	ld	(ix+TRACK_Delay),a
     798.  00:44FC                      
     799.  00:44FC  C9                  	ret
     800.  00:44FD                      
     801.  00:44FD                      
     802.  00:44FD                      
     803.  00:44FD                      _replay_decode_note:
     804.  00:44FD  DD 77 F6            	ld	(ix+TRACK_Note),a
     805.  00:4500  CB C2               	set 	B_TRGNOT,d
     806.  00:4502  CB A2               	res	B_ACTMOR,d
     807.  00:4504                      
     808.  00:4504  03                  	inc	bc
     809.  00:4505  0A                  	ld	a,(bc)
     810.  00:4506  C3 D4 44            	jp	_rdn
     811.  00:4509                      	
     812.  00:4509                      _replay_decode_rest:
     813.  00:4509  CB 8A               	res	B_ACTNOT,d				; set	note bit to	0
     814.  00:450B  CB A2               	res	B_ACTMOR,d				; reset morph slave mode
     815.  00:450D                      
     816.  00:450D  03                  	inc	bc
     817.  00:450E  0A                  	ld	a,(bc)
     818.  00:450F  C3 D4 44            	jp	_rdn
     819.  00:4512                      
     820.  00:4512                      _replay_decode_ins:
     821.  00:4512  CB A2               	res	B_ACTMOR,d				; reset morph slave mode
     822.  00:4514  D6 70               	sub	112;97
     823.  00:4516  DD BE EF            	cp	(ix+TRACK_Instrument)
     824.  00:4519  CA 46 45            	jp	z,.skip_ins
     825.  00:451C                      	
     826.  00:451C  DD 77 EF            	ld	(ix+TRACK_Instrument),a
     827.  00:451F                      
     828.  00:451F                      	;--- set instrument pointer
     829.  00:451F  87                  	add	a
     830.  00:4520  2A 09 C0            	ld	hl,(replay_insbase)
     831.  00:4523  85                  	add	a,l
     832.  00:4524  6F                  	ld	l,a
     833.  00:4525  D2 29 45            	jp	nc,.skip
     834.  00:4528  24                  	inc	h
     835.  00:4529                      .skip:
     836.  00:4529  7E                  	ld	a,(hl)
     837.  00:452A  23                  	inc	hl
     838.  00:452B  66                  	ld	h,(hl)
     839.  00:452C  6F                  	ld	l,a
     840.  00:452D                      
     841.  00:452D                      	;-- get waveform
     842.  00:452D  7E                  	ld	a,(hl)
     843.  00:452E  23                  	inc	hl
     844.  00:452F                      	
     845.  00:452F                      ;	ld	e,(hl)
     846.  00:452F                      ;	inc	hl
     847.  00:452F                      
     848.  00:452F                      	;---- Store the restart offset
     849.  00:452F                      ;	ld	(ix+TRACK_MacroRestart),e
     850.  00:452F                      	;--- Store the macro start
     851.  00:452F  DD 75 F1            	ld	(ix+TRACK_MacroPointer),l
     852.  00:4532  DD 74 F2            	ld	(ix+TRACK_MacroPointer+1),h	
     853.  00:4535                      	;--- Store the macro re-start
     854.  00:4535  DD 75 F3            	ld	(ix+TRACK_MacroStart),l
     855.  00:4538  DD 74 F4            	ld	(ix+TRACK_MacroStart+1),h		
     856.  00:453B                      	;--- Set the waveform  (if needed)
     857.  00:453B  DD BE F8            	cp	(ix+TRACK_Waveform)
     858.  00:453E  CA 46 45            	jp	z,.skip_ins
     859.  00:4541                      	
     860.  00:4541                      	;--- this is a new waveform
     861.  00:4541  DD 77 F8            	ld	(ix+TRACK_Waveform),a
     862.  00:4544  CB F2               	set	B_TRGWAV,d
     863.  00:4546                      	
     864.  00:4546                      .skip_ins:	
     865.  00:4546  03                  	inc	bc
     866.  00:4547  0A                  	ld	a,(bc)
     867.  00:4548  C3 DC 44            	jp	_rdi
     868.  00:454B                      
     869.  00:454B                      _replay_decode_vol:
     870.  00:454B  D6 60               	sub	96;127
     871.  00:454D  87                  	add	a
     872.  00:454E  87                  	add	a
     873.  00:454F  87                  	add	a
     874.  00:4550  87                  	add	a
     875.  00:4551                      	
     876.  00:4551                      	;--- Set new base	volume (high byte) but keep relative offset (low byte)
     877.  00:4551  5F                  	ld	e,a
     878.  00:4552  DD 7E F7            	ld	a,(ix+TRACK_Volume)
     879.  00:4555  E6 0F               	and	0xf
     880.  00:4557  B3                  	or	e
     881.  00:4558  DD 77 F7            	ld	(ix+TRACK_Volume),a
     882.  00:455B                      
     883.  00:455B  03                  	inc	bc
     884.  00:455C  0A                  	ld	a,(bc)
     885.  00:455D  C3 E4 44            	jp	_rdv
     886.  00:4560                      
     887.  00:4560                      
     888.  00:4560                      _replay_decode_delay:
     889.  00:4560  D6 BF               	sub	191
     890.  00:4562  CA F6 44            	jp	z,_rd_delay		; EOT found
     891.  00:4565  DD 77 11            	ld	(ix+TRACK_Delay),a
     892.  00:4568  DD 77 13            	ld	(ix+TRACK_prevDelay),a
     893.  00:456B                      
     894.  00:456B  03                  	inc	bc
     895.  00:456C  C9                  	ret
     896.  00:456D                      
     897.  00:456D                      
     898.  00:456D                      _replay_decode_cmd:
     899.  00:456D                      
     900.  00:456D  D6 8E               	sub	142
     901.  00:456F  DD 77 F0            	ld	(ix+TRACK_Command),a
     902.  00:4572  21 83 45            	ld	hl,DECODE_CMDLIST
     903.  00:4575  87                  	add	a,a
     904.  00:4576  85                  	add	a,l
     905.  00:4577  6F                  	ld	l,a
     906.  00:4578  D2 7C 45            	jp	nc,.skip
     907.  00:457B  24                  	inc	h
     908.  00:457C                      .skip:
     909.  00:457C  7E                  	ld	a,(hl)
     910.  00:457D  23                  	inc	hl
     911.  00:457E  66                  	ld	h,(hl)
     912.  00:457F  6F                  	ld	l,a
     913.  00:4580                      	
     914.  00:4580  03                  	inc	bc
     915.  00:4581  0A                  	ld	a,(bc)
     916.  00:4582  E9                  	jp	(hl)
     917.  00:4583                      
     918.  00:4583                      DECODE_CMDLIST:
     919.  00:4583                      	; These effects are only processed 1 once in decoding
     920.  00:4583  8E 46               	dw	_CHIPcmdA_env_mul			;0
     921.  00:4585  A3 46               	dw	_CHIPcmdB_wave_res		;1
     922.  00:4587  B5 46               	dw	_CHIPcmdF_wave_set		;2
     923.  00:4589  BF 46               	dw	_CHIPcmd10_morph_slave		;3
     924.  00:458B  C5 46               	dw	_CHIPcmd11_morph_start		;4
     925.  00:458D  EB 46               	dw	_CHIPcmd12_morph_cont		;5
     926.  00:458F  1A 47               	dw	_CHIPcmd16_vib_ctrl		;6
     927.  00:4591  40 47               	dw	_CHIPcmd17_track_detune		;7
     928.  00:4593  5F 47               	dw	_CHIPcmd18_transpose		;8
     929.  00:4595  AC 47               	dw	_CHIPcmd1A_trigger		;9
     930.  00:4597  B2 47               	dw	_CHIPcmd1B_speed			;a
     931.  00:4599  C5 47               	dw	_CHIPcmd1C_notelink		;b
     932.  00:459B                      ;	dw	_CHIPcmd1C_call			;b	
     933.  00:459B  CB 47               	dw	_CHIPcmd1D_ret			;c
     934.  00:459D                      	
     935.  00:459D                      	; These effects are also processed in the processing
     936.  00:459D  AB 46               	dw	_CHIPcmdC_wave_duty		;d
     937.  00:459F  AB 46               	dw	_CHIPcmdD_wave_cut		;e
     938.  00:45A1  AB 46               	dw	_CHIPcmdE_wave_compr		;f
     939.  00:45A3  02 47               	dw	_CHIPcmd13_short_arp		;10
     940.  00:45A5  0E 47               	dw	_CHIPcmd14_fine_up		;11
     941.  00:45A7  0E 47               	dw	_CHIPcmd15_fine_down		;12
     942.  00:45A9  8E 47               	dw	_CHIPcmd19_note_delay		;13
     943.  00:45AB  85 47               	dw	_CHIPcmdXX_note_cut		;14
     944.  00:45AD                      
     945.  00:45AD                      	; These effects can be retriggered
     946.  00:45AD  D5 45               	dw	_CHIPcmd0_arpeggio		;15
     947.  00:45AF  E5 45               	dw	_CHIPcmd1_port_up			;16
     948.  00:45B1  F1 45               	dw	_CHIPcmd2_port_down		;17
     949.  00:45B3  03 46               	dw	_CHIPcmd3_port_tone		;18
     950.  00:45B5  51 46               	dw	_CHIPcmd4_vibrato			;19
     951.  00:45B7  6F 46               	dw	_CHIPcmd5_vibrato_port_tone	;1a
     952.  00:45B9  6F 46               	dw	_CHIPcmd6_vibrato_vol		;1b
     953.  00:45BB  6F 46               	dw	_CHIPcmd7_vol_slide		;1c
     954.  00:45BD  7F 46               	dw	_CHIPcmd8_macro_offset		;1d
     955.  00:45BF  82 46               	dw	_CHIPcmd9_env_shape		;1e
     956.  00:45C1                      
     957.  00:45C1  CF 47               	dw	_CHIPcmd0_RE_arpeggio		;1f
     958.  00:45C3  D3 47               	dw	_CHIPcmd1_RE_port_up		;20
     959.  00:45C5  D3 47               	dw	_CHIPcmd2_RE_port_down		;21
     960.  00:45C7  FD 45               	dw	_CHIPcmd3_RE_port_tone		;22
     961.  00:45C9  D3 47               	dw	_CHIPcmd4_RE_vibrato		;23
     962.  00:45CB  DB 47               	dw	_CHIPcmd5_RE_vibrato_port_tone ;24
     963.  00:45CD  DB 47               	dw	_CHIPcmd6_RE_vibrato_vol	;25
     964.  00:45CF  DB 47               	dw	_CHIPcmd7_RE_vol_slide		;26
     965.  00:45D1  E7 47               	dw	_CHIPcmd8_RE_macro_offset	;27
     966.  00:45D3  F3 47               	dw	_CHIPcmd9_RE_env_shape		;28
     967.  00:45D5                      
     968.  00:45D5                      
     969.  00:45D5                      
     970.  00:45D5                      _CHIPcmd0_arpeggio:
     971.  00:45D5                      	; in:	[A] contains the paramvalue
     972.  00:45D5                      	; 
     973.  00:45D5                      	; ! do not change	[BC] this is the data pointer
     974.  00:45D5                      	;--------------------------------------------------
     975.  00:45D5                      	; Cycles between note, note+x	halftones, note+y
     976.  00:45D5                      	; halftones. 
     977.  00:45D5                      	; Ex:	(MOD/XM: C-4 01 .. 037)	This will play 
     978.  00:45D5                      	; C-4, C-4+3 semitones andC-4+7 semitones. 
     979.  00:45D5  DD 77 05            	ld	(ix+TRACK_cmd_0),a
     980.  00:45D8  CB DA               	set	B_TRGCMD,d
     981.  00:45DA  DD 36 0F 00         	ld	(ix+TRACK_Timer),0
     982.  00:45DE  DD 36 12 01         	ld	(ix+TRACK_Retrig),1
     983.  00:45E2  C3 EC 44            	jp	_rdc
     984.  00:45E5                      	
     985.  00:45E5                      _CHIPcmd1_port_up:
     986.  00:45E5                      	; in:	[A] contains the paramvalue
     987.  00:45E5                      	; 
     988.  00:45E5                      	; ! do not change	[BC] this is the data pointer
     989.  00:45E5                      	;--------------------------------------------------
     990.  00:45E5                      	; This will	slide	up the pitch of the current note
     991.  00:45E5                      	; being played by	the given speed. 
     992.  00:45E5  DD 77 06            	ld	(ix+TRACK_cmd_1),a
     993.  00:45E8  CB DA               	set	B_TRGCMD,d
     994.  00:45EA  DD 36 12 01         	ld	(ix+TRACK_Retrig),1
     995.  00:45EE  C3 EC 44            	jp	_rdc
     996.  00:45F1                      	
     997.  00:45F1                      	
     998.  00:45F1                      	 
     999.  00:45F1                      _CHIPcmd2_port_down:
    1000.  00:45F1                      	; in:	[A] contains the paramvalue
    1001.  00:45F1                      	; 
    1002.  00:45F1                      	; ! do not change	[BC] this is the data pointer
    1003.  00:45F1                      	;--------------------------------------------------
    1004.  00:45F1                      	; This will	slide	down the pitch of	the current	note
    1005.  00:45F1                      	; being played by	the given speed.	
    1006.  00:45F1  DD 77 07            	ld	(ix+TRACK_cmd_2),a
    1007.  00:45F4  CB DA               	set	B_TRGCMD,d
    1008.  00:45F6  DD 36 12 01         	ld	(ix+TRACK_Retrig),1
    1009.  00:45FA  C3 EC 44            	jp	_rdc
    1010.  00:45FD                      	
    1011.  00:45FD                      
    1012.  00:45FD                      _CHIPcmd3_RE_port_tone:
    1013.  00:45FD  DD 77 12            	ld	(ix+TRACK_Retrig),a
    1014.  00:4600  C3 0E 46            	jp	_CHIPcmd3_port_tone_cont	
    1015.  00:4603                      _CHIPcmd3_port_tone:
    1016.  00:4603                      	; in:	[A] contains the paramvalue
    1017.  00:4603                      	; 
    1018.  00:4603                      	; ! do not change	[BC] this is the data pointer
    1019.  00:4603                      	;--------------------------------------------------
    1020.  00:4603                      	; This command is	used together with a note, and 
    1021.  00:4603                      	; will bend	the current	pitch	at the given speed
    1022.  00:4603                      	; towards the specified	note.	Example:
    1023.  00:4603                      	;	C-4 1....
    1024.  00:4603                      	;	F-4 ..305 (bend the note up towards	F-4)
    1025.  00:4603                      	;	... ..300 (continue to slide up, until F-4
    1026.  00:4603                      	;						  is reached
    1027.  00:4603                      
    1028.  00:4603                      
    1029.  00:4603  DD 77 08            	ld	(ix+TRACK_cmd_3),a
    1030.  00:4606  DD 36 0F 02         	ld	(ix+TRACK_Timer),2
    1031.  00:460A  DD 36 12 01         	ld	(ix+TRACK_Retrig),1
    1032.  00:460E                      _CHIPcmd3_port_tone_cont:
    1033.  00:460E  CB DA               	set	B_TRGCMD,d
    1034.  00:4610  CB CA               	set	B_ACTNOT,d
    1035.  00:4612                      	;--- Check if we have a	note on the	same event
    1036.  00:4612  CB 42               	bit	B_TRGNOT,d
    1037.  00:4614  CA EC 44            	jp	z,_rdc
    1038.  00:4617                      
    1039.  00:4617                      	;-- get the	previous note freq
    1040.  00:4617  3A 14 C0            	ld	a,(replay_previous_note)
    1041.  00:461A  87                  	add	a
    1042.  00:461B                      
    1043.  00:461B  D9                  	exx
    1044.  00:461C  2A 19 C0            	ld	hl,(replay_Tonetable)	;TRACK_ToneTable
    1045.  00:461F  85                  	add	a,l
    1046.  00:4620  6F                  	ld	l,a
    1047.  00:4621  D2 25 46            	jp	nc,.skip
    1048.  00:4624  24                  	inc	h
    1049.  00:4625                      .skip:
    1050.  00:4625  5E                  	ld	e,(hl)
    1051.  00:4626  23                  	inc	hl
    1052.  00:4627  56                  	ld	d,(hl)
    1053.  00:4628                      
    1054.  00:4628                      	; add	the toneadd
    1055.  00:4628  DD 6E 00            	ld	l,(ix+TRACK_cmd_ToneSlideAdd)
    1056.  00:462B  DD 66 01            	ld	h,(ix+TRACK_cmd_ToneSlideAdd+1)
    1057.  00:462E                      
    1058.  00:462E  19                  	add	hl,de	
    1059.  00:462F  EB                  	ex	de,hl				; store current freq in	[de]
    1060.  00:4630                      
    1061.  00:4630                      	;--- get the current note freq
    1062.  00:4630  DD 7E F6            	ld	a,(ix+TRACK_Note)
    1063.  00:4633  87                  	add	a
    1064.  00:4634  2A 19 C0            	ld	hl,(replay_Tonetable)	;TRACK_ToneTable
    1065.  00:4637  85                  	add	a,l
    1066.  00:4638  6F                  	ld	l,a
    1067.  00:4639  D2 3D 46            	jp	nc,.skip2
    1068.  00:463C  24                  	inc	h
    1069.  00:463D                      .skip2:
    1070.  00:463D  7E                  	ld	a,(hl)
    1071.  00:463E  23                  	inc	hl
    1072.  00:463F  66                  	ld	h,(hl)
    1073.  00:4640  6F                  	ld	l,a				; destination freq in [hl]
    1074.  00:4641                      	
    1075.  00:4641                      	;--- Calculate the delta
    1076.  00:4641  AF                  	xor	a
    1077.  00:4642  EB                  	ex	de,hl
    1078.  00:4643  ED 52               	sbc	hl,de				; results in pos/neg delta
    1079.  00:4645                      	
    1080.  00:4645  DD 75 00            	ld	(ix+TRACK_cmd_ToneSlideAdd),l
    1081.  00:4648  DD 74 01            	ld	(ix+TRACK_cmd_ToneSlideAdd+1),h	
    1082.  00:464B  D9                  	exx
    1083.  00:464C                      	
    1084.  00:464C  CB 82               	res	B_TRGNOT,d
    1085.  00:464E                      
    1086.  00:464E  C3 EC 44            	jp	_rdc	
    1087.  00:4651                      
    1088.  00:4651                      	
    1089.  00:4651                      _CHIPcmd4_vibrato:
    1090.  00:4651                      	; in:	[A] contains the paramvalue
    1091.  00:4651                      	; 
    1092.  00:4651                      	; ! do not change	[BC] this is the data pointer
    1093.  00:4651                      	;--------------------------------------------------
    1094.  00:4651                      	; Vibrato with speed x and depth y.	This command 
    1095.  00:4651                      	; will oscillate the frequency of the current note
    1096.  00:4651                      	; with a sine wave. (You can change	the vibrato
    1097.  00:4651                      	; waveform to a triangle wave, a square wave, or a
    1098.  00:4651                      	; random table by	using	the E4x command).
    1099.  00:4651                      	;--- Init values
    1100.  00:4651  5F                  	ld	e,a
    1101.  00:4652  E6 07               	and	$07
    1102.  00:4654                      
    1103.  00:4654  DD 77 09            	ld	(ix+TRACK_cmd_4_depth),a
    1104.  00:4657  7B                  	ld	a,e
    1105.  00:4658  1F                  	rra
    1106.  00:4659  1F                  	rra
    1107.  00:465A  1F                  	rra
    1108.  00:465B  1F                  	rra
    1109.  00:465C  E6 0F               	and	$0f
    1110.  00:465E  DD 77 0A            	ld	(ix+TRACK_cmd_4_step),a
    1111.  00:4661  ED 44               	neg	
    1112.  00:4663  DD 77 10            	ld	(ix+TRACK_Step),a
    1113.  00:4666                      	
    1114.  00:4666  CB DA               	set	B_TRGCMD,d
    1115.  00:4668  DD 36 12 01         	ld	(ix+TRACK_Retrig),1
    1116.  00:466C  C3 EC 44            	jp	_rdc	
    1117.  00:466F                      
    1118.  00:466F                      
    1119.  00:466F                      _CHIPcmd5_vibrato_port_tone:
    1120.  00:466F                      	; in:	[A] contains the paramvalue
    1121.  00:466F                      	; 
    1122.  00:466F                      	; ! do not change	[BC] this is the data pointer
    1123.  00:466F                      	;--------------------------------------------------
    1124.  00:466F                      	; portTone	+ volumeslide
    1125.  00:466F                      	;--- Init values
    1126.  00:466F                      _CHIPcmd6_vibrato_vol:
    1127.  00:466F                      	; in:	[A] contains the paramvalue
    1128.  00:466F                      	; 
    1129.  00:466F                      	; ! do not change	[BC] this is the data pointer
    1130.  00:466F                      	;--------------------------------------------------
    1131.  00:466F                      _CHIPcmd7_vol_slide:
    1132.  00:466F                      	; in:	[A] contains the paramvalue
    1133.  00:466F                      	; 
    1134.  00:466F                      	; ! do not change	[BC] this is the data pointer
    1135.  00:466F                      	;--------------------------------------------------
    1136.  00:466F                      	; slide the	volume up or down	1 step.
    1137.  00:466F                      	; The	x or y param  set	the delay*2	(x=up,y=down)
    1138.  00:466F                      	; With A00 the previous	value	is used.
    1139.  00:466F                      	
    1140.  00:466F  DD 77 0C            	ld	(ix+TRACK_cmd_A),a
    1141.  00:4672  CB DA               	set	B_TRGCMD,d
    1142.  00:4674  DD 36 0F 01         	ld	(ix+TRACK_Timer),1
    1143.  00:4678  DD 36 12 01         	ld	(ix+TRACK_Retrig),1
    1144.  00:467C  C3 EC 44            	jp	_rdc
    1145.  00:467F                      
    1146.  00:467F                      
    1147.  00:467F                      
    1148.  00:467F                      _CHIPcmd8_macro_offset:
    1149.  00:467F                      	; in:	[A] contains the paramvalue
    1150.  00:467F                      	; 
    1151.  00:467F                      	; ! do not change	[BC] this is the data pointer
    1152.  00:467F                      	;--------------------------------------------------
    1153.  00:467F                      	; This command, when used together with a	note,	
    1154.  00:467F                      	; will start playing the sample at the position	xx 
    1155.  00:467F                      	; (instead of position 0). If	xx is	00 (900), the 
    1156.  00:467F                      	; previous value will be used.
    1157.  00:467F                      
    1158.  00:467F                      	;--- Init values
    1159.  00:467F                      	; NOT SUPPORTED ANYMORE
    1160.  00:467F  C3 EC 44            	jp	_rdc
    1161.  00:4682                      
    1162.  00:4682                      
    1163.  00:4682                      
    1164.  00:4682                      
    1165.  00:4682                      _CHIPcmd9_env_shape:
    1166.  00:4682  CB D2               	set	B_TRGENV,d
    1167.  00:4684  32 B0 C1            	ld	(AY_regEnvShape),a
    1168.  00:4687  DD 36 12 01         	ld	(ix+TRACK_Retrig),1
    1169.  00:468B  C3 EC 44            	jp	_rdc
    1170.  00:468E                      
    1171.  00:468E                      
    1172.  00:468E                      	; in:	[A] contains the paramvalue
    1173.  00:468E                      	; 
    1174.  00:468E                      	; ! do not change	[BC] this is the data pointer
    1175.  00:468E                      	;--------------------------------------------------
    1176.  00:468E                      	; This command set the envelope frequency using a
    1177.  00:468E                      	; multiplier value (00-ff)
    1178.  00:468E                      _CHIPcmdA_env_mul:
    1179.  00:468E  57                  	ld	d,a
    1180.  00:468F  AF                  	xor	a
    1181.  00:4690  CB 3A               	srl	d
    1182.  00:4692  1F                  	rra	
    1183.  00:4693  CB 3A               	srl	d
    1184.  00:4695  1F                  	rra		
    1185.  00:4696  CB 3A               	srl	d
    1186.  00:4698  1F                  	rra	
    1187.  00:4699  32 AE C1            	ld	(AY_regEnvL),a
    1188.  00:469C  7A                  	ld	a,d
    1189.  00:469D  32 AF C1            	ld	(AY_regEnvH),a
    1190.  00:46A0                      	
    1191.  00:46A0  C3 EC 44            	jp	_rdc	
    1192.  00:46A3                      
    1193.  00:46A3                      
    1194.  00:46A3                      
    1195.  00:46A3                      _CHIPcmdB_wave_res:
    1196.  00:46A3  CB F2               	set	B_TRGWAV,d
    1197.  00:46A5  CB A2               	res	B_ACTMOR,d
    1198.  00:46A7                      
    1199.  00:46A7  0B                  	dec 	bc
    1200.  00:46A8  C3 EC 44            	jp	_rdc
    1201.  00:46AB                      
    1202.  00:46AB                      
    1203.  00:46AB                      _CHIPcmdC_wave_duty:
    1204.  00:46AB                      _CHIPcmdD_wave_cut:
    1205.  00:46AB                      _CHIPcmdE_wave_compr:
    1206.  00:46AB  DD 77 0D            	ld	(ix+TRACK_cmd_B),a
    1207.  00:46AE  CB DA               	set	B_TRGCMD,d
    1208.  00:46B0  CB A2               	res	B_ACTMOR,d
    1209.  00:46B2                      
    1210.  00:46B2  C3 EC 44            	jp	_rdc	
    1211.  00:46B5                      
    1212.  00:46B5                      
    1213.  00:46B5                      _CHIPcmdF_wave_set:
    1214.  00:46B5  DD 77 F8            	ld	(ix+TRACK_Waveform),a
    1215.  00:46B8  CB F2               	set	B_TRGWAV,d
    1216.  00:46BA  CB A2               	res	B_ACTMOR,d
    1217.  00:46BC                      
    1218.  00:46BC  C3 EC 44            	jp	_rdc	
    1219.  00:46BF                      
    1220.  00:46BF                      
    1221.  00:46BF                      _CHIPcmd10_morph_slave:
    1222.  00:46BF  CB E2               	set	B_ACTMOR,d
    1223.  00:46C1                      	
    1224.  00:46C1  0B                  	dec 	bc
    1225.  00:46C2  C3 EC 44            	jp	_rdc	
    1226.  00:46C5                      	
    1227.  00:46C5                      _CHIPcmd11_morph_start:
    1228.  00:46C5  E6 0F               	and	0x0f
    1229.  00:46C7  32 1D C0            	ld	(replay_morph_speed),a
    1230.  00:46CA                      	
    1231.  00:46CA  D9                  	exx
    1232.  00:46CB                      	;--- load the waveformbuffer
    1233.  00:46CB  DD 7E F8            	ld	a,(ix+TRACK_Waveform)
    1234.  00:46CE                      ;	add	a,a
    1235.  00:46CE                      ;	add	a,a
    1236.  00:46CE                      ;	add	a,a	
    1237.  00:46CE                      
    1238.  00:46CE  6F                  	ld	l,a
    1239.  00:46CF  26 00               	ld	h,0
    1240.  00:46D1  29                  	add	hl,hl
    1241.  00:46D2  29                  	add	hl,hl
    1242.  00:46D3                      		
    1243.  00:46D3  ED 5B 07 C0         	ld	de,(replay_wavebase)
    1244.  00:46D7  19                  	add	hl,de
    1245.  00:46D8                      
    1246.  00:46D8  11 1F C0            	ld	de,replay_morph_buffer
    1247.  00:46DB  3E 20               	ld	a,32
    1248.  00:46DD                      .loop:
    1249.  00:46DD  08                  	ex	af,af'	;'
    1250.  00:46DE  7E                  	ld	a,(hl)
    1251.  00:46DF  12                  	ld	(de),a		; copy value to both wave and delta pos
    1252.  00:46E0  13                  	inc	de
    1253.  00:46E1  12                  	ld	(de),a
    1254.  00:46E2  23                  	inc	hl
    1255.  00:46E3  13                  	inc	de
    1256.  00:46E4  08                  	ex	af,af'	;'
    1257.  00:46E5  3D                  	dec	a
    1258.  00:46E6  C2 DD 46            	jp	nz,.loop
    1259.  00:46E9  D9                  	exx
    1260.  00:46EA                      	
    1261.  00:46EA  0A                  	ld	a,(bc)
    1262.  00:46EB                      
    1263.  00:46EB                      _CHIPcmd12_morph_cont:
    1264.  00:46EB                      	;---- init new morph
    1265.  00:46EB  E6 F0               	and	0xf0	
    1266.  00:46ED  32 5F C0            	ld	(replay_morph_waveform),a	; store dest form offset
    1267.  00:46F0                      	
    1268.  00:46F0  AF                  	xor	a
    1269.  00:46F1  32 1E C0            	ld	(replay_morph_counter),a
    1270.  00:46F4  3C                  	inc	a
    1271.  00:46F5  32 1C C0            	ld	(replay_morph_timer),a
    1272.  00:46F8                      
    1273.  00:46F8                      	;--- calculate the delta's	
    1274.  00:46F8  3E FF               	ld	a,255				; 255 triggers calc init
    1275.  00:46FA  32 1B C0            	ld	(replay_morph_active),a	
    1276.  00:46FD                      
    1277.  00:46FD  CB E2               	set	B_ACTMOR,d
    1278.  00:46FF  C3 EC 44            	jp	_rdc		
    1279.  00:4702                      	
    1280.  00:4702                      
    1281.  00:4702                      _CHIPcmd13_short_arp:
    1282.  00:4702  DD 77 0E            	ld	(ix+TRACK_cmd_E),a		; store the halve not to add
    1283.  00:4705  DD 36 0F 00         	ld	(ix+TRACK_Timer),0
    1284.  00:4709                      
    1285.  00:4709  CB DA               	set	B_TRGCMD,d		; command active
    1286.  00:470B  C3 EC 44            	jp	_rdc	
    1287.  00:470E                      	
    1288.  00:470E                      	
    1289.  00:470E                      _CHIPcmd14_fine_up:
    1290.  00:470E                      _CHIPcmd15_fine_down:
    1291.  00:470E  DD 77 0E            	ld	(ix+TRACK_cmd_E),a
    1292.  00:4711  DD 36 0F 02         	ld	(ix+TRACK_Timer),2
    1293.  00:4715  CB DA               	set	B_TRGCMD,d		; command active
    1294.  00:4717                      
    1295.  00:4717  C3 EC 44            	jp	_rdc	
    1296.  00:471A                      
    1297.  00:471A                      
    1298.  00:471A                      _CHIPcmd16_vib_ctrl:
    1299.  00:471A  21 A6 4F            	ld	hl,TRACK_Vibrato_sine
    1300.  00:471D  FE 01               	cp	1
    1301.  00:471F  DA 37 47            	jp	c,_cmd16_sine
    1302.  00:4722  CA 2E 47            	jp	z,_cmd16_tri
    1303.  00:4725                      _cmd16_pulse:
    1304.  00:4725  21 E6 4F            	ld	hl,TRACK_Vibrato_pulse
    1305.  00:4728  22 17 C0            	ld	(replay_vib_table),hl
    1306.  00:472B  C3 EC 44            	jp	_rdc
    1307.  00:472E                      _cmd16_tri:
    1308.  00:472E  21 C6 4F            	ld	hl,TRACK_Vibrato_triangle
    1309.  00:4731  22 17 C0            	ld	(replay_vib_table),hl
    1310.  00:4734  C3 EC 44            	jp	_rdc	
    1311.  00:4737                      
    1312.  00:4737                      _cmd16_sine:
    1313.  00:4737  21 A6 4F            	ld	hl,TRACK_Vibrato_sine
    1314.  00:473A  22 17 C0            	ld	(replay_vib_table),hl
    1315.  00:473D  C3 EC 44            	jp	_rdc
    1316.  00:4740                      
    1317.  00:4740                      
    1318.  00:4740                      
    1319.  00:4740                      _CHIPcmd17_track_detune:
    1320.  00:4740                      	; This command sets the	detune of the track.
    1321.  00:4740  5F                  	ld	e,a
    1322.  00:4741  E6 07               	and	0x07		; low	4 bits is value
    1323.  00:4743  CB 5B               	bit	3,e		; Center around 8
    1324.  00:4745  CA 55 47            	jp	z,.pos
    1325.  00:4748  3C                  	inc	a
    1326.  00:4749  ED 44               	neg			; make correct value
    1327.  00:474B  DD 77 04            	ld	(ix+TRACK_cmd_detune),a
    1328.  00:474E  DD 36 05 FF         	ld	(ix+TRACK_cmd_detune+1),0xff
    1329.  00:4752                      
    1330.  00:4752  C3 EC 44            	jp	_rdc	
    1331.  00:4755                      
    1332.  00:4755                      .pos:
    1333.  00:4755  DD 77 04            	ld	(ix+TRACK_cmd_detune),a
    1334.  00:4758  DD 36 05 00         	ld	(ix+TRACK_cmd_detune+1),0x00	
    1335.  00:475C                      
    1336.  00:475C  C3 EC 44            	jp	_rdc	
    1337.  00:475F                      
    1338.  00:475F                      
    1339.  00:475F                      ; This command sets the	detune of the track.	
    1340.  00:475F                      _CHIPcmd18_transpose:
    1341.  00:475F  5F                  	ld	e,a
    1342.  00:4760  87                  	add	a
    1343.  00:4761  21 E6 4E            	ld	hl,TRACK_ToneTable		;(replay_Tonetable)
    1344.  00:4764  E6 0F               	and	15		; low	4 bits is value
    1345.  00:4766  CB 5B               	bit	3,e		; Center around 8
    1346.  00:4768  CA 79 47            	jp	z,.pos
    1347.  00:476B                      
    1348.  00:476B                      	;neg	
    1349.  00:476B  ED 44               	neg	
    1350.  00:476D  85                  	add	a,l
    1351.  00:476E  6F                  	ld	l,a
    1352.  00:476F  D2 73 47            	jp	nc,.skip1
    1353.  00:4772  25                  	dec	h
    1354.  00:4773                      .skip1:
    1355.  00:4773  22 19 C0            	ld	(replay_Tonetable),hl
    1356.  00:4776  C3 EC 44            	jp	_rdc
    1357.  00:4779                      ; pos
    1358.  00:4779                      .pos:	
    1359.  00:4779  85                  	add	a,l
    1360.  00:477A  6F                  	ld	l,a
    1361.  00:477B  D2 7F 47            	jp	nc,.skip2
    1362.  00:477E  24                  	inc	h
    1363.  00:477F                      .skip2:
    1364.  00:477F  22 19 C0            	ld	(replay_Tonetable),hl
    1365.  00:4782  C3 EC 44            	jp	_rdc
    1366.  00:4785                      
    1367.  00:4785                      _CHIPcmdXX_note_cut:
    1368.  00:4785  CB DA               	set	B_TRGCMD,d
    1369.  00:4787  3C                  	inc	a
    1370.  00:4788  DD 77 0F            	ld	(ix+TRACK_Timer),a		; set	the timer to param y
    1371.  00:478B  C3 EC 44            	jp 	_rdc
    1372.  00:478E                      
    1373.  00:478E                      
    1374.  00:478E                      _CHIPcmd19_note_delay:
    1375.  00:478E  CB 42               	bit	B_TRGNOT,d		; is there a note	in this eventstep?
    1376.  00:4790  CA EC 44            	jp	z,_rdc
    1377.  00:4793                      
    1378.  00:4793  CB DA               	set	B_TRGCMD,d					; command active
    1379.  00:4795  3C                  	inc	a
    1380.  00:4796  DD 77 0F            	ld	(ix+TRACK_Timer),a			; set	the timer to param y
    1381.  00:4799  DD 7E F6            	ld	a,(ix+TRACK_Note)
    1382.  00:479C  DD 77 0E            	ld	(ix+TRACK_cmd_E),a			; store the	new note
    1383.  00:479F  3A 14 C0            	ld	a,(replay_previous_note)
    1384.  00:47A2  DD 77 F6            	ld	(ix+TRACK_Note),a				; restore the old	note
    1385.  00:47A5  DD CB F9 86         	res	B_TRGNOT,(ix+TRACK_Flags)		; reset any	triggernote
    1386.  00:47A9                      
    1387.  00:47A9  C3 EC 44            	jp	_rdc	
    1388.  00:47AC                      
    1389.  00:47AC                      
    1390.  00:47AC                      
    1391.  00:47AC                      _CHIPcmd1A_trigger:
    1392.  00:47AC  32 02 C0            	ld	(replay_trigger),a
    1393.  00:47AF  C3 EC 44            	jp	_rdc		
    1394.  00:47B2                      
    1395.  00:47B2                      
    1396.  00:47B2                      _CHIPcmd1B_speed:
    1397.  00:47B2  32 0D C0            	ld	(replay_speed),a
    1398.  00:47B5                      	;--- Reset Timer == 0
    1399.  00:47B5  CB 3F               	srl	a				; divide speed with 2
    1400.  00:47B7  5F                  	ld	e,a
    1401.  00:47B8  3E 00               	ld	a,0				
    1402.  00:47BA  8F                  	adc	a				; store carry of shift as subtimer
    1403.  00:47BB  32 0E C0            	ld	(replay_speed_subtimer),a
    1404.  00:47BE  83                  	add	a,e
    1405.  00:47BF  32 0F C0            	ld	(replay_speed_timer),a
    1406.  00:47C2                      
    1407.  00:47C2  C3 EC 44            	jp	_rdc	
    1408.  00:47C5                      	
    1409.  00:47C5                      _CHIPcmd1C_notelink:
    1410.  00:47C5  CB 82               	res	B_TRGNOT,d
    1411.  00:47C7  0B                  	dec 	bc
    1412.  00:47C8  C3 EC 44            	jp	_rdc	
    1413.  00:47CB                      _CHIPcmd1C_call:
    1414.  00:47CB                      _CHIPcmd1D_ret:
    1415.  00:47CB                      	;< not implemented yet>
    1416.  00:47CB  0B                  	dec 	bc
    1417.  00:47CC  C3 EC 44            	jp	_rdc	
    1418.  00:47CF                      
    1419.  00:47CF                      
    1420.  00:47CF                      
    1421.  00:47CF                      
    1422.  00:47CF                      _CHIPcmd0_RE_arpeggio:
    1423.  00:47CF  DD 36 0F 00         	ld	(ix+TRACK_Timer),0
    1424.  00:47D3                      	
    1425.  00:47D3                      _CHIPcmd1_RE_port_up:	
    1426.  00:47D3                      _CHIPcmd2_RE_port_down:
    1427.  00:47D3                      _CHIPcmd4_RE_vibrato:
    1428.  00:47D3  CB DA               	set	B_TRGCMD,d
    1429.  00:47D5  DD 77 12            	ld	(ix+TRACK_Retrig),a
    1430.  00:47D8  C3 EC 44            	jp	_rdc		
    1431.  00:47DB                      	
    1432.  00:47DB                      _CHIPcmd5_RE_vibrato_port_tone:
    1433.  00:47DB                      _CHIPcmd6_RE_vibrato_vol:
    1434.  00:47DB                      _CHIPcmd7_RE_vol_slide:
    1435.  00:47DB  CB DA               	set	B_TRGCMD,d
    1436.  00:47DD  DD 36 0F 01         	ld	(ix+TRACK_Timer),1
    1437.  00:47E1  DD 77 12            	ld	(ix+TRACK_Retrig),a
    1438.  00:47E4  C3 EC 44            	jp	_rdc
    1439.  00:47E7                      		
    1440.  00:47E7                      _CHIPcmd8_RE_macro_offset:	
    1441.  00:47E7  CB DA               	set	B_TRGCMD,d
    1442.  00:47E9  DD 36 0F 02         	ld	(ix+TRACK_Timer),2
    1443.  00:47ED  DD 77 12            	ld	(ix+TRACK_Retrig),a
    1444.  00:47F0  C3 EC 44            	jp	_rdc			
    1445.  00:47F3                      
    1446.  00:47F3                      _CHIPcmd9_RE_env_shape:
    1447.  00:47F3  CB D2               	set	B_TRGENV,d
    1448.  00:47F5  DD 77 12            	ld	(ix+TRACK_Retrig),a
    1449.  00:47F8  C3 EC 44            	jp	_rdc	
    1450.  00:47FB                      
    1451.  00:47FB                      
    1452.  00:47FB                      
    1453.  00:47FB                      ;===========================================================
    1454.  00:47FB                      ; ---replay_route
    1455.  00:47FB                      ; Output the data	to the CHIP	registers
    1456.  00:47FB                      ; 
    1457.  00:47FB                      ; in HL is the current tone freq
    1458.  00:47FB                      ; in D is TRACK_FLAGS  
    1459.  00:47FB                      ;===========================================================
    1460.  00:47FB                      replay_process_chan_AY:
    1461.  00:47FB                      
    1462.  00:47FB                      	;-- set the	mixer	right
    1463.  00:47FB  21 40 C2            	ld	hl,SCC_regMIXER   
    1464.  00:47FE  CB 3E               	srl	(hl)
    1465.  00:4800                      
    1466.  00:4800                      	;===== 
    1467.  00:4800                      	; Speed equalization check
    1468.  00:4800                      	;=====
    1469.  00:4800  3A 62 C0            	ld	a,(equalization_flag)			; check for speed equalization
    1470.  00:4803  A7                  	and	a
    1471.  00:4804  C2 47 48            	jp	nz,_pcAY_noNoteTrigger			; Only process instruments
    1472.  00:4807                      	
    1473.  00:4807                      	
    1474.  00:4807                      	;=====
    1475.  00:4807                      	; COMMAND
    1476.  00:4807                      	;=====
    1477.  00:4807  CB 5A               	bit	B_TRGCMD,d	;(ix+TRACK_Flags)
    1478.  00:4809  CA 1E 48            	jp	z,_pcAY_noCommand
    1479.  00:480C                      	
    1480.  00:480C  21 3A 49            	ld	hl,_pcAY_cmdlist-26
    1481.  00:480F  DD 7E F0            	ld	a,(ix+TRACK_Command)
    1482.  00:4812  87                  	add	a
    1483.  00:4813  85                  	add	a,l
    1484.  00:4814  6F                  	ld	l,a
    1485.  00:4815  D2 19 48            	jp	nc,.skip
    1486.  00:4818  24                  	inc	h
    1487.  00:4819                      .skip:
    1488.  00:4819  7E                  	ld	a,(hl)
    1489.  00:481A  23                  	inc	hl
    1490.  00:481B  66                  	ld	h,(hl)
    1491.  00:481C  6F                  	ld	l,a	
    1492.  00:481D  E9                  	jp	(hl)
    1493.  00:481E                      	
    1494.  00:481E                      _pcAY_noCommand:	
    1495.  00:481E                      _pcAY_commandEND:
    1496.  00:481E                      
    1497.  00:481E                      	;=====
    1498.  00:481E                      	; NOTE
    1499.  00:481E                      	;=====
    1500.  00:481E                      	;--- Check if we need to trigger a new note
    1501.  00:481E  CB 42               	bit	B_TRGNOT,d	;(ix+TRACK_Flags)
    1502.  00:4820  CA 47 48            	jp	z,_pcAY_noNoteTrigger
    1503.  00:4823                      	
    1504.  00:4823                      
    1505.  00:4823                      _pcAY_triggerNote:	
    1506.  00:4823                      	;--- get new Note
    1507.  00:4823  CB 82               	res	B_TRGNOT,d		;(ix+TRACK_Flags)		; reset trigger note flag
    1508.  00:4825  CB CA               	set	B_ACTNOT,d		;(ix+TRACK_Flags)		; set	note active	flag
    1509.  00:4827                      
    1510.  00:4827  DD 6E F3            	ld	l,(ix+TRACK_MacroStart)
    1511.  00:482A  DD 66 F4            	ld	h,(ix+TRACK_MacroStart+1)
    1512.  00:482D                      	;--- Store the macro start	
    1513.  00:482D  DD 75 F1            	ld	(ix+TRACK_MacroPointer),l
    1514.  00:4830  DD 74 F2            	ld	(ix+TRACK_MacroPointer+1),h	
    1515.  00:4833                      
    1516.  00:4833  21 00 00            	ld	hl,0
    1517.  00:4836  ED 73 00 C0         	ld	(_SP_Storage),sp
    1518.  00:483A  DD F9               	ld	sp,ix
    1519.  00:483C  F1                  	pop	af
    1520.  00:483D  F1                  	pop	af
    1521.  00:483E  E5                  	push	hl
    1522.  00:483F  E5                  	push	hl		
    1523.  00:4840  E5                  	push	hl
    1524.  00:4841  E5                  	push	hl
    1525.  00:4842  E5                  	push	hl
    1526.  00:4843  ED 7B 00 C0         	ld	sp,(_SP_Storage)
    1527.  00:4847                      
    1528.  00:4847                      ;	ld	(ix+TRACK_ToneAdd),0
    1529.  00:4847                      ;	ld	(ix+TRACK_ToneAdd+1),0
    1530.  00:4847                      ;	ld	(ix+TRACK_VolumeAdd),0	
    1531.  00:4847                      ;	ld	(ix+TRACK_cmd_ToneAdd),0
    1532.  00:4847                      ;	ld	(ix+TRACK_cmd_ToneAdd+1),0
    1533.  00:4847                      ;	ld	(ix+TRACK_cmd_VolumeAdd),0
    1534.  00:4847                      ;	ld	(ix+TRACK_Noise),0
    1535.  00:4847                      ;	ld	(ix+TRACK_cmd_ToneSlideAdd),0
    1536.  00:4847                      ;	ld	(ix+TRACK_cmd_ToneSlideAdd+1),0
    1537.  00:4847                      
    1538.  00:4847                      _pcAY_noNoteTrigger:
    1539.  00:4847                      	;Get note freq
    1540.  00:4847  DD 7E F6            	ld	a,(ix+TRACK_Note)
    1541.  00:484A  DD 86 0B            	add	a,(ix+TRACK_cmd_NoteAdd)
    1542.  00:484D  87                  	add	a
    1543.  00:484E  08                  	ex	af,af'			;'store the	note offset
    1544.  00:484F  DD 36 0B 00         	ld	(ix+TRACK_cmd_NoteAdd),0	
    1545.  00:4853                      	
    1546.  00:4853                      
    1547.  00:4853                      	;==============
    1548.  00:4853                      	; Macro instrument
    1549.  00:4853                      	;==============
    1550.  00:4853  CB 4A               	bit	B_ACTNOT,d			;(ix+TRACK_Flags)
    1551.  00:4855  CA 4F 49            	jp	z,_pcAY_noNoteActive
    1552.  00:4858                      	
    1553.  00:4858                      	;--- Get the macro len and loop
    1554.  00:4858  DD 6E F1            	ld	l,(ix+TRACK_MacroPointer)
    1555.  00:485B  DD 66 F2            	ld	h,(ix+TRACK_MacroPointer+1)
    1556.  00:485E                      
    1557.  00:485E  5E                  	ld	e,(hl)				; info byte
    1558.  00:485F  23                  	inc	hl
    1559.  00:4860  CB 43               	bit	0,e					; Volume change
    1560.  00:4862  C2 6B 48            	jp	nz,_vol_change
    1561.  00:4865  DD 7E FD            	ld	a,(ix+TRACK_VolumeAdd)
    1562.  00:4868  C3 95 48            	jp	_noEnv
    1563.  00:486B                      	
    1564.  00:486B                      	;--- Volume change
    1565.  00:486B                      _vol_change:
    1566.  00:486B  7E                  	ld	a,(hl)
    1567.  00:486C  23                  	inc	hl
    1568.  00:486D                      	
    1569.  00:486D  CB 4B               	bit	1,e
    1570.  00:486F  CA 85 48            	jp	z,_vol_base
    1571.  00:4872                      _vol_rel:
    1572.  00:4872  DD 86 FD            	add	 (ix+TRACK_VolumeAdd)
    1573.  00:4875  FE 10               	cp	16
    1574.  00:4877  DA 85 48            	jp	c,_vol_base
    1575.  00:487A  FE 80               	cp	128
    1576.  00:487C  D2 84 48            	jp	nc,.skip
    1577.  00:487F  3E 0F               	ld	a,$0f
    1578.  00:4881  C3 85 48            	jp	_vol_base
    1579.  00:4884                      .skip:	
    1580.  00:4884  AF                  	xor	a
    1581.  00:4885                      	
    1582.  00:4885                      _vol_base:
    1583.  00:4885  DD 77 FD            	ld	(ix+TRACK_VolumeAdd),a
    1584.  00:4888                      
    1585.  00:4888                      	;---- envelope check
    1586.  00:4888                      	; is done here to be able to continue
    1587.  00:4888                      	; macro volume values.
    1588.  00:4888  CB 52               	bit	B_TRGENV,d		;'(IX+TRACK_Flags)
    1589.  00:488A  CA 95 48            	jp	z,_noEnv		; if not set then normal volume calculation
    1590.  00:488D  3E 10               	ld	a,16			; set volume to 16 == envelope
    1591.  00:488F  32 3F C2            	ld	(SCC_regVOLE),a
    1592.  00:4892  C3 CF 48            	jp	_noVolume	
    1593.  00:4895                      	
    1594.  00:4895                      _noEnv:
    1595.  00:4895  DD B6 F7            	or	(ix+TRACK_Volume)
    1596.  00:4898  4F                  	ld	c,a			; store volume add
    1597.  00:4899                      
    1598.  00:4899  DD 7E FF            	ld 	a,(ix+TRACK_cmd_VolumeAdd)
    1599.  00:489C  17                  	rla				; shift to detect shift
    1600.  00:489D  DA AA 48            	jp 	c,.sub_Vadd		
    1601.  00:48A0                      .add_Vadd:  
    1602.  00:48A0  81                  	add	a,c
    1603.  00:48A1  D2 B6 48            	jp	nc,_Vadd
    1604.  00:48A4  79                  	ld	a,c
    1605.  00:48A5  F6 F0               	or	0xf0
    1606.  00:48A7  C3 B6 48            	jp	_Vadd	
    1607.  00:48AA                      .sub_Vadd:	
    1608.  00:48AA  47                  	ld	b,a
    1609.  00:48AB  AF                  	xor	a
    1610.  00:48AC  90                  	sub 	b
    1611.  00:48AD  47                  	ld	b,a
    1612.  00:48AE  79                  	ld	a,c
    1613.  00:48AF  90                  	sub	a,b
    1614.  00:48B0  D2 B6 48            	jp 	nc,.skip2
    1615.  00:48B3  79                  	ld	a,c
    1616.  00:48B4  E6 0F                	and	0x0f
    1617.  00:48B6                      .skip2:
    1618.  00:48B6                      
    1619.  00:48B6                      	
    1620.  00:48B6                      	;-- next is _Vadd
    1621.  00:48B6                      _Vadd:
    1622.  00:48B6                      	;--- apply main volume balance
    1623.  00:48B6  ED 4B 15 C0         	ld	bc,(replay_mainvol)
    1624.  00:48BA  81                  	add	a,c
    1625.  00:48BB  4F                  	ld	c,a
    1626.  00:48BC  D2 C0 48            	jp	nc,.skip
    1627.  00:48BF  04                  	inc	b
    1628.  00:48C0                      .skip:
    1629.  00:48C0  0A                  	ld	a,(bc)	
    1630.  00:48C1                      	; Test which CHIP.
    1631.  00:48C1  CB 7A               	bit	B_PSGSCC,d		;(ix+TRACK_Flags)
    1632.  00:48C3  C2 CA 48            	jp	nz,.skip2
    1633.  00:48C6  1F                  	rra
    1634.  00:48C7  1F                  	rra
    1635.  00:48C8  1F                  	rra
    1636.  00:48C9  1F                  	rra
    1637.  00:48CA                      .skip2:
    1638.  00:48CA  E6 0F               	and	0x0f
    1639.  00:48CC  32 3F C2            	ld	(SCC_regVOLE),a
    1640.  00:48CF                      
    1641.  00:48CF                      _noVolume:
    1642.  00:48CF                      	;-------------------------------
    1643.  00:48CF                      	;
    1644.  00:48CF                      	; NOISE
    1645.  00:48CF                      	;
    1646.  00:48CF                      	;-------------------------------
    1647.  00:48CF  CB 7B               	bit 	7,e			; test if noise
    1648.  00:48D1  CA F6 48            	jp	z,_noNoise
    1649.  00:48D4                      	
    1650.  00:48D4                      	;--- prevent SCC and noise
    1651.  00:48D4  CB 7A               	bit	B_PSGSCC,d		;(ix+TRACK_Flags)
    1652.  00:48D6  C2 F6 48            	jp	nz,_noNoise
    1653.  00:48D9                      
    1654.  00:48D9                      	;--- Set the mixer for noise
    1655.  00:48D9  3A 40 C2            	ld	a,(SCC_regMIXER)
    1656.  00:48DC  F6 80               	or	128
    1657.  00:48DE  32 40 C2            	ld	(SCC_regMIXER),a
    1658.  00:48E1                      
    1659.  00:48E1  CB 6B               	bit	5,e
    1660.  00:48E3  CA F6 48            	jp	z,_noNoise
    1661.  00:48E6  7E                  	ld	a,(hl)	; get the deviation	
    1662.  00:48E7  23                  	inc	hl
    1663.  00:48E8  CB 73               	bit	6,e
    1664.  00:48EA  CA F0 48            	jp	z,.skip
    1665.  00:48ED  DD 86 FE            	add	(ix+TRACK_Noise)
    1666.  00:48F0  DD 77 FE            .skip:	ld	(ix+TRACK_Noise),a
    1667.  00:48F3  32 A9 C1            	ld	(AY_regNOISE),a
    1668.  00:48F6                      	
    1669.  00:48F6                      _noNoise:
    1670.  00:48F6                      	;-------------------------------
    1671.  00:48F6                      	;
    1672.  00:48F6                      	; TONE
    1673.  00:48F6                      	;
    1674.  00:48F6                      	;-------------------------------
    1675.  00:48F6  CB 63               	bit	4,e		; do we have tone?
    1676.  00:48F8  CA 03 49            	jp	z,_pcAY_noTone
    1677.  00:48FB                      
    1678.  00:48FB                      	;-- enable tone output
    1679.  00:48FB  3A 40 C2            	ld	a,(SCC_regMIXER)
    1680.  00:48FE  F6 10               	or	16
    1681.  00:4900  32 40 C2            	ld	(SCC_regMIXER),a
    1682.  00:4903                      _pcAY_noTone:
    1683.  00:4903  DD 46 FB            	ld	b,(ix+TRACK_ToneAdd)	; get	the current	deviation	
    1684.  00:4906  DD 4E FC            	ld	c,(ix+TRACK_ToneAdd+1)
    1685.  00:4909                      
    1686.  00:4909  CB 53               	bit	2,e
    1687.  00:490B  CA 20 49            	jp	z,_pcAY_noToneAdd
    1688.  00:490E  7E                  	ld	a,(hl)
    1689.  00:490F  23                  	inc	hl
    1690.  00:4910  81                  	add	c
    1691.  00:4911  4F                  	ld	c,a
    1692.  00:4912  DD 71 FC            	ld	(ix+TRACK_ToneAdd+1),c
    1693.  00:4915  D2 19 49            	jp	nc,.skip
    1694.  00:4918  04                  	inc	b
    1695.  00:4919                      .skip:
    1696.  00:4919  7E                  	ld	a,(hl)
    1697.  00:491A  23                  	inc	hl
    1698.  00:491B  80                  	add	b
    1699.  00:491C  47                  	ld	b,a
    1700.  00:491D  DD 70 FB            	ld	(ix+TRACK_ToneAdd),b
    1701.  00:4920                      _pcAY_noToneAdd:	
    1702.  00:4920                      	;---- check for macro end
    1703.  00:4920  CB 5B               	bit	3,e		
    1704.  00:4922  CA 29 49            	jp	z,.noend
    1705.  00:4925                      	
    1706.  00:4925  7E                  	ld	a,(hl)
    1707.  00:4926  23                  	inc	hl
    1708.  00:4927  66                  	ld	h,(hl)
    1709.  00:4928  6F                  	ld	l,a
    1710.  00:4929                      	
    1711.  00:4929                      
    1712.  00:4929                      .noend:
    1713.  00:4929  DD 75 F1            	ld	(ix+TRACK_MacroPointer),l	;--- store pointer for next time
    1714.  00:492C  DD 74 F2            	ld	(ix+TRACK_MacroPointer+1),h	
    1715.  00:492F                      
    1716.  00:492F  08                  	ex	af,af'			;';restore note offset
    1717.  00:4930  2A 19 C0            	ld	hl,(replay_Tonetable)
    1718.  00:4933  85                  	add	a,l
    1719.  00:4934  6F                  	ld	l,a
    1720.  00:4935  D2 39 49            	jp	nc,.skip
    1721.  00:4938  24                  	inc	h
    1722.  00:4939                      .skip:
    1723.  00:4939  7E                  	ld	a,(hl)	;--- Store the note tone value in hl
    1724.  00:493A  23                  	inc	hl
    1725.  00:493B  66                  	ld	h,(hl)
    1726.  00:493C  6F                  	ld	l,a
    1727.  00:493D                      		
    1728.  00:493D  09                  	add	hl,bc		;--- Store tone deviation		
    1729.  00:493E                      
    1730.  00:493E                      	; set	the detune.
    1731.  00:493E  ED 73 00 C0         	ld	(_SP_Storage),sp
    1732.  00:4942  DD F9               	ld	sp,ix
    1733.  00:4944  C1                  	pop	bc		; cmd detume
    1734.  00:4945  09                  	add	hl,bc
    1735.  00:4946  C1                  	pop	bc		; cmd toneadd
    1736.  00:4947  09                  	add	hl,bc
    1737.  00:4948  C1                  	pop	bc		; cmd tone slide add
    1738.  00:4949  09                  	add	hl,bc
    1739.  00:494A  ED 7B 00 C0         	ld	sp,(_SP_Storage)
    1740.  00:494E                      
    1741.  00:494E  C9                  	ret
    1742.  00:494F                      	
    1743.  00:494F                      	
    1744.  00:494F                      ;	ld	c,(ix+TRACK_cmd_detune)
    1745.  00:494F                      ;	ld	b,(ix+TRACK_cmd_detune+1)
    1746.  00:494F                      ;	add	hl,bc
    1747.  00:494F                      ;
    1748.  00:494F                      ;	ld	c,(ix+TRACK_cmd_ToneAdd)
    1749.  00:494F                      ;	ld	b,(ix+TRACK_cmd_ToneAdd+1)
    1750.  00:494F                      ;	add	hl,bc
    1751.  00:494F                      ;	
    1752.  00:494F                      ;	ld	c,(ix+TRACK_cmd_ToneSlideAdd)
    1753.  00:494F                      ;	ld	b,(ix+TRACK_cmd_ToneSlideAdd+1)
    1754.  00:494F                      ;	
    1755.  00:494F                      ;	add	hl,bc
    1756.  00:494F                      
    1757.  00:494F                      	;-------------------------------
    1758.  00:494F                      	;
    1759.  00:494F                      	; END of macro?
    1760.  00:494F                      	;
    1761.  00:494F                      	;-------------------------------
    1762.  00:494F                      ;	bit	3,e		
    1763.  00:494F                      ;	ret	z
    1764.  00:494F                      	
    1765.  00:494F                      	;--- now get new pointer
    1766.  00:494F                      	
    1767.  00:494F                      ;	ld	c,(ix+TRACK_MacroStart)
    1768.  00:494F                      ;	ld	b,(ix+TRACK_MacroStart+1)
    1769.  00:494F                      ;	
    1770.  00:494F                      ;	ld	a,(ix+TRACK_MacroRestart)	
    1771.  00:494F                      ;	add	a,c
    1772.  00:494F                      ;	ld	c,a
    1773.  00:494F                      ;	jp	nc,.skip2
    1774.  00:494F                      ;	inc	b
    1775.  00:494F                      ;.skip2:		
    1776.  00:494F                      	;--- Store the macro start	
    1777.  00:494F                      ;	ld	(ix+TRACK_MacroPointer),c
    1778.  00:494F                      ;	ld	(ix+TRACK_MacroPointer+1),b		
    1779.  00:494F                      
    1780.  00:494F                      ;	ret
    1781.  00:494F                      	
    1782.  00:494F                      _pcAY_noNoteActive:
    1783.  00:494F  AF                  	xor	a
    1784.  00:4950  32 3F C2            	ld	(SCC_regVOLE),a
    1785.  00:4953  C9                  	ret	
    1786.  00:4954                      
    1787.  00:4954                      ;---- This is for debugging only	
    1788.  00:4954                      ;stop_debug:
    1789.  00:4954                      ;	halt
    1790.  00:4954                      ;	jp	stop_debug	
    1791.  00:4954                      ;	
    1792.  00:4954                      ;PROCESS_CMDLIST:	
    1793.  00:4954                      ;[13]	dw 	stop_debug
    1794.  00:4954                      
    1795.  00:4954                      _pcAY_cmdlist:
    1796.  00:4954  B8 4A               	dw	_pcAY_cmdc_wave_duty		;d
    1797.  00:4956  E5 4A               	dw	_pcAY_cmdd_wave_cut		;e
    1798.  00:4958  26 4B               	dw	_pcAY_cmde_wave_compr		;f
    1799.  00:495A  77 4B               	dw	_pcAY_cmd13_short_arp		;10
    1800.  00:495C  88 4B               	dw	_pcAY_cmd14_fine_up		;11
    1801.  00:495E  A2 4B               	dw	_pcAY_cmd15_fine_down		;12
    1802.  00:4960  C9 4B               	dw	_pcAY_cmd19_note_delay		;13
    1803.  00:4962  BC 4B               	dw	_pcAY_cmdXX_note_cut		;14
    1804.  00:4964                      	
    1805.  00:4964  8A 49               	dw	_pcAY_cmd0_arpeggio		;15
    1806.  00:4966  C1 49               	dw	_pcAY_cmd1_port_up		;16
    1807.  00:4968  D5 49               	dw	_pcAY_cmd2_port_down		;17
    1808.  00:496A  E9 49               	dw	_pcAY_cmd3_port_tone		;18
    1809.  00:496C  2A 4A               	dw	_pcAY_cmd4_vibrato		;19
    1810.  00:496E  74 4A               	dw	_pcAY_cmd5_vibrato_port_tone	;1a
    1811.  00:4970  7A 4A               	dw	_pcAY_cmd6_vibrato_vol		;1b
    1812.  00:4972  80 4A               	dw	_pcAY_cmd7_vol_slide		;1c
    1813.  00:4974  AD 4A               	dw	_pcAY_cmd8_macro_offset		;1d
    1814.  00:4976  00 00               	dw	0	;env shape
    1815.  00:4978                      
    1816.  00:4978  8A 49               	dw	_pcAY_cmd0_arpeggio		;1e
    1817.  00:497A  C1 49               	dw	_pcAY_cmd1_port_up		;1f
    1818.  00:497C  D5 49               	dw	_pcAY_cmd2_port_down		;20
    1819.  00:497E  E9 49               	dw	_pcAY_cmd3_port_tone		;21
    1820.  00:4980  2A 4A               	dw	_pcAY_cmd4_vibrato
    1821.  00:4982  74 4A               	dw	_pcAY_cmd5_vibrato_port_tone
    1822.  00:4984  7A 4A               	dw	_pcAY_cmd6_vibrato_vol
    1823.  00:4986  80 4A               	dw	_pcAY_cmd7_vol_slide
    1824.  00:4988  AD 4A               	dw	_pcAY_cmd8_macro_offset
    1825.  00:498A                      
    1826.  00:498A                      			
    1827.  00:498A                      _pcAY_cmd0_arpeggio:
    1828.  00:498A  DD 7E 0F            	ld	a,(ix+TRACK_Timer)
    1829.  00:498D  CB 47               	bit	0,a
    1830.  00:498F  CA A6 49            	jp	z,.step2
    1831.  00:4992                      
    1832.  00:4992                      	;--- set x
    1833.  00:4992  DD 36 0F 02         	ld	(ix+TRACK_Timer),2
    1834.  00:4996  AF                  	xor	a
    1835.  00:4997  DD 7E 05            	ld	a,(ix+TRACK_cmd_0)
    1836.  00:499A  E6 F0               	and	0xf0
    1837.  00:499C  1F                  	rra
    1838.  00:499D  1F                  	rra
    1839.  00:499E  1F                  	rra
    1840.  00:499F  1F                  	rra
    1841.  00:49A0  DD 77 0B            	ld	(ix+TRACK_cmd_NoteAdd),a		
    1842.  00:49A3  C3 1E 48            	jp	_pcAY_commandEND
    1843.  00:49A6                      
    1844.  00:49A6                      	
    1845.  00:49A6                      .step2:
    1846.  00:49A6  CB 4F               	bit	1,a
    1847.  00:49A8  CA BA 49            	jp	z,.step3
    1848.  00:49AB                      
    1849.  00:49AB                      	;--- set y
    1850.  00:49AB  DD 36 0F 00         	ld	(ix+TRACK_Timer),0
    1851.  00:49AF  DD 7E 05            	ld	a,(ix+TRACK_cmd_0)
    1852.  00:49B2  E6 0F               	and	0x0f
    1853.  00:49B4  DD 77 0B            	ld	(ix+TRACK_cmd_NoteAdd),a		
    1854.  00:49B7  C3 1E 48            	jp	_pcAY_commandEND
    1855.  00:49BA                      	
    1856.  00:49BA                      .step3:
    1857.  00:49BA                      	;--- set none
    1858.  00:49BA  DD 36 0F 01         	ld	(ix+TRACK_Timer),1
    1859.  00:49BE  C3 1E 48            	jp	_pcAY_commandEND
    1860.  00:49C1                      	
    1861.  00:49C1                      	
    1862.  00:49C1                      _pcAY_cmd1_port_up:
    1863.  00:49C1  DD 7E 06            	ld	a,(ix+TRACK_cmd_1)
    1864.  00:49C4  47                  	ld	b,a
    1865.  00:49C5  DD 7E 00            	ld	a,(ix+TRACK_cmd_ToneSlideAdd)
    1866.  00:49C8  90                  	sub	b
    1867.  00:49C9  DD 77 00            	ld	(ix+TRACK_cmd_ToneSlideAdd),a
    1868.  00:49CC  D2 1E 48            	jp	nc,_pcAY_commandEND
    1869.  00:49CF  DD 35 01            	dec	(ix+TRACK_cmd_ToneSlideAdd+1)
    1870.  00:49D2  C3 1E 48            	jp	_pcAY_commandEND
    1871.  00:49D5                      	
    1872.  00:49D5                      _pcAY_cmd2_port_down:
    1873.  00:49D5  DD 7E 07            	ld	a,(ix+TRACK_cmd_2)
    1874.  00:49D8  47                  	ld	b,a
    1875.  00:49D9  DD 7E 00            	ld	a,(ix+TRACK_cmd_ToneSlideAdd)
    1876.  00:49DC  80                  	add	b
    1877.  00:49DD  DD 77 00            	ld	(ix+TRACK_cmd_ToneSlideAdd),a
    1878.  00:49E0  D2 1E 48            	jp	nc,_pcAY_commandEND
    1879.  00:49E3  DD 34 01            	inc	(ix+TRACK_cmd_ToneSlideAdd+1)
    1880.  00:49E6  C3 1E 48            	jp	_pcAY_commandEND
    1881.  00:49E9                      
    1882.  00:49E9                      
    1883.  00:49E9                      _pcAY_cmd3_port_tone:
    1884.  00:49E9  DD 7E 08            	ld	a,(ix+TRACK_cmd_3)
    1885.  00:49EC  DD 6E 00            	ld	l,(ix+TRACK_cmd_ToneSlideAdd)
    1886.  00:49EF  DD 66 01            	ld	h,(ix+TRACK_cmd_ToneSlideAdd+1)
    1887.  00:49F2  CB 7C               	bit	7,h
    1888.  00:49F4  CA 0A 4A            	jp	z,_pcAY_cmd3_sub
    1889.  00:49F7                      _pcAY_cmd3_add:
    1890.  00:49F7                      	;pos slide
    1891.  00:49F7  85                  	add	a,l
    1892.  00:49F8  DD 77 00            	ld	(ix+TRACK_cmd_ToneSlideAdd),a
    1893.  00:49FB  D2 1E 48            	jp	nc,_pcAY_commandEND
    1894.  00:49FE  24                  	inc	h					
    1895.  00:49FF  CB 7C               	bit	7,h
    1896.  00:4A01  CA 1D 4A            	jp	z,_pcAY_cmd3_stop			; delta turned pos ?
    1897.  00:4A04  DD 74 01            	ld	(ix+TRACK_cmd_ToneSlideAdd+1),h
    1898.  00:4A07  C3 1E 48            	jp	_pcAY_commandEND
    1899.  00:4A0A                      _pcAY_cmd3_sub:
    1900.  00:4A0A                      	;negative slide	
    1901.  00:4A0A  4F                  	ld	c,a
    1902.  00:4A0B  AF                  	xor	a
    1903.  00:4A0C  47                  	ld	b,a
    1904.  00:4A0D  ED 42               	sbc	hl,bc
    1905.  00:4A0F  CB 7C               	bit	7,h
    1906.  00:4A11  C2 1D 4A            	jp	nz,_pcAY_cmd3_stop			; delta turned neg ?
    1907.  00:4A14  DD 75 00            	ld	(ix+TRACK_cmd_ToneSlideAdd),l
    1908.  00:4A17  DD 74 01            	ld	(ix+TRACK_cmd_ToneSlideAdd+1),h
    1909.  00:4A1A  C3 1E 48            	jp	_pcAY_commandEND
    1910.  00:4A1D                      _pcAY_cmd3_stop:	
    1911.  00:4A1D  CB 9A               	res	B_TRGCMD,d		;(ix+TRACK_Flags)
    1912.  00:4A1F  DD 36 00 00         	ld	(ix+TRACK_cmd_ToneSlideAdd),0
    1913.  00:4A23  DD 36 01 00         	ld	(ix+TRACK_cmd_ToneSlideAdd+1),0	
    1914.  00:4A27  C3 1E 48            	jp	_pcAY_commandEND
    1915.  00:4A2A                      
    1916.  00:4A2A                      
    1917.  00:4A2A                      	;-- vibrato	
    1918.  00:4A2A                      _pcAY_cmd4_vibrato:
    1919.  00:4A2A  2A 17 C0            	ld	hl,(replay_vib_table)
    1920.  00:4A2D                      	;--- Get next step
    1921.  00:4A2D  DD 7E 10            	ld	a,(IX+TRACK_Step)
    1922.  00:4A30  DD 86 0A            	add	(ix+TRACK_cmd_4_step)
    1923.  00:4A33  E6 3F               	and	$3F			; max	32
    1924.  00:4A35  DD 77 10            	ld	(ix+TRACK_Step),a
    1925.  00:4A38                      	
    1926.  00:4A38  CB 6F               	bit	5,a			; step 32-63 the neg	
    1927.  00:4A3A  CA 5C 4A            	jp	z,_pcAY_cmd4pos
    1928.  00:4A3D                      
    1929.  00:4A3D                      ; neg	
    1930.  00:4A3D  E6 1F               	and	$1f
    1931.  00:4A3F  85                  	add	l
    1932.  00:4A40  6F                  	ld	l,a
    1933.  00:4A41  D2 45 4A            	jp	nc,.skip
    1934.  00:4A44  24                  	inc	h
    1935.  00:4A45                      .skip:
    1936.  00:4A45  7E                  	ld	a,(hl)
    1937.  00:4A46                      	;apply depth
    1938.  00:4A46  DD 46 09            	ld	b,(ix+TRACK_cmd_4_depth)
    1939.  00:4A49                      .loop:
    1940.  00:4A49  CB 3F               	srl	a
    1941.  00:4A4B  10 FC               	djnz	.loop
    1942.  00:4A4D                      ;	and	$0f
    1943.  00:4A4D                      
    1944.  00:4A4D  ED 44               	neg
    1945.  00:4A4F  CA 6A 4A            	jp	z,_pcAY_cmd4_zero			; $ff00 gives strange result ;)	
    1946.  00:4A52  DD 77 02            	ld	(ix+TRACK_cmd_ToneAdd),a
    1947.  00:4A55  DD 36 03 FF         	ld	(ix+TRACK_cmd_ToneAdd+1),0xff
    1948.  00:4A59  C3 1E 48            	jp	_pcAY_commandEND
    1949.  00:4A5C                      
    1950.  00:4A5C                      _pcAY_cmd4pos:	
    1951.  00:4A5C                      ;	and	$1f
    1952.  00:4A5C  85                  	add	l
    1953.  00:4A5D  6F                  	ld	l,a
    1954.  00:4A5E  D2 62 4A            	jp	nc,.skip
    1955.  00:4A61  24                  	inc	h
    1956.  00:4A62                      .skip:
    1957.  00:4A62  7E                  	ld	a,(hl)
    1958.  00:4A63                      	;apply depth
    1959.  00:4A63  DD 46 09            	ld	b,(ix+TRACK_cmd_4_depth)
    1960.  00:4A66                      .loop:
    1961.  00:4A66  CB 3F               	srl	a
    1962.  00:4A68  10 FC               	djnz	.loop
    1963.  00:4A6A                      _pcAY_cmd4_zero:
    1964.  00:4A6A  DD 77 02            	ld	(ix+TRACK_cmd_ToneAdd),a
    1965.  00:4A6D  DD 36 03 00         	ld	(ix+TRACK_cmd_ToneAdd+1),0
    1966.  00:4A71  C3 1E 48            	jp	_pcAY_commandEND
    1967.  00:4A74                      		
    1968.  00:4A74                      	
    1969.  00:4A74                      
    1970.  00:4A74                      _pcAY_cmd5_vibrato_port_tone:
    1971.  00:4A74  CD 86 4A            	call	_pcAY_cmdasub
    1972.  00:4A77  C3 E9 49            	jp	_pcAY_cmd3_port_tone
    1973.  00:4A7A                      	
    1974.  00:4A7A                      _pcAY_cmd6_vibrato_vol:
    1975.  00:4A7A  CD 86 4A            	call	_pcAY_cmdasub
    1976.  00:4A7D  C3 2A 4A            	jp	_pcAY_cmd4_vibrato	
    1977.  00:4A80                      
    1978.  00:4A80                      _pcAY_cmd7_vol_slide:
    1979.  00:4A80  CD 86 4A            	call	_pcAY_cmdasub
    1980.  00:4A83  C3 1E 48            	jp	_pcAY_commandEND
    1981.  00:4A86                      
    1982.  00:4A86                      _pcAY_cmdasub:
    1983.  00:4A86  DD 35 0F            	dec	(ix+TRACK_Timer)
    1984.  00:4A89  C0                  	ret	nz
    1985.  00:4A8A                      		
    1986.  00:4A8A                      	; vol	slide
    1987.  00:4A8A  DD 7E 0C            	ld	a,(ix+TRACK_cmd_A)
    1988.  00:4A8D  4F                  	ld	c,a
    1989.  00:4A8E  E6 7F               	and	$7f
    1990.  00:4A90  DD 77 0F            	ld	(ix+TRACK_Timer),a
    1991.  00:4A93                      
    1992.  00:4A93  DD 7E FF            	ld	a,(IX+TRACK_cmd_VolumeAdd)
    1993.  00:4A96  CB 79               	bit	7,c
    1994.  00:4A98  CA A4 4A            	jp	z,_pcAY_cmda_inc
    1995.  00:4A9B                      _pcAY_cmda_dec:
    1996.  00:4A9B  FE 88               	cp	0x88
    1997.  00:4A9D  C8                  	ret	z
    1998.  00:4A9E  D6 08               	sub	8
    1999.  00:4AA0  DD 77 FF            	ld	(ix+TRACK_cmd_VolumeAdd),a
    2000.  00:4AA3  C9                  	ret
    2001.  00:4AA4                      _pcAY_cmda_inc:
    2002.  00:4AA4  FE 78               	cp	0x78
    2003.  00:4AA6  C8                  	ret	z
    2004.  00:4AA7  C6 08               	add	8	
    2005.  00:4AA9  DD 77 FF            	ld	(ix+TRACK_cmd_VolumeAdd),a
    2006.  00:4AAC  C9                  	ret
    2007.  00:4AAD                      	
    2008.  00:4AAD                      _pcAY_cmd8_macro_offset:
    2009.  00:4AAD  DD 35 0F            	dec	(ix+TRACK_Timer)
    2010.  00:4AB0  C2 1E 48            	jp	nz,_pcAY_commandEND
    2011.  00:4AB3  CB 9A               	res	B_TRGCMD,d			;(ix+TRACK_Flags)
    2012.  00:4AB5  C3 1E 48            	jp	_pcAY_commandEND
    2013.  00:4AB8                      
    2014.  00:4AB8                      
    2015.  00:4AB8                      _pcAY_cmdc_wave_duty:
    2016.  00:4AB8                      	;=================
    2017.  00:4AB8                      	; Waveform PWM / Duty Cycle
    2018.  00:4AB8                      	;=================
    2019.  00:4AB8  CB 9A               	res	B_TRGCMD,d			;(ix+TRACK_Flags)	; reset command
    2020.  00:4ABA  CB F2               	set	B_TRGWAV,d			;(ix+TRACK_Flags)	; reset normal wave update
    2021.  00:4ABC                      
    2022.  00:4ABC                      	;get the waveform	start	in [DE]
    2023.  00:4ABC  21 B1 C1            	ld	hl,_0x9800
    2024.  00:4ABF  FD 7C               	ld	a,iyh		;ixh contains chan#
    2025.  00:4AC1  0F                  	rrca			; a mac value is 4 so
    2026.  00:4AC2  0F                  	rrca			; 3 times rrca is	X32
    2027.  00:4AC3  0F                  	rrca			; max	result is 128.
    2028.  00:4AC4  85                  	add	a,l
    2029.  00:4AC5  6F                  	ld	l,a
    2030.  00:4AC6  D2 CA 4A            	jp	nc,.skip
    2031.  00:4AC9  24                  	inc	h
    2032.  00:4ACA                      .skip:
    2033.  00:4ACA  DD 46 0D            	ld	b,(ix+TRACK_cmd_B)
    2034.  00:4ACD  04                  	inc	b
    2035.  00:4ACE                      
    2036.  00:4ACE  0E 60               	ld	c,96	
    2037.  00:4AD0  3E 20               	ld	a,32
    2038.  00:4AD2  90                  	sub	b
    2039.  00:4AD3                      _wspw_loop_h:
    2040.  00:4AD3  71                  	ld	(hl),c
    2041.  00:4AD4  23                  	inc	hl
    2042.  00:4AD5  10 FC               	djnz	_wspw_loop_h
    2043.  00:4AD7                      	
    2044.  00:4AD7  A7                  	and	a
    2045.  00:4AD8  CA 1E 48            	jp	z,_pcAY_commandEND
    2046.  00:4ADB                      	
    2047.  00:4ADB  0E A0               	ld	c,-96
    2048.  00:4ADD  47                  	ld	b,a
    2049.  00:4ADE                      _wspw_loop_l:
    2050.  00:4ADE  71                  	ld	(hl),c
    2051.  00:4ADF  23                  	inc	hl
    2052.  00:4AE0  10 FC               	djnz	_wspw_loop_l
    2053.  00:4AE2                      
    2054.  00:4AE2  C3 1E 48            	jp	_pcAY_commandEND
    2055.  00:4AE5                      	
    2056.  00:4AE5                      	
    2057.  00:4AE5                      	
    2058.  00:4AE5                      _pcAY_cmdd_wave_cut:
    2059.  00:4AE5                      	;=================
    2060.  00:4AE5                      	; Waveform Cut
    2061.  00:4AE5                      	;=================
    2062.  00:4AE5                      
    2063.  00:4AE5  CB 9A               	res	B_TRGCMD,d		;(ix+TRACK_Flags)	; reset command
    2064.  00:4AE7  CB F2               	set	B_TRGWAV,d		;(ix+TRACK_Flags)	; reset normal wave update
    2065.  00:4AE9  7A                  	ld	a,d
    2066.  00:4AEA  08                  	ex	af,af'		;'
    2067.  00:4AEB                      
    2068.  00:4AEB                      	;get the waveform	start	in [DE]
    2069.  00:4AEB  11 B1 C1            	ld	de,_0x9800
    2070.  00:4AEE  FD 7C               	ld	a,iyh		;ixh contains chan#
    2071.  00:4AF0  0F                  	rrca			; a mac value is 4 so
    2072.  00:4AF1  0F                  	rrca			; 3 times rrca is	X32
    2073.  00:4AF2  0F                  	rrca			; max	result is 128.
    2074.  00:4AF3  83                  	add	a,e
    2075.  00:4AF4  5F                  	ld	e,a
    2076.  00:4AF5  D2 F9 4A            	jp	nc,.skip
    2077.  00:4AF8  14                  	inc	d
    2078.  00:4AF9                      .skip:
    2079.  00:4AF9  DD 7E F8            	ld	a,(ix+TRACK_Waveform)
    2080.  00:4AFC  3C                  	inc	a	
    2081.  00:4AFD  DD 77 F8            	ld	(ix+TRACK_Waveform),a
    2082.  00:4B00  3D                  	dec	a
    2083.  00:4B01                      
    2084.  00:4B01                      ;	add	a,a
    2085.  00:4B01                      ;	add	a,a
    2086.  00:4B01                      ;	add	a,a	
    2087.  00:4B01                      
    2088.  00:4B01  6F                  	ld	l,a
    2089.  00:4B02  26 00               	ld	h,0
    2090.  00:4B04  29                  	add	hl,hl
    2091.  00:4B05  29                  	add	hl,hl
    2092.  00:4B06                      		
    2093.  00:4B06  ED 4B 07 C0         	ld	  bc,(replay_wavebase)
    2094.  00:4B0A  09                  	add	  hl,bc
    2095.  00:4B0B                      
    2096.  00:4B0B  DD 7E 0D            	ld	a,(ix+TRACK_cmd_B)
    2097.  00:4B0E                      ;	inc	a
    2098.  00:4B0E                      ;	add	a
    2099.  00:4B0E  4F                  	ld	c,a
    2100.  00:4B0F  06 00               	ld	b,0
    2101.  00:4B11  ED B0               	ldir
    2102.  00:4B13                      	
    2103.  00:4B13  EB                  	EX	DE,HL
    2104.  00:4B14                      
    2105.  00:4B14                      	
    2106.  00:4B14  D6 20               	sub	32
    2107.  00:4B16  ED 44               	neg	
    2108.  00:4B18  47                  	ld	b,a
    2109.  00:4B19  08                  	EX	AF,AF'		;'
    2110.  00:4B1A  57                  	LD	D,A
    2111.  00:4B1B  CA 1E 48            	jp	z,_pcAY_commandEND	
    2112.  00:4B1E                      	
    2113.  00:4B1E  AF                  	xor	a
    2114.  00:4B1F                      _wsc_l:
    2115.  00:4B1F  77                  	ld	(HL),a
    2116.  00:4B20  23                  	inc	HL
    2117.  00:4B21  10 FC               	djnz	_wsc_l
    2118.  00:4B23                      	
    2119.  00:4B23  C3 1E 48            	jp	_pcAY_commandEND
    2120.  00:4B26                      		
    2121.  00:4B26                      	
    2122.  00:4B26                      	
    2123.  00:4B26                      _pcAY_cmde_wave_compr:
    2124.  00:4B26                      	;=================
    2125.  00:4B26                      	; Waveform Compress
    2126.  00:4B26                      	;=================
    2127.  00:4B26  CB 9A               	res	B_TRGCMD,d	;(ix+TRACK_Flags)	; reset command
    2128.  00:4B28  CB F2               	set	B_TRGWAV,d	;(ix+TRACK_Flags)	; reset normal wave update
    2129.  00:4B2A  7A                  	ld	a,d
    2130.  00:4B2B  08                  	ex	af,af'	;'
    2131.  00:4B2C                      	
    2132.  00:4B2C                      	;get the waveform	start	in [DE]
    2133.  00:4B2C  11 B1 C1            	ld	de,_0x9800
    2134.  00:4B2F  FD 7C               	ld	a,iyh		;ixh contains chan#
    2135.  00:4B31  0F                  	rrca			; a mac value is 4 so
    2136.  00:4B32  0F                  	rrca			; 3 times rrca is	X32
    2137.  00:4B33  0F                  	rrca			; max	result is 128.
    2138.  00:4B34  83                  	add	a,e
    2139.  00:4B35  5F                  	ld	e,a
    2140.  00:4B36  D2 3A 4B            	jp	nc,.skip
    2141.  00:4B39  14                  	inc	d
    2142.  00:4B3A                      .skip:
    2143.  00:4B3A  DD 7E F8            	ld	a,(ix+TRACK_Waveform)
    2144.  00:4B3D  3C                  	inc	a
    2145.  00:4B3E  DD 77 F8            	ld	(ix+TRACK_Waveform),a
    2146.  00:4B41  3D                  	dec	a
    2147.  00:4B42                      
    2148.  00:4B42                      ;	add	a,a
    2149.  00:4B42                      ;	add	a,a
    2150.  00:4B42                      ;	add	a,a	
    2151.  00:4B42                      
    2152.  00:4B42  6F                  	ld	l,a
    2153.  00:4B43  26 00               	ld	h,0
    2154.  00:4B45  29                  	add	hl,hl
    2155.  00:4B46  29                  	add	hl,hl
    2156.  00:4B47                      		
    2157.  00:4B47  ED 4B 07 C0         	ld	  bc,(replay_wavebase)
    2158.  00:4B4B  09                  	add	  hl,bc
    2159.  00:4B4C                      
    2160.  00:4B4C  DD 7E 0D            	ld	a,(ix+TRACK_cmd_B)
    2161.  00:4B4F  01 40 00            	ld	bc,0x0040
    2162.  00:4B52  0F                  	rrca	; x32
    2163.  00:4B53  0F                  	rrca
    2164.  00:4B54  0F                  	rrca
    2165.  00:4B55  C6 1F               	add	31
    2166.  00:4B57  FD 6F               	ld	iyl,a		; fraction
    2167.  00:4B59  AF                  	xor	a	
    2168.  00:4B5A                      _wcomp_loop:
    2169.  00:4B5A  ED A0               	ldi			
    2170.  00:4B5C  0D                  	dec	c
    2171.  00:4B5D  CA 6C 4B            	jp	z,.skip
    2172.  00:4B60  FD 85               	add	iyl
    2173.  00:4B62  D2 5A 4B            	jp	nc,_wcomp_loop
    2174.  00:4B65  23                  	inc	hl
    2175.  00:4B66  04                  	inc	b
    2176.  00:4B67  0D                  	dec	c
    2177.  00:4B68  0D                  	dec	c
    2178.  00:4B69  C2 5A 4B            	jp	nz,_wcomp_loop
    2179.  00:4B6C                      	
    2180.  00:4B6C                      	;--- remaining data
    2181.  00:4B6C                      .skip:
    2182.  00:4B6C  2B                  	dec	hl
    2183.  00:4B6D  7E                  	ld	a,(hl)
    2184.  00:4B6E                      .loop:
    2185.  00:4B6E  12                  	ld	(de),a
    2186.  00:4B6F  13                  	inc	de
    2187.  00:4B70  10 FC               	djnz	.loop
    2188.  00:4B72                      	
    2189.  00:4B72  08                  	EX	AF,AF'		;'
    2190.  00:4B73  57                  	LD	D,A	
    2191.  00:4B74  C3 1E 48            	jp	_pcAY_commandEND		
    2192.  00:4B77                      	
    2193.  00:4B77                      
    2194.  00:4B77                      _pcAY_cmd13_short_arp:
    2195.  00:4B77  DD 35 0F            	dec	(ix+TRACK_Timer)
    2196.  00:4B7A  CB 42               	bit	B_TRGNOT,d		;(ix+TRACK_Timer)
    2197.  00:4B7C  CA 1E 48            	jp	z,_pcAY_commandEND
    2198.  00:4B7F  DD 7E 0E            	ld	a,(ix+TRACK_cmd_E)
    2199.  00:4B82  DD 77 0B            	ld	(ix+TRACK_cmd_NoteAdd),a		
    2200.  00:4B85  C3 1E 48            	jp	_pcAY_commandEND
    2201.  00:4B88                      
    2202.  00:4B88                      _pcAY_cmd14_fine_up:
    2203.  00:4B88  DD 35 0F            	dec	(ix+TRACK_Timer)
    2204.  00:4B8B  C2 1E 48            	jp	nz,_pcAY_commandEND
    2205.  00:4B8E                      
    2206.  00:4B8E  CB 9A               	res	B_TRGCMD,d			;(ix+TRACK_Flags)
    2207.  00:4B90  DD 7E 00            	ld	a,(ix+TRACK_cmd_ToneSlideAdd)
    2208.  00:4B93  DD 86 0E            	add	(ix+TRACK_cmd_E)
    2209.  00:4B96  DD 77 00            	ld	(ix+TRACK_cmd_ToneSlideAdd),a
    2210.  00:4B99  D2 1E 48            	jp	nc,_pcAY_commandEND	
    2211.  00:4B9C  DD 34 01            	inc	(ix+TRACK_cmd_ToneSlideAdd+1)
    2212.  00:4B9F  C3 1E 48            	jp	_pcAY_commandEND	
    2213.  00:4BA2                      
    2214.  00:4BA2                      _pcAY_cmd15_fine_down:
    2215.  00:4BA2  DD 35 0F            	dec	(ix+TRACK_Timer)
    2216.  00:4BA5  C2 1E 48            	jp	nz,_pcAY_commandEND
    2217.  00:4BA8                      
    2218.  00:4BA8  CB 9A               	res	B_TRGCMD,d		;(ix+TRACK_Flags)
    2219.  00:4BAA  DD 7E 00            	ld	a,(ix+TRACK_cmd_ToneSlideAdd)
    2220.  00:4BAD  DD 96 0E            	sub	(ix+TRACK_cmd_E)
    2221.  00:4BB0  DD 77 00            	ld	(ix+TRACK_cmd_ToneSlideAdd),a
    2222.  00:4BB3  D2 1E 48            	jp	nc,_pcAY_commandEND	
    2223.  00:4BB6  DD 35 01            	dec	(ix+TRACK_cmd_ToneSlideAdd+1)
    2224.  00:4BB9  C3 1E 48            	jp	_pcAY_commandEND	
    2225.  00:4BBC                      
    2226.  00:4BBC                      
    2227.  00:4BBC                      _pcAY_cmdXX_note_cut:
    2228.  00:4BBC  DD 35 0F            	dec	(ix+TRACK_Timer)
    2229.  00:4BBF  C2 1E 48            	jp	nz,_pcAY_commandEND
    2230.  00:4BC2                      	
    2231.  00:4BC2                      	; stop note
    2232.  00:4BC2  CB 9A               	res	B_TRGCMD,d	; set	note bit to	0
    2233.  00:4BC4  CB 82               	res	B_TRGNOT,d
    2234.  00:4BC6  C3 1E 48            	jp	_pcAY_commandEND		
    2235.  00:4BC9                      	
    2236.  00:4BC9                      _pcAY_cmd19_note_delay:
    2237.  00:4BC9                      	; note delay
    2238.  00:4BC9  DD 35 0F            	dec	(ix+TRACK_Timer)
    2239.  00:4BCC  C2 1E 48            	jp	nz,_pcAY_commandEND	; no delay yet
    2240.  00:4BCF                      
    2241.  00:4BCF                      	; trigger note
    2242.  00:4BCF  DD 7E 0E            	ld	a,(ix+TRACK_cmd_E)		
    2243.  00:4BD2  DD 77 F6            	ld	(ix+TRACK_Note),a		; set	the note val
    2244.  00:4BD5  CB C2               	set	B_TRGNOT,d	;(ix+TRACK_Flags)		; set	trigger note flag
    2245.  00:4BD7  CB 9A               	res	B_TRGCMD,d	;(ix+TRACK_Flags)		; reset tiggger cmd flag
    2246.  00:4BD9                      	
    2247.  00:4BD9  C3 1E 48            	jp	_pcAY_commandEND	
    2248.  00:4BDC                      
    2249.  00:4BDC                      
    2250.  00:4BDC                      
    2251.  00:4BDC                      ;===========================================================
    2252.  00:4BDC                      ; ---replay_route
    2253.  00:4BDC                      ; Output the data	to the CHIP	registers
    2254.  00:4BDC                      ; 
    2255.  00:4BDC                      ; 
    2256.  00:4BDC                      ;===========================================================
    2257.  00:4BDC                      replay_route:
    2258.  00:4BDC                      ;---------------
    2259.  00:4BDC                      ; P S	G 
    2260.  00:4BDC                      ;---------------
    2261.  00:4BDC                      	;--- Push values to AY HW
    2262.  00:4BDC  06 00               	ld	b,0
    2263.  00:4BDE  0E A0               	ld	c,0xa0
    2264.  00:4BE0  21 A3 C1            	ld	hl,AY_registers
    2265.  00:4BE3                      _comp_loop:	
    2266.  00:4BE3  ED 41               	out	(c),b
    2267.  00:4BE5  7E                  	ld	a,(hl)
    2268.  00:4BE6  C6 01               	add	1
    2269.  00:4BE8  D3 A1               	out	(0xa1),a
    2270.  00:4BEA  23                  	inc	hl
    2271.  00:4BEB  7E                  	ld	a,(hl)
    2272.  00:4BEC  CE 00               	adc	a,0
    2273.  00:4BEE  04                  	inc	b
    2274.  00:4BEF  ED 41               	out	(c),b	
    2275.  00:4BF1  23                  	inc	hl
    2276.  00:4BF2  D3 A1               	out	(0xa1),a	
    2277.  00:4BF4  04                  	inc	b
    2278.  00:4BF5  3E 06               	ld	a,6
    2279.  00:4BF7  B8                  	cp	b
    2280.  00:4BF8  C2 E3 4B            	jp	nz,_comp_loop
    2281.  00:4BFB                      	
    2282.  00:4BFB  78                  	ld	a,b	
    2283.  00:4BFC                      	
    2284.  00:4BFC                      	
    2285.  00:4BFC                      _ptAY_loop:
    2286.  00:4BFC  ED 79               	out	(c),a
    2287.  00:4BFE  0C                  	inc	c
    2288.  00:4BFF  ED A3               	outi
    2289.  00:4C01  0D                  	dec	c
    2290.  00:4C02  3C                  	inc	a
    2291.  00:4C03  FE 0D               	cp	13
    2292.  00:4C05  20 F5               	jr	nz,_ptAY_loop
    2293.  00:4C07                      
    2294.  00:4C07  47                  	ld	b,a
    2295.  00:4C08  7E                  	ld	a,(hl)
    2296.  00:4C09  A7                  	and	a
    2297.  00:4C0A  CA 14 4C            	jp	z,_ptAY_noEnv
    2298.  00:4C0D  ED 41               	out	(c),b
    2299.  00:4C0F  0C                  	inc	c
    2300.  00:4C10  ED 79               	out 	(c),a
    2301.  00:4C12  36 00               	ld	(hl),0	;reset the envwrite
    2302.  00:4C14                      	
    2303.  00:4C14                      	
    2304.  00:4C14                      _ptAY_noEnv:
    2305.  00:4C14                      ;--------------
    2306.  00:4C14                      ; S C	C 
    2307.  00:4C14                      ;--------------
    2308.  00:4C14  3E 3F               	ld  a,03Fh				; enable SCC
    2309.  00:4C16  32 00 90            	ld  (0x9000),a
    2310.  00:4C19                      
    2311.  00:4C19                      	
    2312.  00:4C19                      	;--- This for the ttsfxplayer!!!
    2313.  00:4C19                      ;	ld	a,(sfx_SCC_WAVE)
    2314.  00:4C19                      ;	cp	255
    2315.  00:4C19                      ;	jp	z,.nosfx		; if a == 255 there is no waveform
    2316.  00:4C19                      ;
    2317.  00:4C19                      ;	ld	de,0x9800
    2318.  00:4C19                      ;	call	_write_SFX_wave	
    2319.  00:4C19                      ;	jp	.skip	
    2320.  00:4C19                      	
    2321.  00:4C19                      .nosfx:	
    2322.  00:4C19                      	;--- Set the waveforms
    2323.  00:4C19  21 DF C0            	ld	hl,TRACK_Chan4+17+TRACK_Flags
    2324.  00:4C1C  CB 76               	bit	B_TRGWAV,(hl)
    2325.  00:4C1E  CA 2C 4C            	jp	z,.skip
    2326.  00:4C21                      	;--- set wave form
    2327.  00:4C21  CB B6               	res	B_TRGWAV,(hl)
    2328.  00:4C23  3A DE C0            	ld	a,(TRACK_Chan4+17+TRACK_Waveform)
    2329.  00:4C26  11 00 98            	ld	de,0x9800
    2330.  00:4C29  CD 84 4C            	call	_write_SCC_wave
    2331.  00:4C2C                      .skip:
    2332.  00:4C2C  21 05 C1            	ld	hl,TRACK_Chan5+17+TRACK_Flags
    2333.  00:4C2F  CB 76               	bit	B_TRGWAV,(hl)
    2334.  00:4C31  CA 3F 4C            	jp	z,.skip2
    2335.  00:4C34                      	;--- set wave form
    2336.  00:4C34  CB B6               	res	B_TRGWAV,(hl)
    2337.  00:4C36  3A 04 C1            	ld	a,(TRACK_Chan5+17+TRACK_Waveform)
    2338.  00:4C39  11 20 98            	ld	de,0x9820
    2339.  00:4C3C  CD 84 4C            	call	_write_SCC_wave
    2340.  00:4C3F                      .skip2:
    2341.  00:4C3F  21 2B C1            	ld	hl,TRACK_Chan6+17+TRACK_Flags
    2342.  00:4C42  CB 76               	bit	B_TRGWAV,(hl)
    2343.  00:4C44  CA 52 4C            	jp	z,.skip3
    2344.  00:4C47                      	;--- set wave form
    2345.  00:4C47  CB B6               	res	B_TRGWAV,(hl)
    2346.  00:4C49  3A 2A C1            	ld	a,(TRACK_Chan6+17+TRACK_Waveform)
    2347.  00:4C4C  11 40 98            	ld	de,0x9840
    2348.  00:4C4F  CD 84 4C            	call	_write_SCC_wave
    2349.  00:4C52                      .skip3:
    2350.  00:4C52  21 51 C1            	ld	hl,TRACK_Chan7+17+TRACK_Flags
    2351.  00:4C55  CB 76               	bit	B_TRGWAV,(hl)
    2352.  00:4C57  CA 65 4C            	jp	z,.skip4
    2353.  00:4C5A                      	;--- set wave form
    2354.  00:4C5A  CB B6               	res	B_TRGWAV,(hl)
    2355.  00:4C5C  3A 50 C1            	ld	a,(TRACK_Chan7+17+TRACK_Waveform)
    2356.  00:4C5F  11 60 98            	ld	de,0x9860
    2357.  00:4C62  CD 84 4C            	call	_write_SCC_wave
    2358.  00:4C65                      .skip4:
    2359.  00:4C65                      
    2360.  00:4C65                      scc_reg_update:
    2361.  00:4C65                      
    2362.  00:4C65  3E 3F               	ld  a,03Fh				; enable SCC
    2363.  00:4C67  32 00 90            	ld  (0x9000),a
    2364.  00:4C6A                      
    2365.  00:4C6A                      	;--- Update changed SCC registers.
    2366.  00:4C6A  21 41 C2            	ld hl,oldregs
    2367.  00:4C6D  11 31 C2            	ld de,SCC_registers
    2368.  00:4C70  01 80 98            	ld bc,0x9880
    2369.  00:4C73  3E 10               	ld a,3*5+1
    2370.  00:4C75                      loop:
    2371.  00:4C75  08                  	ex af,af'	;'
    2372.  00:4C76  1A                  	ld a,(de)
    2373.  00:4C77  BE                  	cp (hl)
    2374.  00:4C78  28 02               	jr z,.skip
    2375.  00:4C7A  77                  	ld (hl),a	     ; update old	registers in ram
    2376.  00:4C7B  02                  	ld (bc),a	     ; update scc	registers
    2377.  00:4C7C                      .skip:	    
    2378.  00:4C7C  23                  	inc hl
    2379.  00:4C7D  13                  	inc de
    2380.  00:4C7E  03                  	inc bc
    2381.  00:4C7F  08                  	ex af,af'		;'
    2382.  00:4C80  3D                  	dec a
    2383.  00:4C81  20 F2               	jr nz, loop
    2384.  00:4C83  C9                  	ret
    2385.  00:4C84                      
    2386.  00:4C84                      	
    2387.  00:4C84                      	
    2388.  00:4C84                      ;==================
    2389.  00:4C84                      ; _write_SCC_wave
    2390.  00:4C84                      ;
    2391.  00:4C84                      ; Writes waveform	data.	[DE] contains location for data
    2392.  00:4C84                      ; [A]	contains waveform	number + flags for special actions
    2393.  00:4C84                      ; Data is not written to SCC but into RAM	shadow registers.
    2394.  00:4C84                      ;==================
    2395.  00:4C84                      _write_SCC_wave:
    2396.  00:4C84  CB 66               	bit	B_ACTMOR,(hl)
    2397.  00:4C86  C2 B2 4C            	jp	nz,_write_SCC_special
    2398.  00:4C89                      	
    2399.  00:4C89  CB 47               	bit	0,a
    2400.  00:4C8B  C2 9E 4C            	jp	nz,.ramwave
    2401.  00:4C8E                      ;	add	a,a
    2402.  00:4C8E                      ;	add	a,a
    2403.  00:4C8E                      ;	add	a,a
    2404.  00:4C8E                      
    2405.  00:4C8E                      .normalwave:
    2406.  00:4C8E  6F                  	ld	l,a
    2407.  00:4C8F  26 00               	ld	h,0
    2408.  00:4C91  29                  	add	hl,hl
    2409.  00:4C92  29                  	add	hl,hl
    2410.  00:4C93                      		
    2411.  00:4C93  ED 4B 07 C0         	ld	  bc,(replay_wavebase)
    2412.  00:4C97  09                  	add	  hl,bc
    2413.  00:4C98  01 20 00            	ld	  bc,32
    2414.  00:4C9B  ED B0               	ldir
    2415.  00:4C9D  C9                  	ret
    2416.  00:4C9E                      	
    2417.  00:4C9E                      	
    2418.  00:4C9E                      .ramwave:
    2419.  00:4C9E  2B                  	dec	hl		; reset the special flag in the wave form number
    2420.  00:4C9F  E6 FE               	and	$fe
    2421.  00:4CA1  77                  	ld	(hl),a
    2422.  00:4CA2                      
    2423.  00:4CA2  21 B1 C1            	ld	hl,_0x9800
    2424.  00:4CA5  7B                  	ld	a,e
    2425.  00:4CA6  85                  	add	a,l
    2426.  00:4CA7  6F                  	ld	l,a
    2427.  00:4CA8  D2 AC 4C            	jp	nc,.skip
    2428.  00:4CAB  24                  	inc	h
    2429.  00:4CAC                      .skip:
    2430.  00:4CAC  01 20 00            	ld	  bc,32
    2431.  00:4CAF  ED B0               	ldir
    2432.  00:4CB1  C9                  	ret	
    2433.  00:4CB2                      	
    2434.  00:4CB2                      	
    2435.  00:4CB2                      	
    2436.  00:4CB2                      
    2437.  00:4CB2                      
    2438.  00:4CB2                      _write_SCC_special:
    2439.  00:4CB2  21 20 C0            	ld	hl,replay_morph_buffer+1
    2440.  00:4CB5  06 20               	ld	b,32
    2441.  00:4CB7                      _wss_l:
    2442.  00:4CB7  7E                  	ld	a,(hl)
    2443.  00:4CB8  12                  	ld	(de),a
    2444.  00:4CB9  23                  	inc	hl
    2445.  00:4CBA  23                  	inc	hl
    2446.  00:4CBB  13                  	inc	de
    2447.  00:4CBC  10 F9               	djnz	_wss_l
    2448.  00:4CBE                      	 
    2449.  00:4CBE                      	
    2450.  00:4CBE  C9                  	ret
    2451.  00:4CBF                      
    2452.  00:4CBF                      	
    2453.  00:4CBF                      ;=============
    2454.  00:4CBF                      ; in [A] the morph active status	
    2455.  00:4CBF                      replay_process_morph:
    2456.  00:4CBF  21 1C C0            	ld	hl,replay_morph_timer
    2457.  00:4CC2  35                  	dec	(hl)
    2458.  00:4CC3  C0                  	ret	nz
    2459.  00:4CC4                      	
    2460.  00:4CC4                      	;---- not sure what to do with this.
    2461.  00:4CC4                      	; trigger any waveform updates
    2462.  00:4CC4  06 04               	ld	b,4
    2463.  00:4CC6  11 26 00            	ld	de,TRACK_REC_SIZE
    2464.  00:4CC9  21 DF C0            	ld	hl,TRACK_Chan4+17+TRACK_Flags
    2465.  00:4CCC                      .loop:	
    2466.  00:4CCC  CB 66               	bit 	B_ACTMOR,(hl)
    2467.  00:4CCE  CA D3 4C            	jp	z,.skip
    2468.  00:4CD1  CB F6               	set	B_TRGWAV,(hl)
    2469.  00:4CD3                      .skip:
    2470.  00:4CD3  19                  	add	hl,de
    2471.  00:4CD4  10 F6               	djnz	.loop	
    2472.  00:4CD6                      	
    2473.  00:4CD6                      	
    2474.  00:4CD6                      	;---- timer ended.
    2475.  00:4CD6  3C                  	inc	a
    2476.  00:4CD7  C2 25 4D            	jp	nz,_rpm_next_step		; if status was !=255 then skip init
    2477.  00:4CDA                      
    2478.  00:4CDA                      	;---- calculate offset
    2479.  00:4CDA  3C                  	inc	a		
    2480.  00:4CDB  32 1B C0            	ld	(replay_morph_active),a		; set status to 1
    2481.  00:4CDE                      ;	ld	(replay_morph_update),a		; after this update the waveforms of the SCC
    2482.  00:4CDE                      
    2483.  00:4CDE  3A 1D C0            	ld	a,(replay_morph_speed)
    2484.  00:4CE1  32 1C C0            	ld	(replay_morph_timer),a
    2485.  00:4CE4                      	
    2486.  00:4CE4                      
    2487.  00:4CE4                      	;--- calculate the delta's
    2488.  00:4CE4  11 1F C0            	ld	de,replay_morph_buffer
    2489.  00:4CE7  2A 07 C0            	ld	hl,(replay_wavebase)
    2490.  00:4CEA  3A 5F C0            	ld	a,(replay_morph_waveform)
    2491.  00:4CED  87                  	add	a
    2492.  00:4CEE  D2 F2 4C            	jp	nc,.skip2
    2493.  00:4CF1  24                  	inc	h
    2494.  00:4CF2                      .skip2:
    2495.  00:4CF2  85                  	add	a,l
    2496.  00:4CF3  6F                  	ld	l,a
    2497.  00:4CF4  D2 F8 4C            	jp	nc,.skip3
    2498.  00:4CF7  24                  	inc	h
    2499.  00:4CF8                      .skip3:	
    2500.  00:4CF8                      	;---- start calculating
    2501.  00:4CF8  06 20               	ld	b,32		; 32 values
    2502.  00:4CFA                      _rpm_loop:	
    2503.  00:4CFA  13                  	inc	de
    2504.  00:4CFB  1A                  	ld	a,(de)
    2505.  00:4CFC  1B                  	dec	de
    2506.  00:4CFD  C6 80               	add	a,128
    2507.  00:4CFF  4F                  	ld	c,a
    2508.  00:4D00  7E                  	ld	a,(hl)
    2509.  00:4D01  C6 80               	add	a,128
    2510.  00:4D03  B9                  	cp	c
    2511.  00:4D04  DA 15 4D            	jp	c,_rpm_smaller		; dest is smaller
    2512.  00:4D07                      
    2513.  00:4D07                      	
    2514.  00:4D07                      _rpm_larger:
    2515.  00:4D07  91                  	sub	c
    2516.  00:4D08  0F                  	rrca
    2517.  00:4D09  0F                  	rrca
    2518.  00:4D0A  0F                  	rrca
    2519.  00:4D0B  0F                  	rrca
    2520.  00:4D0C  E6 EF               	and	$ef		; reset bit 5
    2521.  00:4D0E  12                  	ld	(de),a
    2522.  00:4D0F                      	
    2523.  00:4D0F  13                  	inc	de
    2524.  00:4D10  13                  	inc	de
    2525.  00:4D11  23                  	inc	hl
    2526.  00:4D12  10 E6               	djnz	_rpm_loop
    2527.  00:4D14  C9                  	ret	
    2528.  00:4D15                      	
    2529.  00:4D15                      _rpm_smaller:
    2530.  00:4D15  91                  	sub	c
    2531.  00:4D16  ED 44               	neg	
    2532.  00:4D18  0F                  	rrca
    2533.  00:4D19  0F                  	rrca
    2534.  00:4D1A  0F                  	rrca
    2535.  00:4D1B  0F                  	rrca
    2536.  00:4D1C  F6 10               	or	$10		; set bit 5
    2537.  00:4D1E  12                  	ld	(de),a
    2538.  00:4D1F                      	
    2539.  00:4D1F  13                  	inc	de
    2540.  00:4D20  13                  	inc	de
    2541.  00:4D21  23                  	inc	hl
    2542.  00:4D22  10 D6               	djnz	_rpm_loop
    2543.  00:4D24  C9                  	ret		
    2544.  00:4D25                      	
    2545.  00:4D25                      ;============================
    2546.  00:4D25                      _rpm_next_step:
    2547.  00:4D25  3A 1D C0            	ld	a,(replay_morph_speed)
    2548.  00:4D28  32 1C C0            	ld	(replay_morph_timer),a
    2549.  00:4D2B                      
    2550.  00:4D2B                      	;-- apply the delta's
    2551.  00:4D2B  3A 1E C0            	ld	a,(replay_morph_counter)
    2552.  00:4D2E  4F                  	ld	c,a
    2553.  00:4D2F  C6 10               	add	16
    2554.  00:4D31  32 1E C0            	ld	(replay_morph_counter),a
    2555.  00:4D34  C2 3A 4D            	jp	nz,.skip
    2556.  00:4D37                      	;--- end morph
    2557.  00:4D37  32 1B C0            	ld	(replay_morph_active),a
    2558.  00:4D3A                      
    2559.  00:4D3A                      .skip:
    2560.  00:4D3A  0D                  	dec c
    2561.  00:4D3B  21 1F C0            	ld	hl,replay_morph_buffer
    2562.  00:4D3E  06 20               	ld	b,32
    2563.  00:4D40                      _rpm_ns_loop:	
    2564.  00:4D40  7E                  	ld	a,(hl)
    2565.  00:4D41  CB 67               	bit 	4,a
    2566.  00:4D43  CA 58 4D            	jp	z,_rmp_ns_add
    2567.  00:4D46                      _rmp_ns_sub:
    2568.  00:4D46                      	;--- handle corection
    2569.  00:4D46  E6 EF               	and	$ef
    2570.  00:4D48  B9                  	cp	c		; correction < counteR?
    2571.  00:4D49  DA 4D 4D            	jp	c,.skip
    2572.  00:4D4C  3C                  	inc	a		; if smaller C was set
    2573.  00:4D4D                      .skip:
    2574.  00:4D4D  E6 1F               	and	00011111b	; keep lower 5 bits
    2575.  00:4D4F  23                  	inc	hl
    2576.  00:4D50  57                  	ld	d,a
    2577.  00:4D51  7E                  	ld	a,(hl)
    2578.  00:4D52  92                  	sub	d
    2579.  00:4D53  77                  	ld	(hl),a	; load new value
    2580.  00:4D54  23                  	inc	hl
    2581.  00:4D55  10 E9               	djnz	_rpm_ns_loop
    2582.  00:4D57  C9                  	ret	
    2583.  00:4D58                      _rmp_ns_add:
    2584.  00:4D58                      	;--- handle corection
    2585.  00:4D58  B9                  	cp	c		; correction < counter?
    2586.  00:4D59  DA 5D 4D            	jp	c,.skip
    2587.  00:4D5C  3C                  	inc	a		; if smaller C was set
    2588.  00:4D5D                      .skip:
    2589.  00:4D5D  E6 1F               	and	00011111b	; keep lower 5 bits
    2590.  00:4D5F  23                  	inc	hl
    2591.  00:4D60  86                  	add	(hl)		; subtract waveform value
    2592.  00:4D61  77                  	ld	(hl),a	; load new value
    2593.  00:4D62  23                  	inc	hl
    2594.  00:4D63  10 DB               	djnz	_rpm_ns_loop
    2595.  00:4D65  C9                  	ret		
    2596.  00:4D66                      	
    2597.  00:4D66                      
    2598.  00:4D66                      
     129   00:4D66                      	include	"..\code\ttreplayDAT.asm"
       1.  00:4D66                      
       2.  00:4D66  00 (128)            	ds 8*16, 0
       3.  00:4DE6                      _VOLUME_TABLE
       4.  00:4DE6  (0100)              	incbin ".\voltable_combined.bin"	
       5.  00:4EE6                      
       6.  00:4EE6                      ;Konami values found in	Nemesis 2 replayer.
       7.  00:4EE6  (00:0D40)           C_PER		equ	$6a*32	
       8.  00:4EE6  (00:0C80)           C1_PER	equ	$64*32
       9.  00:4EE6  (00:0BC0)           D_PER		equ	$5e*32
      10.  00:4EE6  (00:0B20)           D1_PER	equ	$59*32
      11.  00:4EE6  (00:0A80)           E_PER		equ	$54*32
      12.  00:4EE6  (00:09E0)           F_PER		equ	$4f*32
      13.  00:4EE6  (00:0940)           F1_PER	equ	$4a*32
      14.  00:4EE6  (00:08C0)           G_PER		equ	$46*32
      15.  00:4EE6  (00:0840)           G1_PER	equ	$42*32
      16.  00:4EE6  (00:07E0)           A_PER		equ	$3f*32
      17.  00:4EE6  (00:0760)           A1_PER	equ	$3b*32
      18.  00:4EE6  (00:0700)           B_PER		equ	$38*32
      19.  00:4EE6                      
      20.  00:4EE6                      TRACK_ToneTable:	
      21.  00:4EE6                      	dw C_PER/1	,C1_PER/1  ,D_PER/1  ,D1_PER/1  ,E_PER/1	,F_PER/1  ,F1_PER/1  ,G_PER/1	 ,G1_PER/1	,A_PER/1  ,A1_PER/1  ,B_PER/1
      21.  00:4EE6  40 0D 80 0C C0 0B 20 0B 80 0A E0 09 40 09 C0 08 
      21.  00:4EF6  40 08 E0 07 60 07 00 07 
      22.  00:4EFE                      	dw C_PER/2	,C1_PER/2  ,D_PER/2  ,D1_PER/2  ,E_PER/2	,F_PER/2  ,F1_PER/2  ,G_PER/2	 ,G1_PER/2	,A_PER/2  ,A1_PER/2  ,B_PER/2
      22.  00:4EFE  A0 06 40 06 E0 05 90 05 40 05 F0 04 A0 04 60 04 
      22.  00:4F0E  20 04 F0 03 B0 03 80 03 
      23.  00:4F16                      	dw C_PER/4	,C1_PER/4  ,D_PER/4  ,D1_PER/4  ,E_PER/4	,F_PER/4  ,F1_PER/4  ,G_PER/4	 ,G1_PER/4	,A_PER/4  ,A1_PER/4  ,B_PER/4
      23.  00:4F16  50 03 20 03 F0 02 C8 02 A0 02 78 02 50 02 30 02 
      23.  00:4F26  10 02 F8 01 D8 01 C0 01 
      24.  00:4F2E                      	dw C_PER/8	,C1_PER/8  ,D_PER/8  ,D1_PER/8  ,E_PER/8	,F_PER/8  ,F1_PER/8  ,G_PER/8	 ,G1_PER/8	,A_PER/8  ,A1_PER/8  ,B_PER/8
      24.  00:4F2E  A8 01 90 01 78 01 64 01 50 01 3C 01 28 01 18 01 
      24.  00:4F3E  08 01 FC 00 EC 00 E0 00 
      25.  00:4F46                      	dw C_PER/16	,C1_PER/16 ,D_PER/16 ,D1_PER/16 ,E_PER/16	,F_PER/16 ,F1_PER/16 ,G_PER/16 ,G1_PER/16	,A_PER/16 ,A1_PER/16 ,B_PER/16
      25.  00:4F46  D4 00 C8 00 BC 00 B2 00 A8 00 9E 00 94 00 8C 00 
      25.  00:4F56  84 00 7E 00 76 00 70 00 
      26.  00:4F5E                      	dw C_PER/32	,C1_PER/32 ,D_PER/32 ,D1_PER/32 ,E_PER/32	,F_PER/32 ,F1_PER/32 ,G_PER/32 ,G1_PER/32	,A_PER/32 ,A1_PER/32 ,B_PER/32
      26.  00:4F5E  6A 00 64 00 5E 00 59 00 54 00 4F 00 4A 00 46 00 
      26.  00:4F6E  42 00 3F 00 3B 00 38 00 
      27.  00:4F76                      	dw C_PER/64	,C1_PER/64 ,D_PER/64 ,D1_PER/64 ,E_PER/64	,F_PER/64 ,F1_PER/64 ,G_PER/64 ,G1_PER/64	,A_PER/64 ,A1_PER/64 ,B_PER/64
      27.  00:4F76  35 00 32 00 2F 00 2C 00 2A 00 27 00 25 00 23 00 
      27.  00:4F86  21 00 1F 00 1D 00 1C 00 
      28.  00:4F8E                      	dw C_PER/128,C1_PER/128,D_PER/128,D1_PER/128,E_PER/128,F_PER/128,F1_PER/128,G_PER/128,G1_PER/128,A_PER/128,A1_PER/128,B_PER/128
      28.  00:4F8E  1A 00 19 00 17 00 16 00 15 00 13 00 12 00 11 00 
      28.  00:4F9E  10 00 0F 00 0E 00 0E 00 
      29.  00:4FA6                      
      30.  00:4FA6                      
      31.  00:4FA6                      TRACK_Vibrato_sine:
      32.  00:4FA6                      	db	 0*2,	2*2, 4*2, 7*2,11*2,16*2,22*2,28*2,35*2,43*2,51*2,59*2,68*2,77*2,87*2,96*2
      32.  00:4FA6  00 04 08 0E 16 20 2C 38 46 56 66 76 88 9A AE C0 
      33.  00:4FB6                      	db	96*2,86*2,77*2,68*2,59*2,51*2,43*2,35*2,28*2,22*2,16*2,11*2, 7*2,	4*2, 2*2, 0*2
      33.  00:4FB6  C0 AC 9A 88 76 66 56 46 38 2C 20 16 0E 08 04 00 
      34.  00:4FC6                      
      35.  00:4FC6                      TRACK_Vibrato_triangle:
      36.  00:4FC6                      	db	 0, 6,12,18,24,30,36,42,48,54,60,66,72,78,84,90
      36.  00:4FC6  00 06 0C 12 18 1E 24 2A 30 36 3C 42 48 4E 54 5A 
      37.  00:4FD6                      	db	96,90,84,78,72,66,60,54,48,42,36,30,24,18,12, 6
      37.  00:4FD6  60 5A 54 4E 48 42 3C 36 30 2A 24 1E 18 12 0C 06 
      38.  00:4FE6                      
      39.  00:4FE6                      TRACK_Vibrato_pulse:
      40.  00:4FE6                      	db	255,255,255,255,255,255,255,255,255,255,255,255,255,255,255,255
      40.  00:4FE6  FF FF FF FF FF FF FF FF FF FF FF FF FF FF FF FF 
      41.  00:4FF6                      	db      0,  0,  0,  0,  0,  0,  0,  0,  0,  0,  0,  0,  0,  0,  0,  0	
      41.  00:4FF6  00 00 00 00 00 00 00 00 00 00 00 00 00 00 00 00 
      42.  00:5006                      	
     130   00:5006                      	include	"..\ttsfxplay\ttsfxplay.asm"
       1.  00:5006                      ; --- TT sfx player v0.2 ---
       2.  00:5006                      ; --- Build uppon ayFX replayer, the work of Shiru, Z80st, ARTRAG
       3.  00:5006                      
       4.  00:5006                      
       5.  00:5006                      ; --- plays SFX over PSG(chan3) and SCC (chan1)
       6.  00:5006                      				
       7.  00:5006                      ;===========================================================
       8.  00:5006                      ; ---	ttsfx_init
       9.  00:5006                      ; Initialise the sfx player. Sets initial priorities, volume
      10.  00:5006                      ; balancce and initial SCC waveform.
      11.  00:5006                      ;
      12.  00:5006                      ;===========================================================	
      13.  00:5006                      ttsfx_init:
      14.  00:5006  3E 0F               	ld	a,15
      15.  00:5008  CD 16 50            	call	ttsfx_scc_balance
      16.  00:500B  3E 0F               	ld	a,15
      17.  00:500D  CD 1D 50            	call	ttsfx_psg_balance	
      18.  00:5010  CD 44 51            	call	_ttsfx_scc_end
      19.  00:5013  C3 4F 51            	jp	_ttsfx_psg_end
      20.  00:5016                      										
      21.  00:5016                      				
      22.  00:5016                      ;===========================================================
      23.  00:5016                      ; ---	ttsfx_scc_balance
      24.  00:5016                      ; Set the main SFX volume for the SCC chip.
      25.  00:5016                      ;
      26.  00:5016                      ; in: [A] master volume (0-15) 0=silenced, 15=full volume. 
      27.  00:5016                      ;===========================================================	
      28.  00:5016                      ttsfx_scc_balance:
      29.  00:5016  CD 24 50            	call	_getsfxbalancebase
      30.  00:5019  22 E1 C2            	ld	(sfx_SCC_BALANCE),hl	
      31.  00:501C  C9                  	ret
      32.  00:501D                      	
      33.  00:501D                      ;===========================================================
      34.  00:501D                      ; ---	ttsfx_psg_balance
      35.  00:501D                      ; Set the main SFXvolume for the PSG chip.
      36.  00:501D                      ;
      37.  00:501D                      ; in: [A] master volume (0-15) 0=silenced, 15=full volume. 
      38.  00:501D                      ;===========================================================	
      39.  00:501D                      ttsfx_psg_balance:
      40.  00:501D  CD 24 50            	call	_getsfxbalancebase
      41.  00:5020  22 D8 C2            	ld	(sfx_PSG_BALANCE),hl	
      42.  00:5023  C9                  	ret				
      43.  00:5024                      				
      44.  00:5024                      
      45.  00:5024                      _getsfxbalancebase:
      46.  00:5024  07                  	rlca
      47.  00:5025  07                  	rlca
      48.  00:5026  07                  	rlca
      49.  00:5027  07                  	rlca
      50.  00:5028  21 E6 4D            	ld	hl,_VOLUME_TABLE
      51.  00:502B  E6 F0               	and	$f0
      52.  00:502D  85                  	add	a,l
      53.  00:502E  6F                  	ld	l,a
      54.  00:502F  D0                  	ret 	nc
      55.  00:5030  24                  	inc	h
      56.  00:5031  C9                  	ret			
      57.  00:5032                      				
      58.  00:5032                      				
      59.  00:5032                      
      60.  00:5032                      
      61.  00:5032                      
      62.  00:5032                      ttsfx_start:
      63.  00:5032                      		;--- Start a new SFX
      64.  00:5032                      		;--- Input B -> sfx number
      65.  00:5032                      		;--- Input C -> priority
      66.  00:5032  21 43 62            		ld	hl,sfxlist				; get sfx data
      67.  00:5035  78                  		ld	a,b
      68.  00:5036  87                  		add	a
      69.  00:5037  85                  		add	a,l
      70.  00:5038  6F                  		ld	l,a
      71.  00:5039  D2 3D 50            		jp	nc,99f
      72.  00:503C  24                  		inc	h
      73.  00:503D                      99:
      74.  00:503D  7E                  		ld	a,(hl)
      75.  00:503E  23                  		inc	hl
      76.  00:503F  66                  		ld	h,(hl)
      77.  00:5040  6F                  		ld	l,a
      78.  00:5041                      
      79.  00:5041                      
      80.  00:5041                      _ts_loop:
      81.  00:5041  7E                  		ld	a,(hl)			; get type
      82.  00:5042  A7                  		and	a
      83.  00:5043  C8                  		ret	z				; end of sfx init data
      84.  00:5044  23                  		inc	hl
      85.  00:5045  3D                  		dec	a
      86.  00:5046  CA 5F 50            		jp	z,_ttsfx_psg_start
      87.  00:5049                      _ttsfx_scc_start:	
      88.  00:5049                      		; ---        C -> sound priority     ---
      89.  00:5049  3A DA C2            		ld	a,(sfx_SCC_PRIORITY)	; a:=Current sfx_SCC stream priority
      90.  00:504C  B9                  		cp	c				; If new sfx_SCC stream priority is higher than currently one...
      91.  00:504D  DA 75 50            		jp	c,ttsfx_nostart		; ...we don't start the new sfx_SCC stream
      92.  00:5050                      
      93.  00:5050                      		; --- INITS ---
      94.  00:5050  79                  		ld	a,c				; a:=New priority
      95.  00:5051  32 DA C2            		ld	(sfx_SCC_PRIORITY),a	; new sfx_SCC stream priority saved in RAM
      96.  00:5054                      
      97.  00:5054                      		; --- sfx_SCC stream pointer ---
      98.  00:5054  4E                  		ld	c,(hl)			; e:=lower byte of new sfx_SCC stream pointer
      99.  00:5055  23                  		inc	hl				; Increment pointer to the pointer
     100.  00:5056  46                  		ld	b,(hl)			; bc:=pointer to the new sfx_SCC stream
     101.  00:5057  23                  		inc	hl
     102.  00:5058  ED 43 DB C2         		ld	(sfx_SCC_POINTER),bc	; Pointer saved in RAM
     103.  00:505C  C3 41 50            		jp	_ts_loop
     104.  00:505F                      		
     105.  00:505F                      	
     106.  00:505F                      	
     107.  00:505F                      _ttsfx_psg_start:	
     108.  00:505F                      		; ---        C -> sound priority     ---
     109.  00:505F  3A D1 C2            		ld	a,(sfx_PSG_PRIORITY)	; a:=Current sfx_PSG stream priority
     110.  00:5062  B9                  		cp	c				; If new sfx_PSG stream priority is higher than currently one...
     111.  00:5063  DA 75 50            		jp	c,ttsfx_nostart		; ...we don't start the new sfx_PSG stream
     112.  00:5066                      
     113.  00:5066                      		; --- INITS ---
     114.  00:5066  79                  		ld	a,c				; a:=New priority
     115.  00:5067  32 D1 C2            		ld	(sfx_PSG_PRIORITY),a	; new sfx_PSG stream priority saved in RAM
     116.  00:506A                      
     117.  00:506A                      		; --- sfx_PSG stream pointer ---
     118.  00:506A  4E                  		ld	c,(hl)			; e:=lower byte of new sfx_PSG stream pointer
     119.  00:506B  23                  		inc	hl				; Increment pointer to the pointer
     120.  00:506C  46                  		ld	b,(hl)			; bc:=pointer to the new sfx_PSG stream
     121.  00:506D  23                  		inc	hl				; skip the waveform as this is psg
     122.  00:506E  ED 43 D2 C2         		ld	(sfx_PSG_POINTER),bc	; Pointer saved in RAM
     123.  00:5072  C3 41 50            		jp	_ts_loop					; Return
     124.  00:5075                      
     125.  00:5075                      ttsfx_nostart:
     126.  00:5075  23                  		inc	hl
     127.  00:5076  23                  		inc	hl
     128.  00:5077  C3 41 50            		jp	_ts_loop
     129.  00:507A                      
     130.  00:507A                      
     131.  00:507A                      
     132.  00:507A                      		
     133.  00:507A                      
     134.  00:507A                      		
     135.  00:507A                      		
     136.  00:507A                      
     137.  00:507A                      ttsfx_play:
     138.  00:507A                      	;--------------------------------
     139.  00:507A                      	; Play both sfx streams
     140.  00:507A                      	;--------------------------------
     141.  00:507A  3A D1 C2            		ld	a,(sfx_PSG_PRIORITY)	; a:=Current sfx_PSG stream priority
     142.  00:507D  3C                  		inc	a				; If priority is 255
     143.  00:507E  C4 DE 50            		call	nz,_ttsfx_psg_play
     144.  00:5081                      		
     145.  00:5081                      _ttsfx_scc_play:	; --- PLAY A FRAME OF AN sfx_SCC STREAM ---
     146.  00:5081  3A DA C2            		ld	a,(sfx_SCC_PRIORITY)	; a:=Current sfx_SCC stream priority
     147.  00:5084  3C                  		inc	a				; If priority is 255
     148.  00:5085  C8                  		ret	z				; ...return
     149.  00:5086                      
     150.  00:5086                      		;--- disable music Waveform updates
     151.  00:5086  21 DF C0            		ld	hl,TRACK_Chan4+17+TRACK_Flags
     152.  00:5089  CB B6               		res	B_TRGWAV,(hl)
     153.  00:508B                      		
     154.  00:508B                      		; --- Extract control byte from stream ---
     155.  00:508B  2A DB C2            		ld	hl,(sfx_SCC_POINTER)	; Pointer to the current sfx_SCC stream
     156.  00:508E  4E                  		ld	c,(hl)			; c:=Control byte
     157.  00:508F  79                  		ld	a,c
     158.  00:5090  FE 80               		cp	10000000b			; end marker
     159.  00:5092  CA 44 51            		jp	z,_ttsfx_scc_end
     160.  00:5095  23                  		inc	hl				; Increment pointer
     161.  00:5096                      		; --- Check if there's new tone on stream ---
     162.  00:5096  CB 69               		bit	5,c				; If bit 5 c is off...
     163.  00:5098  CA A3 50            		jp	z,_sccCHECK_W		; ...jump to _sccCHECK_NN (no new tone)
     164.  00:509B                      		; --- Extract new tone from stream ---
     165.  00:509B  5E                  		ld	e,(hl)			; e:=lower byte of new tone
     166.  00:509C  23                  		inc	hl				; Increment pointer
     167.  00:509D  56                  		ld	d,(hl)			; d:=higher byte of new tone
     168.  00:509E  23                  		inc	hl				; Increment pointer
     169.  00:509F  ED 53 DD C2         		ld	(sfx_SCC_TONE),de		; sfx_SCC tone updated
     170.  00:50A3                      _sccCHECK_W:	; --- Check if there's the end of the sfx ---
     171.  00:50A3  CB 71               		bit	6,c				; if bit 6 c is off...
     172.  00:50A5  CA AD 50            		jp	z,_sccSETPOINTER		; ...jump to _sccSETPOINTER (no end)
     173.  00:50A8                      		; --- Extract new waveform from stream ---
     174.  00:50A8  7E                  		ld	a,(hl)			; a:=New noise
     175.  00:50A9  23                  		inc	hl				; Increment pointer
     176.  00:50AA  32 DF C2            		ld	(sfx_SCC_WAVE),a		; Set a new waveform trigger, ttreplay will handle this
     177.  00:50AD                      		
     178.  00:50AD                      _sccSETPOINTER:	; --- Update sfx_SCC pointer ---
     179.  00:50AD  22 DB C2            		ld	(sfx_SCC_POINTER),hl	; Update sfx_SCC stream pointer
     180.  00:50B0                      		; --- Extract volume ---
     181.  00:50B0  79                  		ld	a,c				; a:=Control byte
     182.  00:50B1  E6 0F               		and	$0F				; lower nibble
     183.  00:50B3                      		; --- Fix the volume using TT Volume Table ---
     184.  00:50B3  2A E1 C2            		ld	hl,(sfx_SCC_BALANCE)	; hl:=Pointer to relative volume table
     185.  00:50B6  5F                  		ld	e,a				; e:=a (sfx_SCC volume)
     186.  00:50B7  16 00               		ld	d,0				; d:=0
     187.  00:50B9  19                  		add	hl,de				; hl:=hl+de (hl points to the relative volume of this frame
     188.  00:50BA  7E                  		ld	a,(hl)			; a:=sfx_SCC relative volume
     189.  00:50BB  1F                  		rra					; SCC relative volume is in the higher 4 bits
     190.  00:50BC  1F                  		rra
     191.  00:50BD  1F                  		rra
     192.  00:50BE  1F                  		rra
     193.  00:50BF  E6 0F               		and	$0f				; mask only scc volume
     194.  00:50C1  32 E0 C2            		ld	(sfx_SCC_VOLUME),a	; sfx_SCC volume updated
     195.  00:50C4  B7                  		or	a				; If relative volume is zero...
     196.  00:50C5  C8                  		ret	z				; ...return (don't copy sfx_SCC values in to sccREGS)
     197.  00:50C6                      
     198.  00:50C6  47                  		ld	b,a 				; Store relative volume in b
     199.  00:50C7                      		; -------------------------------------
     200.  00:50C7                      		; --- COPY sfx_SCC VALUES IN TO sccREGS ---
     201.  00:50C7                      		; -------------------------------------
     202.  00:50C7                      
     203.  00:50C7                      		; --- Set mixer masks ---
     204.  00:50C7  79                  		ld	a,c				; a:=Control byte
     205.  00:50C8  E6 80               		and	$80				; Only bit 4 (tone mask for SCC)
     206.  00:50CA  C8                  		ret	z				; ...return (don't copy sfx_SCC values in to sccREGS)
     207.  00:50CB                      
     208.  00:50CB                      		;--- Set the SCC mixer value
     209.  00:50CB  3A 40 C2            		ld	a,(SCC_regMIXER)		; a:=SCC mixer value
     210.  00:50CE  F6 01               		or	1						; Set the tone enabled bit.
     211.  00:50D0  32 40 C2            		ld	(SCC_regMIXER),a		; SCC mixer value updated
     212.  00:50D3                      		
     213.  00:50D3  78                  		ld 	a,b						; relative volume
     214.  00:50D4  32 3B C2            		ld	(SCC_regVOLA),a			; Volume copied in to SCCREGS (channel 1 volume)
     215.  00:50D7  2A DD C2            		ld	hl,(sfx_SCC_TONE)		; sfx_SCC tone value
     216.  00:50DA  22 31 C2            		ld	(SCC_regToneA),hl		; copied in to SCCREGS (channel 1 tone)
     217.  00:50DD  C9                  		ret							; Return	
     218.  00:50DE                      
     219.  00:50DE                      		
     220.  00:50DE                      _ttsfx_psg_play:	; --- PLAY A FRAME OF AN sfx_PSG STREAM ---
     221.  00:50DE                      		; --- Extract control byte from stream ---
     222.  00:50DE  2A D2 C2            		ld	hl,(sfx_PSG_POINTER)	; Pointer to the current sfx_PSG stream
     223.  00:50E1  4E                  		ld	c,(hl)			; c:=Control byte
     224.  00:50E2  79                  		ld	a,c
     225.  00:50E3  FE 40               		cp	64				; Check for end marker
     226.  00:50E5  CA 4F 51            		jp	z,_ttsfx_psg_end
     227.  00:50E8  23                  		inc	hl				; Increment pointer
     228.  00:50E9                      		; --- Check if there's new tone on stream ---
     229.  00:50E9  CB 69               		bit	5,c				; If bit 5 c is off...
     230.  00:50EB  CA F6 50            		jp	z,_ayCHECK_NN		; ...jump to _ayCHECK_NN (no new tone)
     231.  00:50EE                      		; --- Extract new tone from stream ---
     232.  00:50EE  5E                  		ld	e,(hl)			; e:=lower byte of new tone
     233.  00:50EF  23                  		inc	hl				; Increment pointer
     234.  00:50F0  56                  		ld	d,(hl)			; d:=higher byte of new tone
     235.  00:50F1  23                  		inc	hl				; Increment pointer
     236.  00:50F2  ED 53 D4 C2         		ld	(sfx_PSG_TONE),de		; sfx_PSG tone updated
     237.  00:50F6                      _ayCHECK_NN:	
     238.  00:50F6                      		; --- Check if there's new noise on stream ---
     239.  00:50F6  CB 71               		bit	6,c				; if bit 6 c is off...
     240.  00:50F8  CA 00 51            		jp	z,_aySETPOINTER		; ...jump to _aySETPOINTER (no new noise)
     241.  00:50FB                      		; --- Extract new noise from stream ---
     242.  00:50FB  7E                  		ld	a,(hl)			; a:=New noise
     243.  00:50FC  23                  		inc	hl				; Increment pointer
     244.  00:50FD                      ;		cp	$20				; If it's an illegal value of noise (used to mark end of stream)...
     245.  00:50FD                      ;		jp	z,_ttsfx_psg_end			; ...jump to _ttsfx_psg_end
     246.  00:50FD  32 D6 C2            		ld	(sfx_PSG_NOISE),a		; sfx_PSG noise updated
     247.  00:5100                      _aySETPOINTER:	; --- Update sfx_PSG pointer ---
     248.  00:5100  22 D2 C2            		ld	(sfx_PSG_POINTER),hl	; Update sfx_PSG stream pointer
     249.  00:5103                      		; --- Extract volume ---
     250.  00:5103  79                  		ld	a,c				; a:=Control byte
     251.  00:5104  E6 0F               		and	$0F				; lower nibble
     252.  00:5106                      		; --- Fix the volume using TT Volume Table ---
     253.  00:5106  2A D8 C2            		ld	hl,(sfx_PSG_BALANCE)	; hl:=Pointer to relative volume table
     254.  00:5109  5F                  		ld	e,a				; e:=a (sfx_PSG volume)
     255.  00:510A  16 00               		ld	d,0				; d:=0
     256.  00:510C  19                  		add	hl,de				; hl:=hl+de (hl points to the relative volume of this frame
     257.  00:510D  7E                  		ld	a,(hl)			; a:=sfx_PSG relative volume
     258.  00:510E  E6 0F               		and	$0f				; mask only ay volume
     259.  00:5110  32 D7 C2            		ld	(sfx_PSG_VOLUME),a	; sfx_PSG volume updated
     260.  00:5113  B7                  		or	a				; If relative volume is zero...
     261.  00:5114  C8                  		ret	z				; ...return (don't copy sfx_PSG values in to AYREGS)
     262.  00:5115                      
     263.  00:5115  47                  		ld	b,a 				; Store relative volume in b
     264.  00:5116                      		; -------------------------------------
     265.  00:5116                      		; --- COPY sfx_PSG VALUES IN TO AYREGS ---
     266.  00:5116                      		; -------------------------------------
     267.  00:5116                      		
     268.  00:5116                      		; --- Set tone register ---	
     269.  00:5116  CB 61               		bit	4,c				; If tone is off...
     270.  00:5118  CA 21 51            		jp	z,0f				; ...return
     271.  00:511B  2A D4 C2            		ld	hl,(sfx_PSG_TONE)		; sfx_PSG tone value
     272.  00:511E  22 A7 C1            		ld	(AY_regToneC),hl		; copied in to AYREGS (channel C tone)		
     273.  00:5121                      		
     274.  00:5121                      0:		; --- Set noise register ---
     275.  00:5121  CB 79               		bit	7,c				; If noise is off...
     276.  00:5123  CA 2C 51            		jp	z,_aySETMASKS		; ...jump to _aySETMASKS
     277.  00:5126  3A D6 C2            		ld	a,(sfx_PSG_NOISE)		; sfx_PSG noise value
     278.  00:5129  32 A9 C1            		ld	(AY_regNOISE),a		; copied in to AYREGS (noise channel)
     279.  00:512C                      _aySETMASKS:	; --- Set mixer masks ---
     280.  00:512C  79                  		ld	a,c				; a:=Control byte
     281.  00:512D  E6 90               		and	$90				; Only bits 7 and 4 (noise and tone mask for psg reg 7)
     282.  00:512F                      	;	cp	$90				; If no noise and no tone...
     283.  00:512F  C8                  		ret	z				; ...return (don't copy sfx_PSG values in to AYREGS)
     284.  00:5130                      		; --- Copy sfx_PSG values in to ARYREGS ---
     285.  00:5130  CB 0F               		rrc	a				; Rotate a to the right (1 TIME)
     286.  00:5132  CB 0F               		rrc	a				; Rotate a to the right (2 TIMES) (OR mask)
     287.  00:5134                      		
     288.  00:5134                      		;--- Set the PSG mixer value
     289.  00:5134  0E 20               		ld 	c,00100000b
     290.  00:5136                      ;		ld	c,a				; c:=OR mask
     291.  00:5136  3A AA C1            		ld	a,(AY_regMIXER)		; a:=PSG mixer value
     292.  00:5139  E6 1B               		and	00011011b
     293.  00:513B                      
     294.  00:513B                      
     295.  00:513B  B1                  		or	c				; OR mask
     296.  00:513C  32 AA C1            		ld	(AY_regMIXER),a		; PSG mixer value updated
     297.  00:513F                      	
     298.  00:513F  78                  		ld 	a,b				; relative volume
     299.  00:5140  32 AD C1            		ld	(AY_regVOLC),a		; Volume copied in to AYREGS (channel C volume)
     300.  00:5143                      	
     301.  00:5143  C9                  		ret					; Return
     302.  00:5144                      
     303.  00:5144                      		
     304.  00:5144                      _ttsfx_scc_end:	; --- End of an sfx_SCC stream ---
     305.  00:5144  3E FF               		ld	a,255				; Lowest sfx_SCC priority
     306.  00:5146  32 DA C2            		ld	(sfx_SCC_PRIORITY),a	; Priority saved (not playing sfx_SCC stream)
     307.  00:5149                      		;--- Restore music waveform
     308.  00:5149  21 DF C0            		ld	hl,TRACK_Chan4+17+TRACK_Flags
     309.  00:514C  CB F6               		set	B_TRGWAV,(hl)		
     310.  00:514E  C9                  		ret					; Return		
     311.  00:514F                      		
     312.  00:514F                      _ttsfx_psg_end:	; --- End of an sfx_PSG stream ---
     313.  00:514F  3E FF               		ld	a,255				; Lowest sfx_PSG priority
     314.  00:5151  32 D1 C2            		ld	(sfx_PSG_PRIORITY),a	; Priority saved (not playing sfx_PSG stream)
     315.  00:5154  C9                  		ret					; Return		
     316.  00:5155                      		
     317.  00:5155                      		
     318.  00:5155                      		
     319.  00:5155                      		
     320.  00:5155                      ;-- Used by the tt music replayer to update the waveform for sfx.		
     321.  00:5155                      _write_SFX_wave:
     322.  00:5155  6F                  	ld	l,a
     323.  00:5156  26 00               	ld	h,0
     324.  00:5158  29                  	add	hl,hl
     325.  00:5159  29                  	add	hl,hl
     326.  00:515A                      		
     327.  00:515A  01 E3 61            	ld	  bc,ttsfx_waveforms
     328.  00:515D  09                  	add	  hl,bc
     329.  00:515E  01 20 00            	ld	  bc,32
     330.  00:5161  ED B0               	ldir
     331.  00:5163                      	
     332.  00:5163  3E FF               	ld	a,255		; reset wave trigger
     333.  00:5165  32 DF C2            	ld 	(sfx_SCC_WAVE),a	
     334.  00:5168                      	
     335.  00:5168  C9                  	ret		
     336.  00:5169                      		
     337.  00:5169                      		
     131   00:5169                      	
     132   00:5169                      demo_song:
     133   00:5169                      	include	".\demosong.asm"
       1.  00:5169                      ; Compiled using tt_compile.exe V0.4.0 [16-09-2016]
       2.  00:5169                      ; Copyright 2016 Richard Cornelisse
       3.  00:5169                      
       4.  00:5169                      ; Song: Usas Stage1        - Konami     
       5.  00:5169                      ; By:   Arr. by Gryzor87        (c) 2013
       6.  00:5169                      
       7.  00:5169                      ;	org $c000
       8.  00:5169                      
       9.  00:5169                      ; [ Song start data ]
      10.  00:5169  09                  	db $09				; Initial song speed.
      11.  00:516A  D2 51               	dw .waveform_start 		; Start of the waveform data.
      12.  00:516C  72 53               	dw .instrument_start 		; Start of the instrument data.
      13.  00:516E                      
      14.  00:516E                      ; [ Song order pointer list ]
      15.  00:516E                      .restart:
      16.  00:516E                      		dw .track_0,.track_1,.track_2,.track_3,.track_4,.track_5,.track_6,.track_7		; Sequence step 0 /pattern 0
      16.  00:516E  66 56 C6 56 FF 56 2D 57 5F 57 9B 57 DD 57 37 58 
      17.  00:517E                      		dw .track_8,.track_9,.track_10,.track_11,.track_12,.track_13,.track_14,.track_15		; Sequence step 1 /pattern 1
      17.  00:517E  68 58 C9 58 FD 58 26 59 52 59 89 59 BC 59 1E 5A 
      18.  00:518E                      		dw .track_16,.track_17,.track_18,.track_19,.track_20,.track_21,.track_22,.track_23		; Sequence step 2 /pattern 2
      18.  00:518E  56 5A C2 5A FE 5A 40 5B 7C 5B C2 5B FC 5B 57 5C 
      19.  00:519E                      		dw .track_16,.track_24,.track_25,.track_26,.track_27,.track_28,.track_29,.track_30		; Sequence step 3 /pattern 3
      19.  00:519E  56 5A 9C 5C D1 5C 0C 5D 41 5D 82 5D C1 5D 28 5E 
      20.  00:51AE                      		dw .track_8,.track_31,.track_32,.track_33,.track_34,.track_35,.track_36,.track_37		; Sequence step 4 /pattern 4
      20.  00:51AE  68 58 60 5E 8F 5E C0 5E EF 5E 2B 5F 6A 5F BC 5F 
      21.  00:51BE                      		dw .track_38,.track_39,.track_40,.track_41,.track_42,.track_43,.track_44,.track_45		; Sequence step 5 /pattern 5
      21.  00:51BE  F0 5F 4C 60 83 60 AA 60 DE 60 12 61 56 61 A4 61 
      22.  00:51CE  00 00 6E 51         		dw 0x0000, .restart			; End of sequence delimiter + restart address.
      23.  00:51D2                      
      24.  00:51D2                      .waveform_start:
      25.  00:51D2                      	db $00,$00,$00,$00,$00,$00,$00,$00,$00,$00,$00,$00,$00,$00,$00,$00,$00,$00,$00,$00,$00,$00,$00,$00,$00,$00,$00,$00,$00,$00,$00,$00	; Waveform 0(was 0)
      25.  00:51D2  00 00 00 00 00 00 00 00 00 00 00 00 00 00 00 00 
      25.  00:51E2  00 00 00 00 00 00 00 00 00 00 00 00 00 00 00 00 
      26.  00:51F2                      	db $80,$B0,$C0,$10,$1A,$2A,$2C,$1A,$00,$E0,$D0,$E0,$22,$53,$70,$75,$70,$31,$EA,$80,$88,$8A,$8C,$8E,$00,$7F,$75,$73,$62,$00,$C0,$90	; Waveform 1(was 1)
      26.  00:51F2  80 B0 C0 10 1A 2A 2C 1A 00 E0 D0 E0 22 53 70 75 
      26.  00:5202  70 31 EA 80 88 8A 8C 8E 00 7F 75 73 62 00 C0 90 
      27.  00:5212                      	db $30,$50,$50,$30,$00,$00,$10,$40,$60,$70,$60,$30,$F0,$E0,$E0,$00,$20,$20,$10,$C0,$A0,$90,$A0,$C0,$00,$00,$D0,$B0,$B0,$D0,$00,$00	; Waveform 2(was 2)
      27.  00:5212  30 50 50 30 00 00 10 40 60 70 60 30 F0 E0 E0 00 
      27.  00:5222  20 20 10 C0 A0 90 A0 C0 00 00 D0 B0 B0 D0 00 00 
      28.  00:5232                      	db $17,$77,$47,$5F,$27,$E7,$A7,$2F,$6F,$B7,$FF,$E7,$1F,$0F,$4F,$DF,$EF,$F7,$E7,$CF,$E7,$67,$47,$DF,$17,$97,$B7,$EF,$DF,$D7,$E7,$FF	; Waveform 3(was 4)
      28.  00:5232  17 77 47 5F 27 E7 A7 2F 6F B7 FF E7 1F 0F 4F DF 
      28.  00:5242  EF F7 E7 CF E7 67 47 DF 17 97 B7 EF DF D7 E7 FF 
      29.  00:5252                      	db $00,$40,$7F,$40,$01,$C0,$81,$C0,$01,$40,$7F,$40,$01,$C0,$01,$40,$01,$E0,$01,$20,$01,$F0,$01,$10,$01,$FF,$FF,$FF,$FF,$40,$40,$40	; Waveform 4(was 5)
      29.  00:5252  00 40 7F 40 01 C0 81 C0 01 40 7F 40 01 C0 01 40 
      29.  00:5262  01 E0 01 20 01 F0 01 10 01 FF FF FF FF 40 40 40 
      30.  00:5272                      	db $00,$19,$31,$47,$5A,$6A,$75,$7D,$7F,$7D,$75,$6A,$5A,$47,$31,$19,$00,$E0,$C0,$A0,$80,$A0,$C0,$E0,$00,$20,$40,$60,$7F,$60,$40,$20	; Waveform 5(was 6)
      30.  00:5272  00 19 31 47 5A 6A 75 7D 7F 7D 75 6A 5A 47 31 19 
      30.  00:5282  00 E0 C0 A0 80 A0 C0 E0 00 20 40 60 7F 60 40 20 
      31.  00:5292                      	db $00,$4E,$62,$6D,$75,$7A,$7D,$7E,$7F,$7E,$7D,$7A,$75,$6D,$62,$4E,$00,$B1,$9D,$92,$8A,$85,$82,$81,$80,$81,$82,$85,$8A,$92,$9D,$B1	; Waveform 6(was 7)
      31.  00:5292  00 4E 62 6D 75 7A 7D 7E 7F 7E 7D 7A 75 6D 62 4E 
      31.  00:52A2  00 B1 9D 92 8A 85 82 81 80 81 82 85 8A 92 9D B1 
      32.  00:52B2                      	db $00,$F0,$E0,$D0,$C0,$B0,$A0,$90,$80,$80,$80,$80,$80,$80,$80,$80,$80,$80,$80,$80,$80,$80,$80,$80,$7F,$70,$60,$50,$40,$30,$20,$10	; Waveform 7(was 10)
      32.  00:52B2  00 F0 E0 D0 C0 B0 A0 90 80 80 80 80 80 80 80 80 
      32.  00:52C2  80 80 80 80 80 80 80 80 7F 70 60 50 40 30 20 10 
      33.  00:52D2                      	db $01,$2A,$40,$50,$5C,$68,$70,$78,$7F,$78,$70,$68,$5C,$50,$40,$2A,$FF,$D6,$C0,$B0,$A4,$98,$90,$88,$81,$88,$90,$98,$A4,$B0,$C0,$D6	; Waveform 8(was 11)
      33.  00:52D2  01 2A 40 50 5C 68 70 78 7F 78 70 68 5C 50 40 2A 
      33.  00:52E2  FF D6 C0 B0 A4 98 90 88 81 88 90 98 A4 B0 C0 D6 
      34.  00:52F2                      	db $4F,$5F,$67,$6F,$77,$77,$77,$77,$77,$6F,$5F,$4F,$3F,$27,$17,$07,$F7,$E7,$D7,$C7,$AF,$97,$87,$87,$87,$87,$87,$87,$8F,$97,$9F,$AF	; Waveform 9(was 12)
      34.  00:52F2  4F 5F 67 6F 77 77 77 77 77 6F 5F 4F 3F 27 17 07 
      34.  00:5302  F7 E7 D7 C7 AF 97 87 87 87 87 87 87 8F 97 9F AF 
      35.  00:5312                      	db $00,$F0,$E0,$D0,$C0,$B0,$A0,$90,$80,$70,$60,$50,$40,$30,$20,$10,$00,$F0,$E0,$D0,$C0,$B0,$A0,$90,$80,$70,$60,$50,$40,$30,$20,$10	; Waveform 10(was 14)
      35.  00:5312  00 F0 E0 D0 C0 B0 A0 90 80 70 60 50 40 30 20 10 
      35.  00:5322  00 F0 E0 D0 C0 B0 A0 90 80 70 60 50 40 30 20 10 
      36.  00:5332                      	db $00,$F8,$F0,$E8,$E0,$D8,$D0,$C8,$C0,$B8,$B0,$A8,$A0,$98,$90,$20,$00,$E0,$C0,$A0,$80,$A0,$C0,$E0,$00,$20,$40,$60,$7F,$60,$40,$20	; Waveform 11(was 16)
      36.  00:5332  00 F8 F0 E8 E0 D8 D0 C8 C0 B8 B0 A8 A0 98 90 20 
      36.  00:5342  00 E0 C0 A0 80 A0 C0 E0 00 20 40 60 7F 60 40 20 
      37.  00:5352                      	db $FF,$FF,$FF,$FF,$FF,$FF,$FF,$FF,$FF,$FF,$FF,$FF,$FF,$FF,$FF,$11,$FF,$FF,$FF,$FF,$FF,$FF,$FF,$FF,$FF,$FF,$FF,$FF,$FF,$FF,$FF,$FF	; Waveform 12(was 31)
      37.  00:5352  FF FF FF FF FF FF FF FF FF FF FF FF FF FF FF 11 
      37.  00:5362  FF FF FF FF FF FF FF FF FF FF FF FF FF FF FF FF 
      38.  00:5372                      
      39.  00:5372                      .instrument_start:
      40.  00:5372  B0 53               	dw .ins_1
      41.  00:5374  B8 53               	dw .ins_2
      42.  00:5376  F5 53               	dw .ins_3
      43.  00:5378  01 54               	dw .ins_4
      44.  00:537A  10 54               	dw .ins_5
      45.  00:537C  10 54               	dw .ins_6
      46.  00:537E  22 54               	dw .ins_7
      47.  00:5380  3F 54               	dw .ins_8
      48.  00:5382  54 54               	dw .ins_9
      49.  00:5384  A3 54               	dw .ins_10
      50.  00:5386  CE 54               	dw .ins_11
      51.  00:5388  F9 54               	dw .ins_12
      52.  00:538A  0E 55               	dw .ins_13
      53.  00:538C  2B 55               	dw .ins_14
      54.  00:538E  40 55               	dw .ins_15
      55.  00:5390  6B 55               	dw .ins_16
      56.  00:5392  80 55               	dw .ins_17
      57.  00:5394  80 55               	dw .ins_18
      58.  00:5396  97 55               	dw .ins_19
      59.  00:5398  97 55               	dw .ins_20
      60.  00:539A  AC 55               	dw .ins_21
      61.  00:539C  BE 55               	dw .ins_22
      62.  00:539E  BE 55               	dw .ins_23
      63.  00:53A0  BE 55               	dw .ins_24
      64.  00:53A2  15 56               	dw .ins_25
      65.  00:53A4  15 56               	dw .ins_26
      66.  00:53A6  40 56               	dw .ins_27
      67.  00:53A8  55 56               	dw .ins_28
      68.  00:53AA  55 56               	dw .ins_29
      69.  00:53AC  55 56               	dw .ins_30
      70.  00:53AE  55 56               	dw .ins_31
      71.  00:53B0                      .ins_1:						; BD POW Solid    
      72.  00:53B0  00                  		db 0					; Waveform (was 0)
      73.  00:53B1  11 0F               		db $11,$0F
      74.  00:53B3                      .rst_i1:
      75.  00:53B3  89 00 00            		db $89,$00,$00
      76.  00:53B6  B3 53               		dw .rst_i1
      77.  00:53B8                      .ins_2:						; SD POW Solid    
      78.  00:53B8  00                  		db 0					; Waveform (was 0)
      79.  00:53B9  11 0F               		db $11,$0F
      80.  00:53BB  85 0F 00 FF FF      		db $85,$0F,$00,$FF,$FF
      81.  00:53C0  A5 0E 07 FF FF      		db $A5,$0E,$07,$FF,$FF
      82.  00:53C5  85 0D 00 FF FF      		db $85,$0D,$00,$FF,$FF
      83.  00:53CA  A5 0D 09 FF FF      		db $A5,$0D,$09,$FF,$FF
      84.  00:53CF  85 0C 00 FF FF      		db $85,$0C,$00,$FF,$FF
      85.  00:53D4  85 0C 00 FF FF      		db $85,$0C,$00,$FF,$FF
      86.  00:53D9  85 0B 00 07 00      		db $85,$0B,$00,$07,$00
      87.  00:53DE  81 0B 00            		db $81,$0B,$00
      88.  00:53E1  81 0A 00            		db $81,$0A,$00
      89.  00:53E4  81 0A 00            		db $81,$0A,$00
      90.  00:53E7  81 08 00            		db $81,$08,$00
      91.  00:53EA  81 06 00            		db $81,$06,$00
      92.  00:53ED  81 05 00            		db $81,$05,$00
      93.  00:53F0                      .rst_i2:
      94.  00:53F0  89 02 00            		db $89,$02,$00
      95.  00:53F3  F0 53               		dw .rst_i2
      96.  00:53F5                      .ins_3:						; HH close So HI  
      97.  00:53F5  00                  		db 0					; Waveform (was 0)
      98.  00:53F6  91 0E 00            		db $91,$0E,$00
      99.  00:53F9  91 06 00            		db $91,$06,$00
     100.  00:53FC                      .rst_i3:
     101.  00:53FC  99 00 00            		db $99,$00,$00
     102.  00:53FF  FC 53               		dw .rst_i3
     103.  00:5401                      .ins_4:						; HH open Solid   
     104.  00:5401  00                  		db 0					; Waveform (was 0)
     105.  00:5402  91 0E 00            		db $91,$0E,$00
     106.  00:5405  91 0E 00            		db $91,$0E,$00
     107.  00:5408  91 0C 00            		db $91,$0C,$00
     108.  00:540B                      .rst_i4:
     109.  00:540B  9B FF 00            		db $9B,$FF,$00
     110.  00:540E  0B 54               		dw .rst_i4
     111.  00:5410                      .ins_5:						; Ride Cymbal     
     112.  00:5410                      .ins_6:						; Tom             
     113.  00:5410  00                  		db 0					; Waveform (was 0)
     114.  00:5411  15 0F 2F 00         		db $15,$0F,$2F,$00
     115.  00:5415  15 0E 2F 00         		db $15,$0E,$2F,$00
     116.  00:5419                      .rst_i6:
     117.  00:5419  14 2F 00            		db $14,$2F,$00
     118.  00:541C  1F FF 2F 00         		db $1F,$FF,$2F,$00
     119.  00:5420  19 54               		dw .rst_i6
     120.  00:5422                      .ins_7:						; PSG Attack      
     121.  00:5422  00                  		db 0					; Waveform (was 0)
     122.  00:5423  11 0E               		db $11,$0E
     123.  00:5425  11 0C               		db $11,$0C
     124.  00:5427  11 0C               		db $11,$0C
     125.  00:5429  11 0C               		db $11,$0C
     126.  00:542B  11 0C               		db $11,$0C
     127.  00:542D  11 0C               		db $11,$0C
     128.  00:542F  11 0C               		db $11,$0C
     129.  00:5431  11 0A               		db $11,$0A
     130.  00:5433                      .rst_i7:
     131.  00:5433  11 09               		db $11,$09
     132.  00:5435  11 0A               		db $11,$0A
     133.  00:5437  11 0A               		db $11,$0A
     134.  00:5439  11 0A               		db $11,$0A
     135.  00:543B  19 0A               		db $19,$0A
     136.  00:543D  33 54               		dw .rst_i7
     137.  00:543F                      .ins_8:						; PSG Lead        
     138.  00:543F  00                  		db 0					; Waveform (was 0)
     139.  00:5440  11 0A               		db $11,$0A
     140.  00:5442  11 0B               		db $11,$0B
     141.  00:5444  11 0C               		db $11,$0C
     142.  00:5446  11 0D               		db $11,$0D
     143.  00:5448  11 0E               		db $11,$0E
     144.  00:544A  11 0F               		db $11,$0F
     145.  00:544C  11 0F               		db $11,$0F
     146.  00:544E  11 0F               		db $11,$0F
     147.  00:5450                      .rst_i8:
     148.  00:5450  19 0F               		db $19,$0F
     149.  00:5452  50 54               		dw .rst_i8
     150.  00:5454                      .ins_9:						; PGS String snake
     151.  00:5454  00                  		db 0					; Waveform (was 0)
     152.  00:5455  11 0A               		db $11,$0A
     153.  00:5457  11 0B               		db $11,$0B
     154.  00:5459  11 0C               		db $11,$0C
     155.  00:545B  11 0D               		db $11,$0D
     156.  00:545D  11 0E               		db $11,$0E
     157.  00:545F  11 0F               		db $11,$0F
     158.  00:5461  11 0F               		db $11,$0F
     159.  00:5463  11 0F               		db $11,$0F
     160.  00:5465  11 0F               		db $11,$0F
     161.  00:5467  11 0F               		db $11,$0F
     162.  00:5469  11 0F               		db $11,$0F
     163.  00:546B  11 0F               		db $11,$0F
     164.  00:546D  11 0E               		db $11,$0E
     165.  00:546F  11 0E               		db $11,$0E
     166.  00:5471  11 0E               		db $11,$0E
     167.  00:5473  11 0E               		db $11,$0E
     168.  00:5475  11 0E               		db $11,$0E
     169.  00:5477  11 0D               		db $11,$0D
     170.  00:5479  11 0D               		db $11,$0D
     171.  00:547B  11 0D               		db $11,$0D
     172.  00:547D                      .rst_i9:
     173.  00:547D  15 0D 01 00         		db $15,$0D,$01,$00
     174.  00:5481  11 0D               		db $11,$0D
     175.  00:5483  15 0D 01 00         		db $15,$0D,$01,$00
     176.  00:5487  11 0D               		db $11,$0D
     177.  00:5489  15 0D 01 00         		db $15,$0D,$01,$00
     178.  00:548D  11 0D               		db $11,$0D
     179.  00:548F  15 0D FF FF         		db $15,$0D,$FF,$FF
     180.  00:5493  11 0D               		db $11,$0D
     181.  00:5495  15 0D FF FF         		db $15,$0D,$FF,$FF
     182.  00:5499  11 0D               		db $11,$0D
     183.  00:549B  15 0D FF FF         		db $15,$0D,$FF,$FF
     184.  00:549F  19 0D               		db $19,$0D
     185.  00:54A1  7D 54               		dw .rst_i9
     186.  00:54A3                      .ins_10:						; SC Bass         
     187.  00:54A3  08                  		db 8					; Waveform (was 1)
     188.  00:54A4  11 0F               		db $11,$0F
     189.  00:54A6  11 0A               		db $11,$0A
     190.  00:54A8  11 0A               		db $11,$0A
     191.  00:54AA  11 0A               		db $11,$0A
     192.  00:54AC  11 0A               		db $11,$0A
     193.  00:54AE  11 0A               		db $11,$0A
     194.  00:54B0  11 0A               		db $11,$0A
     195.  00:54B2  11 0A               		db $11,$0A
     196.  00:54B4  11 0A               		db $11,$0A
     197.  00:54B6  11 0A               		db $11,$0A
     198.  00:54B8  11 0A               		db $11,$0A
     199.  00:54BA  11 07               		db $11,$07
     200.  00:54BC  11 07               		db $11,$07
     201.  00:54BE  11 07               		db $11,$07
     202.  00:54C0  11 07               		db $11,$07
     203.  00:54C2  11 06               		db $11,$06
     204.  00:54C4  11 05               		db $11,$05
     205.  00:54C6  11 04               		db $11,$04
     206.  00:54C8  11 03               		db $11,$03
     207.  00:54CA                      .rst_i10:
     208.  00:54CA  19 02               		db $19,$02
     209.  00:54CC  CA 54               		dw .rst_i10
     210.  00:54CE                      .ins_11:						; SC Piano        
     211.  00:54CE  10                  		db 16					; Waveform (was 2)
     212.  00:54CF  11 0F               		db $11,$0F
     213.  00:54D1  11 0E               		db $11,$0E
     214.  00:54D3  11 0D               		db $11,$0D
     215.  00:54D5  11 0D               		db $11,$0D
     216.  00:54D7  11 0D               		db $11,$0D
     217.  00:54D9  11 0D               		db $11,$0D
     218.  00:54DB  11 0D               		db $11,$0D
     219.  00:54DD  11 0C               		db $11,$0C
     220.  00:54DF  11 0C               		db $11,$0C
     221.  00:54E1  11 0B               		db $11,$0B
     222.  00:54E3  11 0B               		db $11,$0B
     223.  00:54E5  11 0A               		db $11,$0A
     224.  00:54E7  11 09               		db $11,$09
     225.  00:54E9  11 08               		db $11,$08
     226.  00:54EB  11 07               		db $11,$07
     227.  00:54ED  11 06               		db $11,$06
     228.  00:54EF  11 05               		db $11,$05
     229.  00:54F1  11 04               		db $11,$04
     230.  00:54F3  11 03               		db $11,$03
     231.  00:54F5                      .rst_i11:
     232.  00:54F5  19 02               		db $19,$02
     233.  00:54F7  F5 54               		dw .rst_i11
     234.  00:54F9                      .ins_12:						; SC Lead         
     235.  00:54F9  38                  		db 56					; Waveform (was 10)
     236.  00:54FA  11 0A               		db $11,$0A
     237.  00:54FC  11 0B               		db $11,$0B
     238.  00:54FE  11 0C               		db $11,$0C
     239.  00:5500  11 0D               		db $11,$0D
     240.  00:5502  11 0E               		db $11,$0E
     241.  00:5504  11 0F               		db $11,$0F
     242.  00:5506  11 0F               		db $11,$0F
     243.  00:5508  11 0F               		db $11,$0F
     244.  00:550A                      .rst_i12:
     245.  00:550A  19 0F               		db $19,$0F
     246.  00:550C  0A 55               		dw .rst_i12
     247.  00:550E                      .ins_13:						; SC Bell         
     248.  00:550E  18                  		db 24					; Waveform (was 4)
     249.  00:550F  11 0F               		db $11,$0F
     250.  00:5511  11 09               		db $11,$09
     251.  00:5513  11 09               		db $11,$09
     252.  00:5515  11 09               		db $11,$09
     253.  00:5517  11 09               		db $11,$09
     254.  00:5519  11 09               		db $11,$09
     255.  00:551B  11 09               		db $11,$09
     256.  00:551D  11 08               		db $11,$08
     257.  00:551F  11 07               		db $11,$07
     258.  00:5521  11 06               		db $11,$06
     259.  00:5523  11 05               		db $11,$05
     260.  00:5525  11 04               		db $11,$04
     261.  00:5527                      .rst_i13:
     262.  00:5527  19 03               		db $19,$03
     263.  00:5529  27 55               		dw .rst_i13
     264.  00:552B                      .ins_14:						; SC Pad LOW      
     265.  00:552B  20                  		db 32					; Waveform (was 5)
     266.  00:552C  11 03               		db $11,$03
     267.  00:552E  11 05               		db $11,$05
     268.  00:5530  11 08               		db $11,$08
     269.  00:5532  11 0A               		db $11,$0A
     270.  00:5534  11 0A               		db $11,$0A
     271.  00:5536  11 0B               		db $11,$0B
     272.  00:5538  11 0B               		db $11,$0B
     273.  00:553A  11 0B               		db $11,$0B
     274.  00:553C                      .rst_i14:
     275.  00:553C  19 0B               		db $19,$0B
     276.  00:553E  3C 55               		dw .rst_i14
     277.  00:5540                      .ins_15:						; SC PianoBell    
     278.  00:5540  28                  		db 40					; Waveform (was 6)
     279.  00:5541  11 0F               		db $11,$0F
     280.  00:5543  11 08               		db $11,$08
     281.  00:5545  11 09               		db $11,$09
     282.  00:5547  11 09               		db $11,$09
     283.  00:5549  11 09               		db $11,$09
     284.  00:554B  11 09               		db $11,$09
     285.  00:554D  11 09               		db $11,$09
     286.  00:554F  11 09               		db $11,$09
     287.  00:5551  11 09               		db $11,$09
     288.  00:5553  11 09               		db $11,$09
     289.  00:5555  11 09               		db $11,$09
     290.  00:5557  11 09               		db $11,$09
     291.  00:5559  11 09               		db $11,$09
     292.  00:555B  11 08               		db $11,$08
     293.  00:555D  11 07               		db $11,$07
     294.  00:555F  11 06               		db $11,$06
     295.  00:5561  11 05               		db $11,$05
     296.  00:5563  11 04               		db $11,$04
     297.  00:5565  11 03               		db $11,$03
     298.  00:5567                      .rst_i15:
     299.  00:5567  19 02               		db $19,$02
     300.  00:5569  67 55               		dw .rst_i15
     301.  00:556B                      .ins_16:						; SC Flute        
     302.  00:556B  48                  		db 72					; Waveform (was 12)
     303.  00:556C  11 0A               		db $11,$0A
     304.  00:556E  11 0B               		db $11,$0B
     305.  00:5570  11 0D               		db $11,$0D
     306.  00:5572  11 0C               		db $11,$0C
     307.  00:5574  11 0E               		db $11,$0E
     308.  00:5576  11 0E               		db $11,$0E
     309.  00:5578  11 0E               		db $11,$0E
     310.  00:557A  11 0E               		db $11,$0E
     311.  00:557C                      .rst_i16:
     312.  00:557C  19 0E               		db $19,$0E
     313.  00:557E  7C 55               		dw .rst_i16
     314.  00:5580                      .ins_17:						; SC Flute2       
     315.  00:5580                      .ins_18:						; SC HI HITS      
     316.  00:5580  20                  		db 32					; Waveform (was 5)
     317.  00:5581  11 0F               		db $11,$0F
     318.  00:5583  11 0C               		db $11,$0C
     319.  00:5585  11 0C               		db $11,$0C
     320.  00:5587  11 0A               		db $11,$0A
     321.  00:5589  11 09               		db $11,$09
     322.  00:558B  11 07               		db $11,$07
     323.  00:558D  11 06               		db $11,$06
     324.  00:558F  11 04               		db $11,$04
     325.  00:5591  11 02               		db $11,$02
     326.  00:5593                      .rst_i18:
     327.  00:5593  19 02               		db $19,$02
     328.  00:5595  93 55               		dw .rst_i18
     329.  00:5597                      .ins_19:						; SC Sawlead      
     330.  00:5597                      .ins_20:						; SC Brass        
     331.  00:5597  38                  		db 56					; Waveform (was 10)
     332.  00:5598  11 0F               		db $11,$0F
     333.  00:559A  11 0D               		db $11,$0D
     334.  00:559C  11 0D               		db $11,$0D
     335.  00:559E  11 0D               		db $11,$0D
     336.  00:55A0  11 0D               		db $11,$0D
     337.  00:55A2  11 0D               		db $11,$0D
     338.  00:55A4  11 0D               		db $11,$0D
     339.  00:55A6  11 0D               		db $11,$0D
     340.  00:55A8                      .rst_i20:
     341.  00:55A8  19 0D               		db $19,$0D
     342.  00:55AA  A8 55               		dw .rst_i20
     343.  00:55AC                      .ins_21:						; SD Tom          
     344.  00:55AC  40                  		db 64					; Waveform (was 11)
     345.  00:55AD  15 0F 2A 00         		db $15,$0F,$2A,$00
     346.  00:55B1  15 0C 2A 00         		db $15,$0C,$2A,$00
     347.  00:55B5                      .rst_i21:
     348.  00:55B5  14 2A 00            		db $14,$2A,$00
     349.  00:55B8  1F FF 2A 00         		db $1F,$FF,$2A,$00
     350.  00:55BC  B5 55               		dw .rst_i21
     351.  00:55BE                      .ins_22:						; SC Bass         
     352.  00:55BE                      .ins_23:						; SC Snake OD Gtr 
     353.  00:55BE                      .ins_24:						; SC SlowStringsnk
     354.  00:55BE  30                  		db 48					; Waveform (was 7)
     355.  00:55BF  11 06               		db $11,$06
     356.  00:55C1  11 07               		db $11,$07
     357.  00:55C3  11 08               		db $11,$08
     358.  00:55C5  11 09               		db $11,$09
     359.  00:55C7  11 0A               		db $11,$0A
     360.  00:55C9  11 0A               		db $11,$0A
     361.  00:55CB  11 0B               		db $11,$0B
     362.  00:55CD  11 0B               		db $11,$0B
     363.  00:55CF  11 0C               		db $11,$0C
     364.  00:55D1  11 0D               		db $11,$0D
     365.  00:55D3  11 0E               		db $11,$0E
     366.  00:55D5  11 0F               		db $11,$0F
     367.  00:55D7  11 0F               		db $11,$0F
     368.  00:55D9  11 0F               		db $11,$0F
     369.  00:55DB  11 0F               		db $11,$0F
     370.  00:55DD  11 0F               		db $11,$0F
     371.  00:55DF  11 0F               		db $11,$0F
     372.  00:55E1  11 0F               		db $11,$0F
     373.  00:55E3  11 0F               		db $11,$0F
     374.  00:55E5  11 0F               		db $11,$0F
     375.  00:55E7  11 0F               		db $11,$0F
     376.  00:55E9  11 0F               		db $11,$0F
     377.  00:55EB                      .rst_i24:
     378.  00:55EB  15 0F 01 00         		db $15,$0F,$01,$00
     379.  00:55EF  15 0F 01 00         		db $15,$0F,$01,$00
     380.  00:55F3  15 0F 01 00         		db $15,$0F,$01,$00
     381.  00:55F7  15 0F 01 00         		db $15,$0F,$01,$00
     382.  00:55FB  15 0F 01 00         		db $15,$0F,$01,$00
     383.  00:55FF  15 0F FF FF         		db $15,$0F,$FF,$FF
     384.  00:5603  15 0F FF FF         		db $15,$0F,$FF,$FF
     385.  00:5607  15 0F FF FF         		db $15,$0F,$FF,$FF
     386.  00:560B  15 0F FF FF         		db $15,$0F,$FF,$FF
     387.  00:560F  1D 0F FF FF         		db $1D,$0F,$FF,$FF
     388.  00:5613  EB 55               		dw .rst_i24
     389.  00:5615                      .ins_25:						; SC String solid 
     390.  00:5615                      .ins_26:						; SC Piano3       
     391.  00:5615  58                  		db 88					; Waveform (was 16)
     392.  00:5616  11 0F               		db $11,$0F
     393.  00:5618  11 0E               		db $11,$0E
     394.  00:561A  11 0D               		db $11,$0D
     395.  00:561C  11 0D               		db $11,$0D
     396.  00:561E  11 0D               		db $11,$0D
     397.  00:5620  11 0D               		db $11,$0D
     398.  00:5622  11 0D               		db $11,$0D
     399.  00:5624  11 0C               		db $11,$0C
     400.  00:5626  11 0C               		db $11,$0C
     401.  00:5628  11 0B               		db $11,$0B
     402.  00:562A  11 0B               		db $11,$0B
     403.  00:562C  11 0A               		db $11,$0A
     404.  00:562E  11 09               		db $11,$09
     405.  00:5630  11 08               		db $11,$08
     406.  00:5632  11 07               		db $11,$07
     407.  00:5634  11 06               		db $11,$06
     408.  00:5636  11 05               		db $11,$05
     409.  00:5638  11 04               		db $11,$04
     410.  00:563A  11 03               		db $11,$03
     411.  00:563C                      .rst_i26:
     412.  00:563C  19 02               		db $19,$02
     413.  00:563E  3C 56               		dw .rst_i26
     414.  00:5640                      .ins_27:						; SC Piano solid  
     415.  00:5640  18                  		db 24					; Waveform (was 4)
     416.  00:5641  11 0F               		db $11,$0F
     417.  00:5643  11 0A               		db $11,$0A
     418.  00:5645  11 0A               		db $11,$0A
     419.  00:5647  11 0A               		db $11,$0A
     420.  00:5649  11 0A               		db $11,$0A
     421.  00:564B  11 0A               		db $11,$0A
     422.  00:564D  11 0A               		db $11,$0A
     423.  00:564F  11 09               		db $11,$09
     424.  00:5651                      .rst_i27:
     425.  00:5651  39 09               		db $39,$09
     426.  00:5653  51 56               		dw .rst_i27
     427.  00:5655                      .ins_28:						; SC Piano sol LOW
     428.  00:5655                      .ins_29:						; SC Pian SnakeLOW
     429.  00:5655                      .ins_30:						; SC Mantabrass sn
     430.  00:5655                      .ins_31:						; SC Brass Snend  
     431.  00:5655  50                  		db 80					; Waveform (was 14)
     432.  00:5656  11 0F               		db $11,$0F
     433.  00:5658  11 0D               		db $11,$0D
     434.  00:565A  11 0C               		db $11,$0C
     435.  00:565C  11 0C               		db $11,$0C
     436.  00:565E  11 0A               		db $11,$0A
     437.  00:5660  11 08               		db $11,$08
     438.  00:5662                      .rst_i31:
     439.  00:5662  19 08               		db $19,$08
     440.  00:5664  62 56               		dw .rst_i31
     441.  00:5666                      
     442.  00:5666                      ; [ Song track data ]
     443.  00:5666                      .track_0:
     444.  00:5666  12                  	db $12		;[Note] 19
     445.  00:5667  6F                  	db $6F		;[Volume] 15
     446.  00:5668  70                  	db $70		;[Instrument] 1
     447.  00:5669  C1                  	db $C1		;[Wait] 2
     448.  00:566A  5F                  	db $5F		;[Note] 96
     449.  00:566B  6E                  	db $6E		;[Volume] 14
     450.  00:566C  72                  	db $72		;[Instrument] 3
     451.  00:566D  C0                  	db $C0		;[Wait] 1
     452.  00:566E  5F                  	db $5F		;[Note] 96
     453.  00:566F  6D                  	db $6D		;[Volume] 13
     454.  00:5670                      				;[Skip delay] 1
     455.  00:5670  5F                  	db $5F		;[Note] 96
     456.  00:5671  6E                  	db $6E		;[Volume] 14
     457.  00:5672  C1                  	db $C1		;[Wait] 2
     458.  00:5673  5F                  	db $5F		;[Note] 96
     459.  00:5674  73                  	db $73		;[Instrument] 4
     460.  00:5675                      				;[Skip delay] 2
     461.  00:5675  12                  	db $12		;[Note] 19
     462.  00:5676  6F                  	db $6F		;[Volume] 15
     463.  00:5677  70                  	db $70		;[Instrument] 1
     464.  00:5678                      				;[Skip delay] 2
     465.  00:5678  5F                  	db $5F		;[Note] 96
     466.  00:5679  6E                  	db $6E		;[Volume] 14
     467.  00:567A  72                  	db $72		;[Instrument] 3
     468.  00:567B                      				;[Skip delay] 2
     469.  00:567B  5F                  	db $5F		;[Note] 96
     470.  00:567C  6D                  	db $6D		;[Volume] 13
     471.  00:567D  C0                  	db $C0		;[Wait] 1
     472.  00:567E  60                  	db $60		;[Note] 97
     473.  00:567F                      				;[Skip delay] 1
     474.  00:567F  12                  	db $12		;[Note] 19
     475.  00:5680  70                  	db $70		;[Instrument] 1
     476.  00:5681  C1                  	db $C1		;[Wait] 2
     477.  00:5682  5F                  	db $5F		;[Note] 96
     478.  00:5683  6E                  	db $6E		;[Volume] 14
     479.  00:5684  72                  	db $72		;[Instrument] 3
     480.  00:5685                      				;[Skip delay] 2
     481.  00:5685  5F                  	db $5F		;[Note] 96
     482.  00:5686  73                  	db $73		;[Instrument] 4
     483.  00:5687                      				;[Skip delay] 2
     484.  00:5687  12                  	db $12		;[Note] 19
     485.  00:5688  70                  	db $70		;[Instrument] 1
     486.  00:5689                      				;[Skip delay] 2
     487.  00:5689  5F                  	db $5F		;[Note] 96
     488.  00:568A  72                  	db $72		;[Instrument] 3
     489.  00:568B                      				;[Skip delay] 2
     490.  00:568B  5F                  	db $5F		;[Note] 96
     491.  00:568C                      				;[Skip delay] 2
     492.  00:568C  5F                  	db $5F		;[Note] 96
     493.  00:568D  C0                  	db $C0		;[Wait] 1
     494.  00:568E  5F                  	db $5F		;[Note] 96
     495.  00:568F  6D                  	db $6D		;[Volume] 13
     496.  00:5690                      				;[Skip delay] 1
     497.  00:5690  5F                  	db $5F		;[Note] 96
     498.  00:5691  6E                  	db $6E		;[Volume] 14
     499.  00:5692  C1                  	db $C1		;[Wait] 2
     500.  00:5693  5F                  	db $5F		;[Note] 96
     501.  00:5694                      				;[Skip delay] 2
     502.  00:5694  12                  	db $12		;[Note] 19
     503.  00:5695  6F                  	db $6F		;[Volume] 15
     504.  00:5696  70                  	db $70		;[Instrument] 1
     505.  00:5697                      				;[Skip delay] 2
     506.  00:5697  5F                  	db $5F		;[Note] 96
     507.  00:5698  6E                  	db $6E		;[Volume] 14
     508.  00:5699  72                  	db $72		;[Instrument] 3
     509.  00:569A  C0                  	db $C0		;[Wait] 1
     510.  00:569B  5F                  	db $5F		;[Note] 96
     511.  00:569C  6D                  	db $6D		;[Volume] 13
     512.  00:569D                      				;[Skip delay] 1
     513.  00:569D  5F                  	db $5F		;[Note] 96
     514.  00:569E  6E                  	db $6E		;[Volume] 14
     515.  00:569F  C1                  	db $C1		;[Wait] 2
     516.  00:56A0  5F                  	db $5F		;[Note] 96
     517.  00:56A1  73                  	db $73		;[Instrument] 4
     518.  00:56A2                      				;[Skip delay] 2
     519.  00:56A2  1F                  	db $1F		;[Note] 32
     520.  00:56A3  6F                  	db $6F		;[Volume] 15
     521.  00:56A4  71                  	db $71		;[Instrument] 2
     522.  00:56A5                      				;[Skip delay] 2
     523.  00:56A5  5F                  	db $5F		;[Note] 96
     524.  00:56A6  6D                  	db $6D		;[Volume] 13
     525.  00:56A7  72                  	db $72		;[Instrument] 3
     526.  00:56A8                      				;[Skip delay] 2
     527.  00:56A8  5F                  	db $5F		;[Note] 96
     528.  00:56A9  6A                  	db $6A		;[Volume] 10
     529.  00:56AA  C0                  	db $C0		;[Wait] 1
     530.  00:56AB  60                  	db $60		;[Note] 97
     531.  00:56AC                      				;[Skip delay] 1
     532.  00:56AC  12                  	db $12		;[Note] 19
     533.  00:56AD  6F                  	db $6F		;[Volume] 15
     534.  00:56AE  70                  	db $70		;[Instrument] 1
     535.  00:56AF  C1                  	db $C1		;[Wait] 2
     536.  00:56B0  5F                  	db $5F		;[Note] 96
     537.  00:56B1  6D                  	db $6D		;[Volume] 13
     538.  00:56B2  72                  	db $72		;[Instrument] 3
     539.  00:56B3                      				;[Skip delay] 2
     540.  00:56B3  5F                  	db $5F		;[Note] 96
     541.  00:56B4  73                  	db $73		;[Instrument] 4
     542.  00:56B5                      				;[Skip delay] 2
     543.  00:56B5  12                  	db $12		;[Note] 19
     544.  00:56B6  70                  	db $70		;[Instrument] 1
     545.  00:56B7                      				;[Skip delay] 2
     546.  00:56B7  5F                  	db $5F		;[Note] 96
     547.  00:56B8  72                  	db $72		;[Instrument] 3
     548.  00:56B9                      				;[Skip delay] 2
     549.  00:56B9  5F                  	db $5F		;[Note] 96
     550.  00:56BA                      				;[Skip delay] 2
     551.  00:56BA  5F                  	db $5F		;[Note] 96
     552.  00:56BB  C0                  	db $C0		;[Wait] 1
     553.  00:56BC  5F                  	db $5F		;[Note] 96
     554.  00:56BD  6B                  	db $6B		;[Volume] 11
     555.  00:56BE                      				;[Skip delay] 1
     556.  00:56BE  23                  	db $23		;[Note] 36
     557.  00:56BF  6F                  	db $6F		;[Volume] 15
     558.  00:56C0  75                  	db $75		;[Instrument] 6
     559.  00:56C1  C1                  	db $C1		;[Wait] 2
     560.  00:56C2  1D                  	db $1D		;[Note] 30
     561.  00:56C3  C0                  	db $C0		;[Wait] 1
     562.  00:56C4  15                  	db $15		;[Note] 22
     563.  00:56C5                      				;[Skip delay] 1
     564.  00:56C5  BF                  	db $BF		;[End-Of-Track]
     565.  00:56C6                      .track_1:
     566.  00:56C6  18                  	db $18		;[Note] 25
     567.  00:56C7  6F                  	db $6F		;[Volume] 15
     568.  00:56C8  76                  	db $76		;[Instrument] 7
     569.  00:56C9  95 00               	db $95, $00	; track detune
     570.  00:56CB  C0                  	db $C0		;[Wait] 1
     571.  00:56CC  94 01               	db $94, $01	; vibrato control
     572.  00:56CE                      				;[Skip delay] 1
     573.  00:56CE  13                  	db $13		;[Note] 20
     574.  00:56CF  C1                  	db $C1		;[Wait] 2
     575.  00:56D0  15                  	db $15		;[Note] 22
     576.  00:56D1                      				;[Skip delay] 2
     577.  00:56D1  18                  	db $18		;[Note] 25
     578.  00:56D2  C0                  	db $C0		;[Wait] 1
     579.  00:56D3  A7 55               	db $A7, $55	;[CMD vibrato]
     580.  00:56D5                      				;[Skip delay] 1
     581.  00:56D5  B1 02               	db $B1, $02	;[CMD vibrato] rep
     582.  00:56D7  C1                  	db $C1		;[Wait] 2
     583.  00:56D8  13                  	db $13		;[Note] 20
     584.  00:56D9                      				;[Skip delay] 2
     585.  00:56D9  15                  	db $15		;[Note] 22
     586.  00:56DA                      				;[Skip delay] 2
     587.  00:56DA  16                  	db $16		;[Note] 23
     588.  00:56DB  C2                  	db $C2		;[Wait] 3
     589.  00:56DC  6B                  	db $6B		;[Volume] 11
     590.  00:56DD  C0                  	db $C0		;[Wait] 1
     591.  00:56DE  16                  	db $16		;[Note] 23
     592.  00:56DF  6F                  	db $6F		;[Volume] 15
     593.  00:56E0  C1                  	db $C1		;[Wait] 2
     594.  00:56E1  15                  	db $15		;[Note] 22
     595.  00:56E2  C3                  	db $C3		;[Wait] 4
     596.  00:56E3  13                  	db $13		;[Note] 20
     597.  00:56E4  C1                  	db $C1		;[Wait] 2
     598.  00:56E5  11                  	db $11		;[Note] 18
     599.  00:56E6  C3                  	db $C3		;[Wait] 4
     600.  00:56E7  13                  	db $13		;[Note] 20
     601.  00:56E8  C1                  	db $C1		;[Wait] 2
     602.  00:56E9  15                  	db $15		;[Note] 22
     603.  00:56EA                      				;[Skip delay] 2
     604.  00:56EA  15                  	db $15		;[Note] 22
     605.  00:56EB                      				;[Skip delay] 2
     606.  00:56EB  15                  	db $15		;[Note] 22
     607.  00:56EC                      				;[Skip delay] 2
     608.  00:56EC  15                  	db $15		;[Note] 22
     609.  00:56ED                      				;[Skip delay] 2
     610.  00:56ED  13                  	db $13		;[Note] 20
     611.  00:56EE                      				;[Skip delay] 2
     612.  00:56EE  13                  	db $13		;[Note] 20
     613.  00:56EF                      				;[Skip delay] 2
     614.  00:56EF  13                  	db $13		;[Note] 20
     615.  00:56F0                      				;[Skip delay] 2
     616.  00:56F0  13                  	db $13		;[Note] 20
     617.  00:56F1                      				;[Skip delay] 2
     618.  00:56F1  11                  	db $11		;[Note] 18
     619.  00:56F2                      				;[Skip delay] 2
     620.  00:56F2  11                  	db $11		;[Note] 18
     621.  00:56F3                      				;[Skip delay] 2
     622.  00:56F3  11                  	db $11		;[Note] 18
     623.  00:56F4                      				;[Skip delay] 2
     624.  00:56F4  11                  	db $11		;[Note] 18
     625.  00:56F5                      				;[Skip delay] 2
     626.  00:56F5  11                  	db $11		;[Note] 18
     627.  00:56F6                      				;[Skip delay] 2
     628.  00:56F6  11                  	db $11		;[Note] 18
     629.  00:56F7  C0                  	db $C0		;[Wait] 1
     630.  00:56F8  11                  	db $11		;[Note] 18
     631.  00:56F9                      				;[Skip delay] 1
     632.  00:56F9  13                  	db $13		;[Note] 20
     633.  00:56FA  C1                  	db $C1		;[Wait] 2
     634.  00:56FB  13                  	db $13		;[Note] 20
     635.  00:56FC  C0                  	db $C0		;[Wait] 1
     636.  00:56FD  13                  	db $13		;[Note] 20
     637.  00:56FE                      				;[Skip delay] 1
     638.  00:56FE  BF                  	db $BF		;[End-Of-Track]
     639.  00:56FF                      .track_2:
     640.  00:56FF  1F                  	db $1F		;[Note] 32
     641.  00:5700  6B                  	db $6B		;[Volume] 11
     642.  00:5701  78                  	db $78		;[Instrument] 9
     643.  00:5702  95 00               	db $95, $00	; track detune
     644.  00:5704  C0                  	db $C0		;[Wait] 1
     645.  00:5705  6C                  	db $6C		;[Volume] 12
     646.  00:5706  94 01               	db $94, $01	; vibrato control
     647.  00:5708  C4                  	db $C4		;[Wait] 5
     648.  00:5709  24                  	db $24		;[Note] 37
     649.  00:570A  C9                  	db $C9		;[Wait] 10
     650.  00:570B  1F                  	db $1F		;[Note] 32
     651.  00:570C  C7                  	db $C7		;[Wait] 8
     652.  00:570D  26                  	db $26		;[Note] 39
     653.  00:570E  C5                  	db $C5		;[Wait] 6
     654.  00:570F  60                  	db $60		;[Note] 97
     655.  00:5710  C1                  	db $C1		;[Wait] 2
     656.  00:5711  09                  	db $09		;[Note] 10
     657.  00:5712  76                  	db $76		;[Instrument] 7
     658.  00:5713                      				;[Skip delay] 2
     659.  00:5713  09                  	db $09		;[Note] 10
     660.  00:5714                      				;[Skip delay] 2
     661.  00:5714  09                  	db $09		;[Note] 10
     662.  00:5715                      				;[Skip delay] 2
     663.  00:5715  09                  	db $09		;[Note] 10
     664.  00:5716                      				;[Skip delay] 2
     665.  00:5716  07                  	db $07		;[Note] 8
     666.  00:5717  6F                  	db $6F		;[Volume] 15
     667.  00:5718                      				;[Skip delay] 2
     668.  00:5718  07                  	db $07		;[Note] 8
     669.  00:5719                      				;[Skip delay] 2
     670.  00:5719  07                  	db $07		;[Note] 8
     671.  00:571A                      				;[Skip delay] 2
     672.  00:571A  07                  	db $07		;[Note] 8
     673.  00:571B                      				;[Skip delay] 2
     674.  00:571B  05                  	db $05		;[Note] 6
     675.  00:571C                      				;[Skip delay] 2
     676.  00:571C  05                  	db $05		;[Note] 6
     677.  00:571D                      				;[Skip delay] 2
     678.  00:571D  05                  	db $05		;[Note] 6
     679.  00:571E                      				;[Skip delay] 2
     680.  00:571E  05                  	db $05		;[Note] 6
     681.  00:571F                      				;[Skip delay] 2
     682.  00:571F  05                  	db $05		;[Note] 6
     683.  00:5720  C0                  	db $C0		;[Wait] 1
     684.  00:5721  6E                  	db $6E		;[Volume] 14
     685.  00:5722                      				;[Skip delay] 1
     686.  00:5722  05                  	db $05		;[Note] 6
     687.  00:5723  6D                  	db $6D		;[Volume] 13
     688.  00:5724                      				;[Skip delay] 1
     689.  00:5724  05                  	db $05		;[Note] 6
     690.  00:5725  6B                  	db $6B		;[Volume] 11
     691.  00:5726                      				;[Skip delay] 1
     692.  00:5726  07                  	db $07		;[Note] 8
     693.  00:5727  6A                  	db $6A		;[Volume] 10
     694.  00:5728  C1                  	db $C1		;[Wait] 2
     695.  00:5729  07                  	db $07		;[Note] 8
     696.  00:572A  C0                  	db $C0		;[Wait] 1
     697.  00:572B  07                  	db $07		;[Note] 8
     698.  00:572C                      				;[Skip delay] 1
     699.  00:572C  BF                  	db $BF		;[End-Of-Track]
     700.  00:572D                      .track_3:
     701.  00:572D  18                  	db $18		;[Note] 25
     702.  00:572E  6F                  	db $6F		;[Volume] 15
     703.  00:572F  79                  	db $79		;[Instrument] 10
     704.  00:5730  95 00               	db $95, $00	; track detune
     705.  00:5732  C0                  	db $C0		;[Wait] 1
     706.  00:5733  94 01               	db $94, $01	; vibrato control
     707.  00:5735                      				;[Skip delay] 1
     708.  00:5735  13                  	db $13		;[Note] 20
     709.  00:5736  C1                  	db $C1		;[Wait] 2
     710.  00:5737  15                  	db $15		;[Note] 22
     711.  00:5738                      				;[Skip delay] 2
     712.  00:5738  18                  	db $18		;[Note] 25
     713.  00:5739  C3                  	db $C3		;[Wait] 4
     714.  00:573A  13                  	db $13		;[Note] 20
     715.  00:573B  C1                  	db $C1		;[Wait] 2
     716.  00:573C  15                  	db $15		;[Note] 22
     717.  00:573D                      				;[Skip delay] 2
     718.  00:573D  16                  	db $16		;[Note] 23
     719.  00:573E  C3                  	db $C3		;[Wait] 4
     720.  00:573F  16                  	db $16		;[Note] 23
     721.  00:5740  C1                  	db $C1		;[Wait] 2
     722.  00:5741  15                  	db $15		;[Note] 22
     723.  00:5742  C3                  	db $C3		;[Wait] 4
     724.  00:5743  13                  	db $13		;[Note] 20
     725.  00:5744  C1                  	db $C1		;[Wait] 2
     726.  00:5745  11                  	db $11		;[Note] 18
     727.  00:5746  C3                  	db $C3		;[Wait] 4
     728.  00:5747  13                  	db $13		;[Note] 20
     729.  00:5748  C1                  	db $C1		;[Wait] 2
     730.  00:5749  15                  	db $15		;[Note] 22
     731.  00:574A                      				;[Skip delay] 2
     732.  00:574A  15                  	db $15		;[Note] 22
     733.  00:574B                      				;[Skip delay] 2
     734.  00:574B  15                  	db $15		;[Note] 22
     735.  00:574C                      				;[Skip delay] 2
     736.  00:574C  15                  	db $15		;[Note] 22
     737.  00:574D                      				;[Skip delay] 2
     738.  00:574D  13                  	db $13		;[Note] 20
     739.  00:574E                      				;[Skip delay] 2
     740.  00:574E  13                  	db $13		;[Note] 20
     741.  00:574F                      				;[Skip delay] 2
     742.  00:574F  13                  	db $13		;[Note] 20
     743.  00:5750                      				;[Skip delay] 2
     744.  00:5750  13                  	db $13		;[Note] 20
     745.  00:5751                      				;[Skip delay] 2
     746.  00:5751  11                  	db $11		;[Note] 18
     747.  00:5752                      				;[Skip delay] 2
     748.  00:5752  11                  	db $11		;[Note] 18
     749.  00:5753                      				;[Skip delay] 2
     750.  00:5753  11                  	db $11		;[Note] 18
     751.  00:5754                      				;[Skip delay] 2
     752.  00:5754  11                  	db $11		;[Note] 18
     753.  00:5755                      				;[Skip delay] 2
     754.  00:5755  11                  	db $11		;[Note] 18
     755.  00:5756                      				;[Skip delay] 2
     756.  00:5756  11                  	db $11		;[Note] 18
     757.  00:5757  C0                  	db $C0		;[Wait] 1
     758.  00:5758  11                  	db $11		;[Note] 18
     759.  00:5759                      				;[Skip delay] 1
     760.  00:5759  13                  	db $13		;[Note] 20
     761.  00:575A  C1                  	db $C1		;[Wait] 2
     762.  00:575B  13                  	db $13		;[Note] 20
     763.  00:575C  C0                  	db $C0		;[Wait] 1
     764.  00:575D  13                  	db $13		;[Note] 20
     765.  00:575E                      				;[Skip delay] 1
     766.  00:575E  BF                  	db $BF		;[End-Of-Track]
     767.  00:575F                      .track_4:
     768.  00:575F  28                  	db $28		;[Note] 41
     769.  00:5760  68                  	db $68		;[Volume] 8
     770.  00:5761  89                  	db $89		;[Instrument] 26
     771.  00:5762  95 00               	db $95, $00	; track detune
     772.  00:5764  C0                  	db $C0		;[Wait] 1
     773.  00:5765  94 01               	db $94, $01	; vibrato control
     774.  00:5767                      				;[Skip delay] 1
     775.  00:5767  26                  	db $26		;[Note] 39
     776.  00:5768  C1                  	db $C1		;[Wait] 2
     777.  00:5769  26                  	db $26		;[Note] 39
     778.  00:576A                      				;[Skip delay] 2
     779.  00:576A  28                  	db $28		;[Note] 41
     780.  00:576B  C3                  	db $C3		;[Wait] 4
     781.  00:576C  24                  	db $24		;[Note] 37
     782.  00:576D  C1                  	db $C1		;[Wait] 2
     783.  00:576E  26                  	db $26		;[Note] 39
     784.  00:576F                      				;[Skip delay] 2
     785.  00:576F  28                  	db $28		;[Note] 41
     786.  00:5770                      				;[Skip delay] 2
     787.  00:5770  29                  	db $29		;[Note] 42
     788.  00:5771                      				;[Skip delay] 2
     789.  00:5771  28                  	db $28		;[Note] 41
     790.  00:5772                      				;[Skip delay] 2
     791.  00:5772  28                  	db $28		;[Note] 41
     792.  00:5773                      				;[Skip delay] 2
     793.  00:5773  29                  	db $29		;[Note] 42
     794.  00:5774  C3                  	db $C3		;[Wait] 4
     795.  00:5775  26                  	db $26		;[Note] 39
     796.  00:5776  C1                  	db $C1		;[Wait] 2
     797.  00:5777  28                  	db $28		;[Note] 41
     798.  00:5778                      				;[Skip delay] 2
     799.  00:5778  29                  	db $29		;[Note] 42
     800.  00:5779                      				;[Skip delay] 2
     801.  00:5779  28                  	db $28		;[Note] 41
     802.  00:577A                      				;[Skip delay] 2
     803.  00:577A  24                  	db $24		;[Note] 37
     804.  00:577B                      				;[Skip delay] 2
     805.  00:577B  30                  	db $30		;[Note] 49
     806.  00:577C                      				;[Skip delay] 2
     807.  00:577C  2D                  	db $2D		;[Note] 46
     808.  00:577D                      				;[Skip delay] 2
     809.  00:577D  2B                  	db $2B		;[Note] 44
     810.  00:577E  C3                  	db $C3		;[Wait] 4
     811.  00:577F  26                  	db $26		;[Note] 39
     812.  00:5780  C1                  	db $C1		;[Wait] 2
     813.  00:5781  26                  	db $26		;[Note] 39
     814.  00:5782                      				;[Skip delay] 2
     815.  00:5782  24                  	db $24		;[Note] 37
     816.  00:5783  C0                  	db $C0		;[Wait] 1
     817.  00:5784  1D                  	db $1D		;[Note] 30
     818.  00:5785                      				;[Skip delay] 1
     819.  00:5785  18                  	db $18		;[Note] 25
     820.  00:5786  C0                  	db $C0		;[Wait..] 1
     821.  00:5787  69                  	db $69		;[Volume] 9
     822.  00:5788                      				;[Skip delay] 1
     823.  00:5788  68                  	db $68		;[Volume] 8
     824.  00:5789                      				;[Skip delay] 1
     825.  00:5789  67                  	db $67		;[Volume] 7
     826.  00:578A                      				;[Skip delay] 1
     827.  00:578A  66                  	db $66		;[Volume] 6
     828.  00:578B                      				;[Skip delay] 1
     829.  00:578B  64                  	db $64		;[Volume] 4
     830.  00:578C                      				;[Skip delay] 1
     831.  00:578C  21                  	db $21		;[Note] 34
     832.  00:578D  6A                  	db $6A		;[Volume] 10
     833.  00:578E  81                  	db $81		;[Instrument] 18
     834.  00:578F  C1                  	db $C1		;[Wait] 2
     835.  00:5790  21                  	db $21		;[Note] 34
     836.  00:5791  C0                  	db $C0		;[Wait] 1
     837.  00:5792  21                  	db $21		;[Note] 34
     838.  00:5793                      				;[Skip delay] 1
     839.  00:5793  23                  	db $23		;[Note] 36
     840.  00:5794  C1                  	db $C1		;[Wait] 2
     841.  00:5795  23                  	db $23		;[Note] 36
     842.  00:5796  69                  	db $69		;[Volume] 9
     843.  00:5797  C0                  	db $C0		;[Wait] 1
     844.  00:5798  23                  	db $23		;[Note] 36
     845.  00:5799  67                  	db $67		;[Volume] 7
     846.  00:579A                      				;[Skip delay] 1
     847.  00:579A  BF                  	db $BF		;[End-Of-Track]
     848.  00:579B                      .track_5:
     849.  00:579B  24                  	db $24		;[Note] 37
     850.  00:579C  6F                  	db $6F		;[Volume] 15
     851.  00:579D  87                  	db $87		;[Instrument] 24
     852.  00:579E  95 00               	db $95, $00	; track detune
     853.  00:57A0  C0                  	db $C0		;[Wait] 1
     854.  00:57A1  94 01               	db $94, $01	; vibrato control
     855.  00:57A3  C4                  	db $C4		;[Wait] 5
     856.  00:57A4  2B                  	db $2B		;[Note] 44
     857.  00:57A5  C4                  	db $C4		;[Wait..] 5
     858.  00:57A6  69                  	db $69		;[Volume] 9
     859.  00:57A7  C1                  	db $C1		;[Wait] 2
     860.  00:57A8  66                  	db $66		;[Volume] 6
     861.  00:57A9  C0                  	db $C0		;[Wait] 1
     862.  00:57AA  64                  	db $64		;[Volume] 4
     863.  00:57AB                      				;[Skip delay] 1
     864.  00:57AB  63                  	db $63		;[Volume] 3
     865.  00:57AC                      				;[Skip delay] 1
     866.  00:57AC  22                  	db $22		;[Note] 35
     867.  00:57AD  66                  	db $66		;[Volume] 6
     868.  00:57AE  C1                  	db $C1		;[Wait] 2
     869.  00:57AF  68                  	db $68		;[Volume] 8
     870.  00:57B0  C0                  	db $C0		;[Wait] 1
     871.  00:57B1  69                  	db $69		;[Volume] 9
     872.  00:57B2  C4                  	db $C4		;[Wait] 5
     873.  00:57B3  29                  	db $29		;[Note] 42
     874.  00:57B4  C4                  	db $C4		;[Wait..] 5
     875.  00:57B5  66                  	db $66		;[Volume] 6
     876.  00:57B6  C0                  	db $C0		;[Wait] 1
     877.  00:57B7  65                  	db $65		;[Volume] 5
     878.  00:57B8                      				;[Skip delay] 1
     879.  00:57B8  64                  	db $64		;[Volume] 4
     880.  00:57B9                      				;[Skip delay] 1
     881.  00:57B9  24                  	db $24		;[Note] 37
     882.  00:57BA  68                  	db $68		;[Volume] 8
     883.  00:57BB  8E                  	db $8E		;[Instrument] 31
     884.  00:57BC  C1                  	db $C1		;[Wait] 2
     885.  00:57BD  A5 05               	db $A5, $05; slide-down
     886.  00:57BF  C0                  	db $C0		;[Wait] 1
     887.  00:57C0  AF 01               	db $AF, $01; slide-down rep
     888.  00:57C2                      				;[Skip delay] 1
     889.  00:57C2  1C                  	db $1C		;[Note] 29
     890.  00:57C3  C3                  	db $C3		;[Wait] 4
     891.  00:57C4  23                  	db $23		;[Note] 36
     892.  00:57C5  C1                  	db $C1		;[Wait] 2
     893.  00:57C6  A5 05               	db $A5, $05; slide-down
     894.  00:57C8  C0                  	db $C0		;[Wait] 1
     895.  00:57C9  AF 01               	db $AF, $01; slide-down rep
     896.  00:57CB                      				;[Skip delay] 1
     897.  00:57CB  1C                  	db $1C		;[Note] 29
     898.  00:57CC  C3                  	db $C3		;[Wait] 4
     899.  00:57CD  21                  	db $21		;[Note] 34
     900.  00:57CE                      				;[Skip delay] 4
     901.  00:57CE  18                  	db $18		;[Note] 25
     902.  00:57CF  C2                  	db $C2		;[Wait] 3
     903.  00:57D0  A7 55               	db $A7, $55	;[CMD vibrato]
     904.  00:57D2  C0                  	db $C0		;[Wait] 1
     905.  00:57D3  B1 05               	db $B1, $05	;[CMD vibrato] rep
     906.  00:57D5  C4                  	db $C4		;[Wait] 5
     907.  00:57D6  A5 10               	db $A5, $10; slide-down
     908.  00:57D8  C0                  	db $C0		;[Wait] 1
     909.  00:57D9  AF 02               	db $AF, $02; slide-down rep
     910.  00:57DB  C1                  	db $C1		;[Wait] 2
     911.  00:57DC  BF                  	db $BF		;[End-Of-Track]
     912.  00:57DD                      .track_6:
     913.  00:57DD  60                  	db $60		;[Note] 97
     914.  00:57DE  95 00               	db $95, $00	; track detune
     915.  00:57E0  C0                  	db $C0		;[Wait] 1
     916.  00:57E1  94 01               	db $94, $01	; vibrato control
     917.  00:57E3  C2                  	db $C2		;[Wait] 3
     918.  00:57E4  32                  	db $32		;[Note] 51
     919.  00:57E5  6D                  	db $6D		;[Volume] 13
     920.  00:57E6  7B                  	db $7B		;[Instrument] 12
     921.  00:57E7  C0                  	db $C0		;[Wait] 1
     922.  00:57E8  34                  	db $34		;[Note] 53
     923.  00:57E9  A6 10               	db $A6, $10; tone-slide
     924.  00:57EB                      				;[Skip delay] 1
     925.  00:57EB  30                  	db $30		;[Note] 49
     926.  00:57EC  C1                  	db $C1		;[Wait] 2
     927.  00:57ED  32                  	db $32		;[Note] 51
     928.  00:57EE                      				;[Skip delay] 2
     929.  00:57EE  37                  	db $37		;[Note] 56
     930.  00:57EF  C2                  	db $C2		;[Wait] 3
     931.  00:57F0  64                  	db $64		;[Volume] 4
     932.  00:57F1  C0                  	db $C0		;[Wait] 1
     933.  00:57F2  37                  	db $37		;[Note] 56
     934.  00:57F3  69                  	db $69		;[Volume] 9
     935.  00:57F4  C1                  	db $C1		;[Wait] 2
     936.  00:57F5  37                  	db $37		;[Note] 56
     937.  00:57F6  C2                  	db $C2		;[Wait] 3
     938.  00:57F7  A7 55               	db $A7, $55	;[CMD vibrato]
     939.  00:57F9  C0                  	db $C0		;[Wait] 1
     940.  00:57FA  B1 02               	db $B1, $02	;[CMD vibrato] rep
     941.  00:57FC  C1                  	db $C1		;[Wait] 2
     942.  00:57FD  35                  	db $35		;[Note] 54
     943.  00:57FE  6F                  	db $6F		;[Volume] 15
     944.  00:57FF  C0                  	db $C0		;[Wait] 1
     945.  00:5800  34                  	db $34		;[Note] 53
     946.  00:5801  6E                  	db $6E		;[Volume] 14
     947.  00:5802                      				;[Skip delay] 1
     948.  00:5802  32                  	db $32		;[Note] 51
     949.  00:5803  6D                  	db $6D		;[Volume] 13
     950.  00:5804  C2                  	db $C2		;[Wait] 3
     951.  00:5805  A7 56               	db $A7, $56	;[CMD vibrato]
     952.  00:5807  C0                  	db $C0		;[Wait] 1
     953.  00:5808  B1 03               	db $B1, $03	;[CMD vibrato] rep
     954.  00:580A  C1                  	db $C1		;[Wait] 2
     955.  00:580B  68                  	db $68		;[Volume] 8
     956.  00:580C  C0                  	db $C0		;[Wait] 1
     957.  00:580D  A7 55               	db $A7, $55	;[CMD vibrato]
     958.  00:580F                      				;[Skip delay] 1
     959.  00:580F  66                  	db $66		;[Volume] 6
     960.  00:5810  B1 01               	db $B1, $01	;[CMD vibrato] rep
     961.  00:5812                      				;[Skip delay] 1
     962.  00:5812  A5 10               	db $A5, $10; slide-down
     963.  00:5814                      				;[Skip delay] 1
     964.  00:5814  64                  	db $64		;[Volume] 4
     965.  00:5815  AF 02               	db $AF, $02; slide-down rep
     966.  00:5817                      				;[Skip delay] 1
     967.  00:5817  63                  	db $63		;[Volume] 3
     968.  00:5818                      				;[Skip delay] 1
     969.  00:5818  2D                  	db $2D		;[Note] 46
     970.  00:5819  6D                  	db $6D		;[Volume] 13
     971.  00:581A  C1                  	db $C1		;[Wait] 2
     972.  00:581B  34                  	db $34		;[Note] 53
     973.  00:581C                      				;[Skip delay] 2
     974.  00:581C  32                  	db $32		;[Note] 51
     975.  00:581D  C0                  	db $C0		;[Wait] 1
     976.  00:581E  A7 55               	db $A7, $55	;[CMD vibrato]
     977.  00:5820                      				;[Skip delay] 1
     978.  00:5820  B1 02               	db $B1, $02	;[CMD vibrato] rep
     979.  00:5822  C1                  	db $C1		;[Wait] 2
     980.  00:5823  30                  	db $30		;[Note] 49
     981.  00:5824                      				;[Skip delay] 2
     982.  00:5824  2F                  	db $2F		;[Note] 48
     983.  00:5825                      				;[Skip delay] 2
     984.  00:5825  30                  	db $30		;[Note] 49
     985.  00:5826  C0                  	db $C0		;[Wait] 1
     986.  00:5827  2F                  	db $2F		;[Note] 48
     987.  00:5828                      				;[Skip delay] 1
     988.  00:5828  2D                  	db $2D		;[Note] 46
     989.  00:5829  C4                  	db $C4		;[Wait] 5
     990.  00:582A  68                  	db $68		;[Volume] 8
     991.  00:582B  A7 55               	db $A7, $55	;[CMD vibrato]
     992.  00:582D  C0                  	db $C0		;[Wait] 1
     993.  00:582E  67                  	db $67		;[Volume] 7
     994.  00:582F  B1 08               	db $B1, $08	;[CMD vibrato] rep
     995.  00:5831                      				;[Skip delay] 1
     996.  00:5831  66                  	db $66		;[Volume] 6
     997.  00:5832                      				;[Skip delay] 1
     998.  00:5832  65                  	db $65		;[Volume] 5
     999.  00:5833                      				;[Skip delay] 1
    1000.  00:5833  64                  	db $64		;[Volume] 4
    1001.  00:5834                      				;[Skip delay] 1
    1002.  00:5834  62                  	db $62		;[Volume] 2
    1003.  00:5835  C3                  	db $C3		;[Wait] 4
    1004.  00:5836  BF                  	db $BF		;[End-Of-Track]
    1005.  00:5837                      .track_7:
    1006.  00:5837  60                  	db $60		;[Note] 97
    1007.  00:5838  95 08               	db $95, $08	; track detune
    1008.  00:583A  C5                  	db $C5		;[Wait] 6
    1009.  00:583B  32                  	db $32		;[Note] 51
    1010.  00:583C  65                  	db $65		;[Volume] 5
    1011.  00:583D  7B                  	db $7B		;[Instrument] 12
    1012.  00:583E  C0                  	db $C0		;[Wait] 1
    1013.  00:583F  34                  	db $34		;[Note] 53
    1014.  00:5840  A6 10               	db $A6, $10; tone-slide
    1015.  00:5842                      				;[Skip delay] 1
    1016.  00:5842  30                  	db $30		;[Note] 49
    1017.  00:5843  C1                  	db $C1		;[Wait] 2
    1018.  00:5844  32                  	db $32		;[Note] 51
    1019.  00:5845                      				;[Skip delay] 2
    1020.  00:5845  37                  	db $37		;[Note] 56
    1021.  00:5846  C3                  	db $C3		;[Wait] 4
    1022.  00:5847  37                  	db $37		;[Note] 56
    1023.  00:5848  C1                  	db $C1		;[Wait] 2
    1024.  00:5849  37                  	db $37		;[Note] 56
    1025.  00:584A  C5                  	db $C5		;[Wait] 6
    1026.  00:584B  35                  	db $35		;[Note] 54
    1027.  00:584C  C0                  	db $C0		;[Wait] 1
    1028.  00:584D  34                  	db $34		;[Note] 53
    1029.  00:584E                      				;[Skip delay] 1
    1030.  00:584E  32                  	db $32		;[Note] 51
    1031.  00:584F  C9                  	db $C9		;[Wait] 10
    1032.  00:5850  28                  	db $28		;[Note] 41
    1033.  00:5851  6D                  	db $6D		;[Volume] 13
    1034.  00:5852  95 00               	db $95, $00	; track detune
    1035.  00:5854  C1                  	db $C1		;[Wait] 2
    1036.  00:5855  30                  	db $30		;[Note] 49
    1037.  00:5856                      				;[Skip delay] 2
    1038.  00:5856  2B                  	db $2B		;[Note] 44
    1039.  00:5857  C3                  	db $C3		;[Wait] 4
    1040.  00:5858  2B                  	db $2B		;[Note] 44
    1041.  00:5859  C1                  	db $C1		;[Wait] 2
    1042.  00:585A  2B                  	db $2B		;[Note] 44
    1043.  00:585B                      				;[Skip delay] 2
    1044.  00:585B  29                  	db $29		;[Note] 42
    1045.  00:585C  C0                  	db $C0		;[Wait] 1
    1046.  00:585D  29                  	db $29		;[Note] 42
    1047.  00:585E                      				;[Skip delay] 1
    1048.  00:585E  21                  	db $21		;[Note] 34
    1049.  00:585F  C4                  	db $C4		;[Wait] 5
    1050.  00:5860  67                  	db $67		;[Volume] 7
    1051.  00:5861  C0                  	db $C0		;[Wait] 1
    1052.  00:5862  66                  	db $66		;[Volume] 6
    1053.  00:5863                      				;[Skip delay] 1
    1054.  00:5863  65                  	db $65		;[Volume] 5
    1055.  00:5864                      				;[Skip delay] 1
    1056.  00:5864  63                  	db $63		;[Volume] 3
    1057.  00:5865                      				;[Skip delay] 1
    1058.  00:5865  62                  	db $62		;[Volume] 2
    1059.  00:5866  C4                  	db $C4		;[Wait] 5
    1060.  00:5867  BF                  	db $BF		;[End-Of-Track]
    1061.  00:5868                      .track_8:
    1062.  00:5868  12                  	db $12		;[Note] 19
    1063.  00:5869  6F                  	db $6F		;[Volume] 15
    1064.  00:586A  70                  	db $70		;[Instrument] 1
    1065.  00:586B  C1                  	db $C1		;[Wait] 2
    1066.  00:586C  5F                  	db $5F		;[Note] 96
    1067.  00:586D  6E                  	db $6E		;[Volume] 14
    1068.  00:586E  72                  	db $72		;[Instrument] 3
    1069.  00:586F  C0                  	db $C0		;[Wait] 1
    1070.  00:5870  5F                  	db $5F		;[Note] 96
    1071.  00:5871  6D                  	db $6D		;[Volume] 13
    1072.  00:5872                      				;[Skip delay] 1
    1073.  00:5872  5F                  	db $5F		;[Note] 96
    1074.  00:5873  6E                  	db $6E		;[Volume] 14
    1075.  00:5874  C1                  	db $C1		;[Wait] 2
    1076.  00:5875  5F                  	db $5F		;[Note] 96
    1077.  00:5876  73                  	db $73		;[Instrument] 4
    1078.  00:5877                      				;[Skip delay] 2
    1079.  00:5877  12                  	db $12		;[Note] 19
    1080.  00:5878  6F                  	db $6F		;[Volume] 15
    1081.  00:5879  70                  	db $70		;[Instrument] 1
    1082.  00:587A                      				;[Skip delay] 2
    1083.  00:587A  5F                  	db $5F		;[Note] 96
    1084.  00:587B  6E                  	db $6E		;[Volume] 14
    1085.  00:587C  72                  	db $72		;[Instrument] 3
    1086.  00:587D                      				;[Skip delay] 2
    1087.  00:587D  5F                  	db $5F		;[Note] 96
    1088.  00:587E  6D                  	db $6D		;[Volume] 13
    1089.  00:587F  C0                  	db $C0		;[Wait] 1
    1090.  00:5880  60                  	db $60		;[Note] 97
    1091.  00:5881                      				;[Skip delay] 1
    1092.  00:5881  12                  	db $12		;[Note] 19
    1093.  00:5882  70                  	db $70		;[Instrument] 1
    1094.  00:5883  C1                  	db $C1		;[Wait] 2
    1095.  00:5884  5F                  	db $5F		;[Note] 96
    1096.  00:5885  6E                  	db $6E		;[Volume] 14
    1097.  00:5886  72                  	db $72		;[Instrument] 3
    1098.  00:5887                      				;[Skip delay] 2
    1099.  00:5887  5F                  	db $5F		;[Note] 96
    1100.  00:5888  73                  	db $73		;[Instrument] 4
    1101.  00:5889                      				;[Skip delay] 2
    1102.  00:5889  12                  	db $12		;[Note] 19
    1103.  00:588A  70                  	db $70		;[Instrument] 1
    1104.  00:588B                      				;[Skip delay] 2
    1105.  00:588B  5F                  	db $5F		;[Note] 96
    1106.  00:588C  72                  	db $72		;[Instrument] 3
    1107.  00:588D                      				;[Skip delay] 2
    1108.  00:588D  5F                  	db $5F		;[Note] 96
    1109.  00:588E                      				;[Skip delay] 2
    1110.  00:588E  5F                  	db $5F		;[Note] 96
    1111.  00:588F  C0                  	db $C0		;[Wait] 1
    1112.  00:5890  5F                  	db $5F		;[Note] 96
    1113.  00:5891  6D                  	db $6D		;[Volume] 13
    1114.  00:5892                      				;[Skip delay] 1
    1115.  00:5892  5F                  	db $5F		;[Note] 96
    1116.  00:5893  6E                  	db $6E		;[Volume] 14
    1117.  00:5894  C1                  	db $C1		;[Wait] 2
    1118.  00:5895  5F                  	db $5F		;[Note] 96
    1119.  00:5896                      				;[Skip delay] 2
    1120.  00:5896  12                  	db $12		;[Note] 19
    1121.  00:5897  6F                  	db $6F		;[Volume] 15
    1122.  00:5898  70                  	db $70		;[Instrument] 1
    1123.  00:5899                      				;[Skip delay] 2
    1124.  00:5899  5F                  	db $5F		;[Note] 96
    1125.  00:589A  6E                  	db $6E		;[Volume] 14
    1126.  00:589B  72                  	db $72		;[Instrument] 3
    1127.  00:589C  C0                  	db $C0		;[Wait] 1
    1128.  00:589D  5F                  	db $5F		;[Note] 96
    1129.  00:589E  6D                  	db $6D		;[Volume] 13
    1130.  00:589F                      				;[Skip delay] 1
    1131.  00:589F  5F                  	db $5F		;[Note] 96
    1132.  00:58A0  6E                  	db $6E		;[Volume] 14
    1133.  00:58A1  C1                  	db $C1		;[Wait] 2
    1134.  00:58A2  5F                  	db $5F		;[Note] 96
    1135.  00:58A3  73                  	db $73		;[Instrument] 4
    1136.  00:58A4                      				;[Skip delay] 2
    1137.  00:58A4  1F                  	db $1F		;[Note] 32
    1138.  00:58A5  6F                  	db $6F		;[Volume] 15
    1139.  00:58A6  71                  	db $71		;[Instrument] 2
    1140.  00:58A7                      				;[Skip delay] 2
    1141.  00:58A7  5F                  	db $5F		;[Note] 96
    1142.  00:58A8  6D                  	db $6D		;[Volume] 13
    1143.  00:58A9  72                  	db $72		;[Instrument] 3
    1144.  00:58AA                      				;[Skip delay] 2
    1145.  00:58AA  5F                  	db $5F		;[Note] 96
    1146.  00:58AB  6A                  	db $6A		;[Volume] 10
    1147.  00:58AC  C0                  	db $C0		;[Wait] 1
    1148.  00:58AD  60                  	db $60		;[Note] 97
    1149.  00:58AE                      				;[Skip delay] 1
    1150.  00:58AE  12                  	db $12		;[Note] 19
    1151.  00:58AF  6F                  	db $6F		;[Volume] 15
    1152.  00:58B0  70                  	db $70		;[Instrument] 1
    1153.  00:58B1  C1                  	db $C1		;[Wait] 2
    1154.  00:58B2  5F                  	db $5F		;[Note] 96
    1155.  00:58B3  6E                  	db $6E		;[Volume] 14
    1156.  00:58B4  72                  	db $72		;[Instrument] 3
    1157.  00:58B5                      				;[Skip delay] 2
    1158.  00:58B5  1F                  	db $1F		;[Note] 32
    1159.  00:58B6  71                  	db $71		;[Instrument] 2
    1160.  00:58B7                      				;[Skip delay] 2
    1161.  00:58B7  1F                  	db $1F		;[Note] 32
    1162.  00:58B8  6F                  	db $6F		;[Volume] 15
    1163.  00:58B9                      				;[Skip delay] 2
    1164.  00:58B9  1F                  	db $1F		;[Note] 32
    1165.  00:58BA                      				;[Skip delay] 2
    1166.  00:58BA  1F                  	db $1F		;[Note] 32
    1167.  00:58BB                      				;[Skip delay] 2
    1168.  00:58BB  12                  	db $12		;[Note] 19
    1169.  00:58BC  70                  	db $70		;[Instrument] 1
    1170.  00:58BD  C0                  	db $C0		;[Wait] 1
    1171.  00:58BE  5F                  	db $5F		;[Note] 96
    1172.  00:58BF  6B                  	db $6B		;[Volume] 11
    1173.  00:58C0  72                  	db $72		;[Instrument] 3
    1174.  00:58C1                      				;[Skip delay] 1
    1175.  00:58C1  1F                  	db $1F		;[Note] 32
    1176.  00:58C2  6F                  	db $6F		;[Volume] 15
    1177.  00:58C3  71                  	db $71		;[Instrument] 2
    1178.  00:58C4  C1                  	db $C1		;[Wait] 2
    1179.  00:58C5  1F                  	db $1F		;[Note] 32
    1180.  00:58C6  C0                  	db $C0		;[Wait] 1
    1181.  00:58C7  1F                  	db $1F		;[Note] 32
    1182.  00:58C8                      				;[Skip delay] 1
    1183.  00:58C8  BF                  	db $BF		;[End-Of-Track]
    1184.  00:58C9                      .track_9:
    1185.  00:58C9  18                  	db $18		;[Note] 25
    1186.  00:58CA  6F                  	db $6F		;[Volume] 15
    1187.  00:58CB  76                  	db $76		;[Instrument] 7
    1188.  00:58CC  C1                  	db $C1		;[Wait] 2
    1189.  00:58CD  13                  	db $13		;[Note] 20
    1190.  00:58CE                      				;[Skip delay] 2
    1191.  00:58CE  15                  	db $15		;[Note] 22
    1192.  00:58CF                      				;[Skip delay] 2
    1193.  00:58CF  18                  	db $18		;[Note] 25
    1194.  00:58D0  C0                  	db $C0		;[Wait] 1
    1195.  00:58D1  A7 55               	db $A7, $55	;[CMD vibrato]
    1196.  00:58D3                      				;[Skip delay] 1
    1197.  00:58D3  B1 02               	db $B1, $02	;[CMD vibrato] rep
    1198.  00:58D5  C1                  	db $C1		;[Wait] 2
    1199.  00:58D6  13                  	db $13		;[Note] 20
    1200.  00:58D7                      				;[Skip delay] 2
    1201.  00:58D7  15                  	db $15		;[Note] 22
    1202.  00:58D8                      				;[Skip delay] 2
    1203.  00:58D8  16                  	db $16		;[Note] 23
    1204.  00:58D9  C2                  	db $C2		;[Wait] 3
    1205.  00:58DA  6B                  	db $6B		;[Volume] 11
    1206.  00:58DB  C0                  	db $C0		;[Wait] 1
    1207.  00:58DC  16                  	db $16		;[Note] 23
    1208.  00:58DD  6F                  	db $6F		;[Volume] 15
    1209.  00:58DE  C1                  	db $C1		;[Wait] 2
    1210.  00:58DF  15                  	db $15		;[Note] 22
    1211.  00:58E0  C3                  	db $C3		;[Wait] 4
    1212.  00:58E1  13                  	db $13		;[Note] 20
    1213.  00:58E2  C1                  	db $C1		;[Wait] 2
    1214.  00:58E3  11                  	db $11		;[Note] 18
    1215.  00:58E4  C3                  	db $C3		;[Wait] 4
    1216.  00:58E5  13                  	db $13		;[Note] 20
    1217.  00:58E6  C1                  	db $C1		;[Wait] 2
    1218.  00:58E7  15                  	db $15		;[Note] 22
    1219.  00:58E8                      				;[Skip delay] 2
    1220.  00:58E8  15                  	db $15		;[Note] 22
    1221.  00:58E9                      				;[Skip delay] 2
    1222.  00:58E9  15                  	db $15		;[Note] 22
    1223.  00:58EA                      				;[Skip delay] 2
    1224.  00:58EA  15                  	db $15		;[Note] 22
    1225.  00:58EB                      				;[Skip delay] 2
    1226.  00:58EB  13                  	db $13		;[Note] 20
    1227.  00:58EC                      				;[Skip delay] 2
    1228.  00:58EC  13                  	db $13		;[Note] 20
    1229.  00:58ED                      				;[Skip delay] 2
    1230.  00:58ED  13                  	db $13		;[Note] 20
    1231.  00:58EE                      				;[Skip delay] 2
    1232.  00:58EE  13                  	db $13		;[Note] 20
    1233.  00:58EF                      				;[Skip delay] 2
    1234.  00:58EF  11                  	db $11		;[Note] 18
    1235.  00:58F0                      				;[Skip delay] 2
    1236.  00:58F0  11                  	db $11		;[Note] 18
    1237.  00:58F1                      				;[Skip delay] 2
    1238.  00:58F1  11                  	db $11		;[Note] 18
    1239.  00:58F2                      				;[Skip delay] 2
    1240.  00:58F2  11                  	db $11		;[Note] 18
    1241.  00:58F3                      				;[Skip delay] 2
    1242.  00:58F3  11                  	db $11		;[Note] 18
    1243.  00:58F4                      				;[Skip delay] 2
    1244.  00:58F4  11                  	db $11		;[Note] 18
    1245.  00:58F5  C0                  	db $C0		;[Wait] 1
    1246.  00:58F6  11                  	db $11		;[Note] 18
    1247.  00:58F7                      				;[Skip delay] 1
    1248.  00:58F7  13                  	db $13		;[Note] 20
    1249.  00:58F8  C1                  	db $C1		;[Wait] 2
    1250.  00:58F9  13                  	db $13		;[Note] 20
    1251.  00:58FA  C0                  	db $C0		;[Wait] 1
    1252.  00:58FB  13                  	db $13		;[Note] 20
    1253.  00:58FC                      				;[Skip delay] 1
    1254.  00:58FC  BF                  	db $BF		;[End-Of-Track]
    1255.  00:58FD                      .track_10:
    1256.  00:58FD  1F                  	db $1F		;[Note] 32
    1257.  00:58FE  6C                  	db $6C		;[Volume] 12
    1258.  00:58FF  78                  	db $78		;[Instrument] 9
    1259.  00:5900  C0                  	db $C0		;[Wait] 1
    1260.  00:5901  6D                  	db $6D		;[Volume] 13
    1261.  00:5902  C4                  	db $C4		;[Wait] 5
    1262.  00:5903  24                  	db $24		;[Note] 37
    1263.  00:5904  C9                  	db $C9		;[Wait] 10
    1264.  00:5905  1F                  	db $1F		;[Note] 32
    1265.  00:5906  C7                  	db $C7		;[Wait] 8
    1266.  00:5907  26                  	db $26		;[Note] 39
    1267.  00:5908  C5                  	db $C5		;[Wait] 6
    1268.  00:5909  60                  	db $60		;[Note] 97
    1269.  00:590A  C1                  	db $C1		;[Wait] 2
    1270.  00:590B  09                  	db $09		;[Note] 10
    1271.  00:590C  76                  	db $76		;[Instrument] 7
    1272.  00:590D                      				;[Skip delay] 2
    1273.  00:590D  09                  	db $09		;[Note] 10
    1274.  00:590E                      				;[Skip delay] 2
    1275.  00:590E  09                  	db $09		;[Note] 10
    1276.  00:590F                      				;[Skip delay] 2
    1277.  00:590F  09                  	db $09		;[Note] 10
    1278.  00:5910                      				;[Skip delay] 2
    1279.  00:5910  07                  	db $07		;[Note] 8
    1280.  00:5911                      				;[Skip delay] 2
    1281.  00:5911  07                  	db $07		;[Note] 8
    1282.  00:5912                      				;[Skip delay] 2
    1283.  00:5912  07                  	db $07		;[Note] 8
    1284.  00:5913                      				;[Skip delay] 2
    1285.  00:5913  07                  	db $07		;[Note] 8
    1286.  00:5914                      				;[Skip delay] 2
    1287.  00:5914  05                  	db $05		;[Note] 6
    1288.  00:5915                      				;[Skip delay] 2
    1289.  00:5915  05                  	db $05		;[Note] 6
    1290.  00:5916                      				;[Skip delay] 2
    1291.  00:5916  05                  	db $05		;[Note] 6
    1292.  00:5917                      				;[Skip delay] 2
    1293.  00:5917  05                  	db $05		;[Note] 6
    1294.  00:5918                      				;[Skip delay] 2
    1295.  00:5918  05                  	db $05		;[Note] 6
    1296.  00:5919  C0                  	db $C0		;[Wait] 1
    1297.  00:591A  6E                  	db $6E		;[Volume] 14
    1298.  00:591B                      				;[Skip delay] 1
    1299.  00:591B  05                  	db $05		;[Note] 6
    1300.  00:591C  6D                  	db $6D		;[Volume] 13
    1301.  00:591D                      				;[Skip delay] 1
    1302.  00:591D  05                  	db $05		;[Note] 6
    1303.  00:591E  6B                  	db $6B		;[Volume] 11
    1304.  00:591F                      				;[Skip delay] 1
    1305.  00:591F  07                  	db $07		;[Note] 8
    1306.  00:5920  6A                  	db $6A		;[Volume] 10
    1307.  00:5921  C1                  	db $C1		;[Wait] 2
    1308.  00:5922  07                  	db $07		;[Note] 8
    1309.  00:5923  C0                  	db $C0		;[Wait] 1
    1310.  00:5924  07                  	db $07		;[Note] 8
    1311.  00:5925                      				;[Skip delay] 1
    1312.  00:5925  BF                  	db $BF		;[End-Of-Track]
    1313.  00:5926                      .track_11:
    1314.  00:5926  18                  	db $18		;[Note] 25
    1315.  00:5927  79                  	db $79		;[Instrument] 10
    1316.  00:5928  C1                  	db $C1		;[Wait] 2
    1317.  00:5929  13                  	db $13		;[Note] 20
    1318.  00:592A                      				;[Skip delay] 2
    1319.  00:592A  15                  	db $15		;[Note] 22
    1320.  00:592B                      				;[Skip delay] 2
    1321.  00:592B  18                  	db $18		;[Note] 25
    1322.  00:592C  C3                  	db $C3		;[Wait] 4
    1323.  00:592D  13                  	db $13		;[Note] 20
    1324.  00:592E  C1                  	db $C1		;[Wait] 2
    1325.  00:592F  15                  	db $15		;[Note] 22
    1326.  00:5930                      				;[Skip delay] 2
    1327.  00:5930  16                  	db $16		;[Note] 23
    1328.  00:5931  C3                  	db $C3		;[Wait] 4
    1329.  00:5932  16                  	db $16		;[Note] 23
    1330.  00:5933  C1                  	db $C1		;[Wait] 2
    1331.  00:5934  15                  	db $15		;[Note] 22
    1332.  00:5935  C3                  	db $C3		;[Wait] 4
    1333.  00:5936  13                  	db $13		;[Note] 20
    1334.  00:5937  C1                  	db $C1		;[Wait] 2
    1335.  00:5938  11                  	db $11		;[Note] 18
    1336.  00:5939  C3                  	db $C3		;[Wait] 4
    1337.  00:593A  13                  	db $13		;[Note] 20
    1338.  00:593B  C1                  	db $C1		;[Wait] 2
    1339.  00:593C  15                  	db $15		;[Note] 22
    1340.  00:593D                      				;[Skip delay] 2
    1341.  00:593D  15                  	db $15		;[Note] 22
    1342.  00:593E                      				;[Skip delay] 2
    1343.  00:593E  15                  	db $15		;[Note] 22
    1344.  00:593F                      				;[Skip delay] 2
    1345.  00:593F  15                  	db $15		;[Note] 22
    1346.  00:5940                      				;[Skip delay] 2
    1347.  00:5940  13                  	db $13		;[Note] 20
    1348.  00:5941                      				;[Skip delay] 2
    1349.  00:5941  13                  	db $13		;[Note] 20
    1350.  00:5942                      				;[Skip delay] 2
    1351.  00:5942  13                  	db $13		;[Note] 20
    1352.  00:5943                      				;[Skip delay] 2
    1353.  00:5943  13                  	db $13		;[Note] 20
    1354.  00:5944                      				;[Skip delay] 2
    1355.  00:5944  11                  	db $11		;[Note] 18
    1356.  00:5945                      				;[Skip delay] 2
    1357.  00:5945  11                  	db $11		;[Note] 18
    1358.  00:5946                      				;[Skip delay] 2
    1359.  00:5946  11                  	db $11		;[Note] 18
    1360.  00:5947                      				;[Skip delay] 2
    1361.  00:5947  11                  	db $11		;[Note] 18
    1362.  00:5948                      				;[Skip delay] 2
    1363.  00:5948  11                  	db $11		;[Note] 18
    1364.  00:5949                      				;[Skip delay] 2
    1365.  00:5949  11                  	db $11		;[Note] 18
    1366.  00:594A  C0                  	db $C0		;[Wait] 1
    1367.  00:594B  11                  	db $11		;[Note] 18
    1368.  00:594C                      				;[Skip delay] 1
    1369.  00:594C  13                  	db $13		;[Note] 20
    1370.  00:594D  C1                  	db $C1		;[Wait] 2
    1371.  00:594E  13                  	db $13		;[Note] 20
    1372.  00:594F  C0                  	db $C0		;[Wait] 1
    1373.  00:5950  13                  	db $13		;[Note] 20
    1374.  00:5951                      				;[Skip delay] 1
    1375.  00:5951  BF                  	db $BF		;[End-Of-Track]
    1376.  00:5952                      .track_12:
    1377.  00:5952  24                  	db $24		;[Note] 37
    1378.  00:5953  6A                  	db $6A		;[Volume] 10
    1379.  00:5954  81                  	db $81		;[Instrument] 18
    1380.  00:5955  C1                  	db $C1		;[Wait] 2
    1381.  00:5956  26                  	db $26		;[Note] 39
    1382.  00:5957  89                  	db $89		;[Instrument] 26
    1383.  00:5958                      				;[Skip delay] 2
    1384.  00:5958  26                  	db $26		;[Note] 39
    1385.  00:5959                      				;[Skip delay] 2
    1386.  00:5959  28                  	db $28		;[Note] 41
    1387.  00:595A  C3                  	db $C3		;[Wait] 4
    1388.  00:595B  24                  	db $24		;[Note] 37
    1389.  00:595C  C1                  	db $C1		;[Wait] 2
    1390.  00:595D  26                  	db $26		;[Note] 39
    1391.  00:595E                      				;[Skip delay] 2
    1392.  00:595E  28                  	db $28		;[Note] 41
    1393.  00:595F                      				;[Skip delay] 2
    1394.  00:595F  29                  	db $29		;[Note] 42
    1395.  00:5960                      				;[Skip delay] 2
    1396.  00:5960  28                  	db $28		;[Note] 41
    1397.  00:5961                      				;[Skip delay] 2
    1398.  00:5961  28                  	db $28		;[Note] 41
    1399.  00:5962                      				;[Skip delay] 2
    1400.  00:5962  29                  	db $29		;[Note] 42
    1401.  00:5963  C3                  	db $C3		;[Wait] 4
    1402.  00:5964  26                  	db $26		;[Note] 39
    1403.  00:5965  C1                  	db $C1		;[Wait] 2
    1404.  00:5966  28                  	db $28		;[Note] 41
    1405.  00:5967                      				;[Skip delay] 2
    1406.  00:5967  29                  	db $29		;[Note] 42
    1407.  00:5968                      				;[Skip delay] 2
    1408.  00:5968  28                  	db $28		;[Note] 41
    1409.  00:5969                      				;[Skip delay] 2
    1410.  00:5969  24                  	db $24		;[Note] 37
    1411.  00:596A                      				;[Skip delay] 2
    1412.  00:596A  30                  	db $30		;[Note] 49
    1413.  00:596B                      				;[Skip delay] 2
    1414.  00:596B  2D                  	db $2D		;[Note] 46
    1415.  00:596C                      				;[Skip delay] 2
    1416.  00:596C  2B                  	db $2B		;[Note] 44
    1417.  00:596D  C3                  	db $C3		;[Wait] 4
    1418.  00:596E  26                  	db $26		;[Note] 39
    1419.  00:596F  C1                  	db $C1		;[Wait] 2
    1420.  00:5970  26                  	db $26		;[Note] 39
    1421.  00:5971                      				;[Skip delay] 2
    1422.  00:5971  3C                  	db $3C		;[Note] 61
    1423.  00:5972  6F                  	db $6F		;[Volume] 15
    1424.  00:5973  7C                  	db $7C		;[Instrument] 13
    1425.  00:5974  C0                  	db $C0		;[Wait] 1
    1426.  00:5975  39                  	db $39		;[Note] 58
    1427.  00:5976                      				;[Skip delay] 1
    1428.  00:5976  34                  	db $34		;[Note] 53
    1429.  00:5977                      				;[Skip delay] 1
    1430.  00:5977  30                  	db $30		;[Note] 49
    1431.  00:5978                      				;[Skip delay] 1
    1432.  00:5978  34                  	db $34		;[Note] 53
    1433.  00:5979  6C                  	db $6C		;[Volume] 12
    1434.  00:597A                      				;[Skip delay] 1
    1435.  00:597A  30                  	db $30		;[Note] 49
    1436.  00:597B  6D                  	db $6D		;[Volume] 13
    1437.  00:597C                      				;[Skip delay] 1
    1438.  00:597C  2D                  	db $2D		;[Note] 46
    1439.  00:597D                      				;[Skip delay] 1
    1440.  00:597D  28                  	db $28		;[Note] 41
    1441.  00:597E                      				;[Skip delay] 1
    1442.  00:597E  2D                  	db $2D		;[Note] 46
    1443.  00:597F  6E                  	db $6E		;[Volume] 14
    1444.  00:5980                      				;[Skip delay] 1
    1445.  00:5980  28                  	db $28		;[Note] 41
    1446.  00:5981                      				;[Skip delay] 1
    1447.  00:5981  24                  	db $24		;[Note] 37
    1448.  00:5982                      				;[Skip delay] 1
    1449.  00:5982  28                  	db $28		;[Note] 41
    1450.  00:5983                      				;[Skip delay] 1
    1451.  00:5983  2D                  	db $2D		;[Note] 46
    1452.  00:5984  6C                  	db $6C		;[Volume] 12
    1453.  00:5985                      				;[Skip delay] 1
    1454.  00:5985  28                  	db $28		;[Note] 41
    1455.  00:5986                      				;[Skip delay] 1
    1456.  00:5986  24                  	db $24		;[Note] 37
    1457.  00:5987                      				;[Skip delay] 1
    1458.  00:5987  2F                  	db $2F		;[Note] 48
    1459.  00:5988                      				;[Skip delay] 1
    1460.  00:5988  BF                  	db $BF		;[End-Of-Track]
    1461.  00:5989                      .track_13:
    1462.  00:5989  24                  	db $24		;[Note] 37
    1463.  00:598A  69                  	db $69		;[Volume] 9
    1464.  00:598B  87                  	db $87		;[Instrument] 24
    1465.  00:598C  C5                  	db $C5		;[Wait] 6
    1466.  00:598D  2B                  	db $2B		;[Note] 44
    1467.  00:598E  6A                  	db $6A		;[Volume] 10
    1468.  00:598F  C4                  	db $C4		;[Wait] 5
    1469.  00:5990  69                  	db $69		;[Volume] 9
    1470.  00:5991  C1                  	db $C1		;[Wait] 2
    1471.  00:5992  66                  	db $66		;[Volume] 6
    1472.  00:5993  C0                  	db $C0		;[Wait] 1
    1473.  00:5994  64                  	db $64		;[Volume] 4
    1474.  00:5995                      				;[Skip delay] 1
    1475.  00:5995  63                  	db $63		;[Volume] 3
    1476.  00:5996                      				;[Skip delay] 1
    1477.  00:5996  22                  	db $22		;[Note] 35
    1478.  00:5997  66                  	db $66		;[Volume] 6
    1479.  00:5998  C1                  	db $C1		;[Wait] 2
    1480.  00:5999  68                  	db $68		;[Volume] 8
    1481.  00:599A  C0                  	db $C0		;[Wait] 1
    1482.  00:599B  69                  	db $69		;[Volume] 9
    1483.  00:599C  C4                  	db $C4		;[Wait] 5
    1484.  00:599D  29                  	db $29		;[Note] 42
    1485.  00:599E  C4                  	db $C4		;[Wait..] 5
    1486.  00:599F  66                  	db $66		;[Volume] 6
    1487.  00:59A0  C0                  	db $C0		;[Wait] 1
    1488.  00:59A1  65                  	db $65		;[Volume] 5
    1489.  00:59A2                      				;[Skip delay] 1
    1490.  00:59A2  64                  	db $64		;[Volume] 4
    1491.  00:59A3                      				;[Skip delay] 1
    1492.  00:59A3  2D                  	db $2D		;[Note] 46
    1493.  00:59A4  68                  	db $68		;[Volume] 8
    1494.  00:59A5  C7                  	db $C7		;[Wait] 8
    1495.  00:59A6  2F                  	db $2F		;[Note] 48
    1496.  00:59A7                      				;[Skip delay] 8
    1497.  00:59A7  34                  	db $34		;[Note] 53
    1498.  00:59A8  66                  	db $66		;[Volume] 6
    1499.  00:59A9  C0                  	db $C0		;[Wait] 1
    1500.  00:59AA  67                  	db $67		;[Volume] 7
    1501.  00:59AB                      				;[Skip delay] 1
    1502.  00:59AB  68                  	db $68		;[Volume] 8
    1503.  00:59AC  C1                  	db $C1		;[Wait] 2
    1504.  00:59AD  69                  	db $69		;[Volume] 9
    1505.  00:59AE  C2                  	db $C2		;[Wait] 3
    1506.  00:59AF  A7 55               	db $A7, $55	;[CMD vibrato]
    1507.  00:59B1  C0                  	db $C0		;[Wait] 1
    1508.  00:59B2  B1 05               	db $B1, $05	;[CMD vibrato] rep
    1509.  00:59B4  C4                  	db $C4		;[Wait] 5
    1510.  00:59B5  A5 10               	db $A5, $10; slide-down
    1511.  00:59B7  C0                  	db $C0		;[Wait] 1
    1512.  00:59B8  AF 02               	db $AF, $02; slide-down rep
    1513.  00:59BA  C1                  	db $C1		;[Wait] 2
    1514.  00:59BB  BF                  	db $BF		;[End-Of-Track]
    1515.  00:59BC                      .track_14:
    1516.  00:59BC  2B                  	db $2B		;[Note] 44
    1517.  00:59BD  6F                  	db $6F		;[Volume] 15
    1518.  00:59BE  84                  	db $84		;[Instrument] 21
    1519.  00:59BF  95 00               	db $95, $00	; track detune
    1520.  00:59C1  C1                  	db $C1		;[Wait] 2
    1521.  00:59C2  68                  	db $68		;[Volume] 8
    1522.  00:59C3  C0                  	db $C0		;[Wait] 1
    1523.  00:59C4  66                  	db $66		;[Volume] 6
    1524.  00:59C5                      				;[Skip delay] 1
    1525.  00:59C5  32                  	db $32		;[Note] 51
    1526.  00:59C6  6C                  	db $6C		;[Volume] 12
    1527.  00:59C7  7B                  	db $7B		;[Instrument] 12
    1528.  00:59C8                      				;[Skip delay] 1
    1529.  00:59C8  34                  	db $34		;[Note] 53
    1530.  00:59C9  A6 10               	db $A6, $10; tone-slide
    1531.  00:59CB                      				;[Skip delay] 1
    1532.  00:59CB  30                  	db $30		;[Note] 49
    1533.  00:59CC  C1                  	db $C1		;[Wait] 2
    1534.  00:59CD  32                  	db $32		;[Note] 51
    1535.  00:59CE                      				;[Skip delay] 2
    1536.  00:59CE  37                  	db $37		;[Note] 56
    1537.  00:59CF  C2                  	db $C2		;[Wait] 3
    1538.  00:59D0  64                  	db $64		;[Volume] 4
    1539.  00:59D1  C0                  	db $C0		;[Wait] 1
    1540.  00:59D2  37                  	db $37		;[Note] 56
    1541.  00:59D3  69                  	db $69		;[Volume] 9
    1542.  00:59D4  C1                  	db $C1		;[Wait] 2
    1543.  00:59D5  37                  	db $37		;[Note] 56
    1544.  00:59D6  C2                  	db $C2		;[Wait] 3
    1545.  00:59D7  A7 55               	db $A7, $55	;[CMD vibrato]
    1546.  00:59D9  C0                  	db $C0		;[Wait] 1
    1547.  00:59DA  B1 02               	db $B1, $02	;[CMD vibrato] rep
    1548.  00:59DC  C1                  	db $C1		;[Wait] 2
    1549.  00:59DD  35                  	db $35		;[Note] 54
    1550.  00:59DE  6F                  	db $6F		;[Volume] 15
    1551.  00:59DF  C0                  	db $C0		;[Wait] 1
    1552.  00:59E0  34                  	db $34		;[Note] 53
    1553.  00:59E1  6E                  	db $6E		;[Volume] 14
    1554.  00:59E2                      				;[Skip delay] 1
    1555.  00:59E2  32                  	db $32		;[Note] 51
    1556.  00:59E3  6D                  	db $6D		;[Volume] 13
    1557.  00:59E4  C2                  	db $C2		;[Wait] 3
    1558.  00:59E5  A7 56               	db $A7, $56	;[CMD vibrato]
    1559.  00:59E7  C0                  	db $C0		;[Wait] 1
    1560.  00:59E8  B1 03               	db $B1, $03	;[CMD vibrato] rep
    1561.  00:59EA  C1                  	db $C1		;[Wait] 2
    1562.  00:59EB  68                  	db $68		;[Volume] 8
    1563.  00:59EC  C0                  	db $C0		;[Wait] 1
    1564.  00:59ED  A7 55               	db $A7, $55	;[CMD vibrato]
    1565.  00:59EF                      				;[Skip delay] 1
    1566.  00:59EF  66                  	db $66		;[Volume] 6
    1567.  00:59F0  B1 01               	db $B1, $01	;[CMD vibrato] rep
    1568.  00:59F2                      				;[Skip delay] 1
    1569.  00:59F2  A5 10               	db $A5, $10; slide-down
    1570.  00:59F4                      				;[Skip delay] 1
    1571.  00:59F4  64                  	db $64		;[Volume] 4
    1572.  00:59F5  AF 02               	db $AF, $02; slide-down rep
    1573.  00:59F7                      				;[Skip delay] 1
    1574.  00:59F7  63                  	db $63		;[Volume] 3
    1575.  00:59F8                      				;[Skip delay] 1
    1576.  00:59F8  2D                  	db $2D		;[Note] 46
    1577.  00:59F9  6D                  	db $6D		;[Volume] 13
    1578.  00:59FA  C1                  	db $C1		;[Wait] 2
    1579.  00:59FB  34                  	db $34		;[Note] 53
    1580.  00:59FC                      				;[Skip delay] 2
    1581.  00:59FC  32                  	db $32		;[Note] 51
    1582.  00:59FD  C0                  	db $C0		;[Wait] 1
    1583.  00:59FE  A7 55               	db $A7, $55	;[CMD vibrato]
    1584.  00:5A00                      				;[Skip delay] 1
    1585.  00:5A00  B1 02               	db $B1, $02	;[CMD vibrato] rep
    1586.  00:5A02  C1                  	db $C1		;[Wait] 2
    1587.  00:5A03  37                  	db $37		;[Note] 56
    1588.  00:5A04                      				;[Skip delay] 2
    1589.  00:5A04  39                  	db $39		;[Note] 58
    1590.  00:5A05  C2                  	db $C2		;[Wait] 3
    1591.  00:5A06  6E                  	db $6E		;[Volume] 14
    1592.  00:5A07  C1                  	db $C1		;[Wait] 2
    1593.  00:5A08  A7 55               	db $A7, $55	;[CMD vibrato]
    1594.  00:5A0A  C0                  	db $C0		;[Wait] 1
    1595.  00:5A0B  B1 08               	db $B1, $08	;[CMD vibrato] rep
    1596.  00:5A0D  C1                  	db $C1		;[Wait] 2
    1597.  00:5A0E  6F                  	db $6F		;[Volume] 15
    1598.  00:5A0F                      				;[Skip delay] 2
    1599.  00:5A0F  6D                  	db $6D		;[Volume] 13
    1600.  00:5A10  C0                  	db $C0		;[Wait] 1
    1601.  00:5A11  6A                  	db $6A		;[Volume] 10
    1602.  00:5A12  C1                  	db $C1		;[Wait] 2
    1603.  00:5A13  69                  	db $69		;[Volume] 9
    1604.  00:5A14  C0                  	db $C0		;[Wait] 1
    1605.  00:5A15  A5 10               	db $A5, $10; slide-down
    1606.  00:5A17                      				;[Skip delay] 1
    1607.  00:5A17  67                  	db $67		;[Volume] 7
    1608.  00:5A18  AF 03               	db $AF, $03; slide-down rep
    1609.  00:5A1A  C1                  	db $C1		;[Wait] 2
    1610.  00:5A1B  65                  	db $65		;[Volume] 5
    1611.  00:5A1C  C0                  	db $C0		;[Wait] 1
    1612.  00:5A1D  BF                  	db $BF		;[End-Of-Track]
    1613.  00:5A1E                      .track_15:
    1614.  00:5A1E  60                  	db $60		;[Note] 97
    1615.  00:5A1F  95 08               	db $95, $08	; track detune
    1616.  00:5A21  C5                  	db $C5		;[Wait] 6
    1617.  00:5A22  32                  	db $32		;[Note] 51
    1618.  00:5A23  65                  	db $65		;[Volume] 5
    1619.  00:5A24  7B                  	db $7B		;[Instrument] 12
    1620.  00:5A25  C0                  	db $C0		;[Wait] 1
    1621.  00:5A26  34                  	db $34		;[Note] 53
    1622.  00:5A27  A6 10               	db $A6, $10; tone-slide
    1623.  00:5A29                      				;[Skip delay] 1
    1624.  00:5A29  30                  	db $30		;[Note] 49
    1625.  00:5A2A  C1                  	db $C1		;[Wait] 2
    1626.  00:5A2B  32                  	db $32		;[Note] 51
    1627.  00:5A2C                      				;[Skip delay] 2
    1628.  00:5A2C  37                  	db $37		;[Note] 56
    1629.  00:5A2D  C3                  	db $C3		;[Wait] 4
    1630.  00:5A2E  37                  	db $37		;[Note] 56
    1631.  00:5A2F  C1                  	db $C1		;[Wait] 2
    1632.  00:5A30  37                  	db $37		;[Note] 56
    1633.  00:5A31  C5                  	db $C5		;[Wait] 6
    1634.  00:5A32  35                  	db $35		;[Note] 54
    1635.  00:5A33  C0                  	db $C0		;[Wait] 1
    1636.  00:5A34  34                  	db $34		;[Note] 53
    1637.  00:5A35                      				;[Skip delay] 1
    1638.  00:5A35  32                  	db $32		;[Note] 51
    1639.  00:5A36  C9                  	db $C9		;[Wait] 10
    1640.  00:5A37  28                  	db $28		;[Note] 41
    1641.  00:5A38  6D                  	db $6D		;[Volume] 13
    1642.  00:5A39  95 00               	db $95, $00	; track detune
    1643.  00:5A3B  C1                  	db $C1		;[Wait] 2
    1644.  00:5A3C  30                  	db $30		;[Note] 49
    1645.  00:5A3D                      				;[Skip delay] 2
    1646.  00:5A3D  2B                  	db $2B		;[Note] 44
    1647.  00:5A3E  C3                  	db $C3		;[Wait] 4
    1648.  00:5A3F  30                  	db $30		;[Note] 49
    1649.  00:5A40  C1                  	db $C1		;[Wait] 2
    1650.  00:5A41  30                  	db $30		;[Note] 49
    1651.  00:5A42  C2                  	db $C2		;[Wait] 3
    1652.  00:5A43  6E                  	db $6E		;[Volume] 14
    1653.  00:5A44  C4                  	db $C4		;[Wait] 5
    1654.  00:5A45  6F                  	db $6F		;[Volume] 15
    1655.  00:5A46  C1                  	db $C1		;[Wait] 2
    1656.  00:5A47  6D                  	db $6D		;[Volume] 13
    1657.  00:5A48  C0                  	db $C0		;[Wait] 1
    1658.  00:5A49  6A                  	db $6A		;[Volume] 10
    1659.  00:5A4A  C1                  	db $C1		;[Wait] 2
    1660.  00:5A4B  69                  	db $69		;[Volume] 9
    1661.  00:5A4C  C0                  	db $C0		;[Wait] 1
    1662.  00:5A4D  A5 10               	db $A5, $10; slide-down
    1663.  00:5A4F                      				;[Skip delay] 1
    1664.  00:5A4F  67                  	db $67		;[Volume] 7
    1665.  00:5A50  AF 03               	db $AF, $03; slide-down rep
    1666.  00:5A52  C1                  	db $C1		;[Wait] 2
    1667.  00:5A53  65                  	db $65		;[Volume] 5
    1668.  00:5A54  C0                  	db $C0		;[Wait] 1
    1669.  00:5A55  BF                  	db $BF		;[End-Of-Track]
    1670.  00:5A56                      .track_16:
    1671.  00:5A56  12                  	db $12		;[Note] 19
    1672.  00:5A57  6F                  	db $6F		;[Volume] 15
    1673.  00:5A58  70                  	db $70		;[Instrument] 1
    1674.  00:5A59  C1                  	db $C1		;[Wait] 2
    1675.  00:5A5A  5F                  	db $5F		;[Note] 96
    1676.  00:5A5B  6E                  	db $6E		;[Volume] 14
    1677.  00:5A5C  72                  	db $72		;[Instrument] 3
    1678.  00:5A5D  C0                  	db $C0		;[Wait] 1
    1679.  00:5A5E  5F                  	db $5F		;[Note] 96
    1680.  00:5A5F  6D                  	db $6D		;[Volume] 13
    1681.  00:5A60                      				;[Skip delay] 1
    1682.  00:5A60  5F                  	db $5F		;[Note] 96
    1683.  00:5A61  6E                  	db $6E		;[Volume] 14
    1684.  00:5A62  C1                  	db $C1		;[Wait] 2
    1685.  00:5A63  12                  	db $12		;[Note] 19
    1686.  00:5A64  6F                  	db $6F		;[Volume] 15
    1687.  00:5A65  70                  	db $70		;[Instrument] 1
    1688.  00:5A66                      				;[Skip delay] 2
    1689.  00:5A66  1F                  	db $1F		;[Note] 32
    1690.  00:5A67  71                  	db $71		;[Instrument] 2
    1691.  00:5A68                      				;[Skip delay] 2
    1692.  00:5A68  5F                  	db $5F		;[Note] 96
    1693.  00:5A69  6E                  	db $6E		;[Volume] 14
    1694.  00:5A6A  72                  	db $72		;[Instrument] 3
    1695.  00:5A6B                      				;[Skip delay] 2
    1696.  00:5A6B  5F                  	db $5F		;[Note] 96
    1697.  00:5A6C  6D                  	db $6D		;[Volume] 13
    1698.  00:5A6D  C0                  	db $C0		;[Wait] 1
    1699.  00:5A6E  60                  	db $60		;[Note] 97
    1700.  00:5A6F                      				;[Skip delay] 1
    1701.  00:5A6F  12                  	db $12		;[Note] 19
    1702.  00:5A70  70                  	db $70		;[Instrument] 1
    1703.  00:5A71  C1                  	db $C1		;[Wait] 2
    1704.  00:5A72  5F                  	db $5F		;[Note] 96
    1705.  00:5A73  6E                  	db $6E		;[Volume] 14
    1706.  00:5A74  72                  	db $72		;[Instrument] 3
    1707.  00:5A75  C0                  	db $C0		;[Wait] 1
    1708.  00:5A76  5F                  	db $5F		;[Note] 96
    1709.  00:5A77                      				;[Skip delay] 1
    1710.  00:5A77  5F                  	db $5F		;[Note] 96
    1711.  00:5A78  73                  	db $73		;[Instrument] 4
    1712.  00:5A79  C1                  	db $C1		;[Wait] 2
    1713.  00:5A7A  5F                  	db $5F		;[Note] 96
    1714.  00:5A7B  72                  	db $72		;[Instrument] 3
    1715.  00:5A7C                      				;[Skip delay] 2
    1716.  00:5A7C  12                  	db $12		;[Note] 19
    1717.  00:5A7D  6F                  	db $6F		;[Volume] 15
    1718.  00:5A7E  70                  	db $70		;[Instrument] 1
    1719.  00:5A7F                      				;[Skip delay] 2
    1720.  00:5A7F  1F                  	db $1F		;[Note] 32
    1721.  00:5A80  71                  	db $71		;[Instrument] 2
    1722.  00:5A81                      				;[Skip delay] 2
    1723.  00:5A81  5F                  	db $5F		;[Note] 96
    1724.  00:5A82  6E                  	db $6E		;[Volume] 14
    1725.  00:5A83  72                  	db $72		;[Instrument] 3
    1726.  00:5A84  C0                  	db $C0		;[Wait] 1
    1727.  00:5A85  5F                  	db $5F		;[Note] 96
    1728.  00:5A86  6D                  	db $6D		;[Volume] 13
    1729.  00:5A87                      				;[Skip delay] 1
    1730.  00:5A87  5F                  	db $5F		;[Note] 96
    1731.  00:5A88  6E                  	db $6E		;[Volume] 14
    1732.  00:5A89  C1                  	db $C1		;[Wait] 2
    1733.  00:5A8A  5F                  	db $5F		;[Note] 96
    1734.  00:5A8B                      				;[Skip delay] 2
    1735.  00:5A8B  12                  	db $12		;[Note] 19
    1736.  00:5A8C  6F                  	db $6F		;[Volume] 15
    1737.  00:5A8D  70                  	db $70		;[Instrument] 1
    1738.  00:5A8E                      				;[Skip delay] 2
    1739.  00:5A8E  5F                  	db $5F		;[Note] 96
    1740.  00:5A8F  6E                  	db $6E		;[Volume] 14
    1741.  00:5A90  72                  	db $72		;[Instrument] 3
    1742.  00:5A91  C0                  	db $C0		;[Wait] 1
    1743.  00:5A92  5F                  	db $5F		;[Note] 96
    1744.  00:5A93  6D                  	db $6D		;[Volume] 13
    1745.  00:5A94                      				;[Skip delay] 1
    1746.  00:5A94  5F                  	db $5F		;[Note] 96
    1747.  00:5A95  6E                  	db $6E		;[Volume] 14
    1748.  00:5A96  C1                  	db $C1		;[Wait] 2
    1749.  00:5A97  5F                  	db $5F		;[Note] 96
    1750.  00:5A98  73                  	db $73		;[Instrument] 4
    1751.  00:5A99                      				;[Skip delay] 2
    1752.  00:5A99  1F                  	db $1F		;[Note] 32
    1753.  00:5A9A  6F                  	db $6F		;[Volume] 15
    1754.  00:5A9B  71                  	db $71		;[Instrument] 2
    1755.  00:5A9C                      				;[Skip delay] 2
    1756.  00:5A9C  5F                  	db $5F		;[Note] 96
    1757.  00:5A9D  6D                  	db $6D		;[Volume] 13
    1758.  00:5A9E  72                  	db $72		;[Instrument] 3
    1759.  00:5A9F                      				;[Skip delay] 2
    1760.  00:5A9F  5F                  	db $5F		;[Note] 96
    1761.  00:5AA0  6A                  	db $6A		;[Volume] 10
    1762.  00:5AA1  C0                  	db $C0		;[Wait] 1
    1763.  00:5AA2  60                  	db $60		;[Note] 97
    1764.  00:5AA3                      				;[Skip delay] 1
    1765.  00:5AA3  12                  	db $12		;[Note] 19
    1766.  00:5AA4  6F                  	db $6F		;[Volume] 15
    1767.  00:5AA5  70                  	db $70		;[Instrument] 1
    1768.  00:5AA6  C1                  	db $C1		;[Wait] 2
    1769.  00:5AA7  5F                  	db $5F		;[Note] 96
    1770.  00:5AA8  6E                  	db $6E		;[Volume] 14
    1771.  00:5AA9  72                  	db $72		;[Instrument] 3
    1772.  00:5AAA                      				;[Skip delay] 2
    1773.  00:5AAA  25                  	db $25		;[Note] 38
    1774.  00:5AAB  6F                  	db $6F		;[Volume] 15
    1775.  00:5AAC  75                  	db $75		;[Instrument] 6
    1776.  00:5AAD  C0                  	db $C0		;[Wait] 1
    1777.  00:5AAE  25                  	db $25		;[Note] 38
    1778.  00:5AAF  6E                  	db $6E		;[Volume] 14
    1779.  00:5AB0                      				;[Skip delay] 1
    1780.  00:5AB0  1E                  	db $1E		;[Note] 31
    1781.  00:5AB1  6F                  	db $6F		;[Volume] 15
    1782.  00:5AB2  C1                  	db $C1		;[Wait] 2
    1783.  00:5AB3  1B                  	db $1B		;[Note] 28
    1784.  00:5AB4                      				;[Skip delay] 2
    1785.  00:5AB4  15                  	db $15		;[Note] 22
    1786.  00:5AB5                      				;[Skip delay] 2
    1787.  00:5AB5  10                  	db $10		;[Note] 17
    1788.  00:5AB6  C0                  	db $C0		;[Wait] 1
    1789.  00:5AB7  5F                  	db $5F		;[Note] 96
    1790.  00:5AB8  6B                  	db $6B		;[Volume] 11
    1791.  00:5AB9  72                  	db $72		;[Instrument] 3
    1792.  00:5ABA                      				;[Skip delay] 1
    1793.  00:5ABA  1F                  	db $1F		;[Note] 32
    1794.  00:5ABB  6F                  	db $6F		;[Volume] 15
    1795.  00:5ABC  71                  	db $71		;[Instrument] 2
    1796.  00:5ABD  C1                  	db $C1		;[Wait] 2
    1797.  00:5ABE  1F                  	db $1F		;[Note] 32
    1798.  00:5ABF  C0                  	db $C0		;[Wait] 1
    1799.  00:5AC0  1F                  	db $1F		;[Note] 32
    1800.  00:5AC1                      				;[Skip delay] 1
    1801.  00:5AC1  BF                  	db $BF		;[End-Of-Track]
    1802.  00:5AC2                      .track_17:
    1803.  00:5AC2  15                  	db $15		;[Note] 22
    1804.  00:5AC3  76                  	db $76		;[Instrument] 7
    1805.  00:5AC4  C1                  	db $C1		;[Wait] 2
    1806.  00:5AC5  15                  	db $15		;[Note] 22
    1807.  00:5AC6  C0                  	db $C0		;[Wait] 1
    1808.  00:5AC7  15                  	db $15		;[Note] 22
    1809.  00:5AC8                      				;[Skip delay] 1
    1810.  00:5AC8  18                  	db $18		;[Note] 25
    1811.  00:5AC9  C1                  	db $C1		;[Wait] 2
    1812.  00:5ACA  15                  	db $15		;[Note] 22
    1813.  00:5ACB                      				;[Skip delay] 2
    1814.  00:5ACB  1A                  	db $1A		;[Note] 27
    1815.  00:5ACC                      				;[Skip delay] 2
    1816.  00:5ACC  15                  	db $15		;[Note] 22
    1817.  00:5ACD                      				;[Skip delay] 2
    1818.  00:5ACD  1C                  	db $1C		;[Note] 29
    1819.  00:5ACE                      				;[Skip delay] 2
    1820.  00:5ACE  13                  	db $13		;[Note] 20
    1821.  00:5ACF  C1                  	db $C1		;[Wait..] 2
    1822.  00:5AD0  A5 10               	db $A5, $10; slide-down
    1823.  00:5AD2  C0                  	db $C0		;[Wait] 1
    1824.  00:5AD3  AF 01               	db $AF, $01; slide-down rep
    1825.  00:5AD5                      				;[Skip delay] 1
    1826.  00:5AD5  13                  	db $13		;[Note] 20
    1827.  00:5AD6                      				;[Skip delay] 1
    1828.  00:5AD6  13                  	db $13		;[Note] 20
    1829.  00:5AD7                      				;[Skip delay] 1
    1830.  00:5AD7  17                  	db $17		;[Note] 24
    1831.  00:5AD8  C1                  	db $C1		;[Wait] 2
    1832.  00:5AD9  13                  	db $13		;[Note] 20
    1833.  00:5ADA                      				;[Skip delay] 2
    1834.  00:5ADA  18                  	db $18		;[Note] 25
    1835.  00:5ADB                      				;[Skip delay] 2
    1836.  00:5ADB  13                  	db $13		;[Note] 20
    1837.  00:5ADC                      				;[Skip delay] 2
    1838.  00:5ADC  1A                  	db $1A		;[Note] 27
    1839.  00:5ADD                      				;[Skip delay] 2
    1840.  00:5ADD  13                  	db $13		;[Note] 20
    1841.  00:5ADE                      				;[Skip delay] 2
    1842.  00:5ADE  11                  	db $11		;[Note] 18
    1843.  00:5ADF                      				;[Skip delay] 2
    1844.  00:5ADF  11                  	db $11		;[Note] 18
    1845.  00:5AE0  C0                  	db $C0		;[Wait] 1
    1846.  00:5AE1  11                  	db $11		;[Note] 18
    1847.  00:5AE2                      				;[Skip delay] 1
    1848.  00:5AE2  15                  	db $15		;[Note] 22
    1849.  00:5AE3  C1                  	db $C1		;[Wait] 2
    1850.  00:5AE4  11                  	db $11		;[Note] 18
    1851.  00:5AE5                      				;[Skip delay] 2
    1852.  00:5AE5  17                  	db $17		;[Note] 24
    1853.  00:5AE6                      				;[Skip delay] 2
    1854.  00:5AE6  11                  	db $11		;[Note] 18
    1855.  00:5AE7                      				;[Skip delay] 2
    1856.  00:5AE7  18                  	db $18		;[Note] 25
    1857.  00:5AE8                      				;[Skip delay] 2
    1858.  00:5AE8  10                  	db $10		;[Note] 17
    1859.  00:5AE9  C1                  	db $C1		;[Wait..] 2
    1860.  00:5AEA  A5 10               	db $A5, $10; slide-down
    1861.  00:5AEC  C0                  	db $C0		;[Wait] 1
    1862.  00:5AED  AF 01               	db $AF, $01; slide-down rep
    1863.  00:5AEF                      				;[Skip delay] 1
    1864.  00:5AEF  10                  	db $10		;[Note] 17
    1865.  00:5AF0                      				;[Skip delay] 1
    1866.  00:5AF0  10                  	db $10		;[Note] 17
    1867.  00:5AF1                      				;[Skip delay] 1
    1868.  00:5AF1  13                  	db $13		;[Note] 20
    1869.  00:5AF2  C1                  	db $C1		;[Wait] 2
    1870.  00:5AF3  15                  	db $15		;[Note] 22
    1871.  00:5AF4                      				;[Skip delay] 2
    1872.  00:5AF4  15                  	db $15		;[Note] 22
    1873.  00:5AF5  C0                  	db $C0		;[Wait] 1
    1874.  00:5AF6  17                  	db $17		;[Note] 24
    1875.  00:5AF7  A6 20               	db $A6, $20; tone-slide
    1876.  00:5AF9                      				;[Skip delay] 1
    1877.  00:5AF9  15                  	db $15		;[Note] 22
    1878.  00:5AFA  C1                  	db $C1		;[Wait] 2
    1879.  00:5AFB  13                  	db $13		;[Note] 20
    1880.  00:5AFC                      				;[Skip delay] 2
    1881.  00:5AFC  10                  	db $10		;[Note] 17
    1882.  00:5AFD                      				;[Skip delay] 2
    1883.  00:5AFD  BF                  	db $BF		;[End-Of-Track]
    1884.  00:5AFE                      .track_18:
    1885.  00:5AFE  2D                  	db $2D		;[Note] 46
    1886.  00:5AFF  77                  	db $77		;[Instrument] 8
    1887.  00:5B00  C1                  	db $C1		;[Wait] 2
    1888.  00:5B01  2B                  	db $2B		;[Note] 44
    1889.  00:5B02                      				;[Skip delay] 2
    1890.  00:5B02  28                  	db $28		;[Note] 41
    1891.  00:5B03                      				;[Skip delay] 2
    1892.  00:5B03  2B                  	db $2B		;[Note] 44
    1893.  00:5B04  C1                  	db $C1		;[Wait..] 2
    1894.  00:5B05  A7 55               	db $A7, $55	;[CMD vibrato]
    1895.  00:5B07  C0                  	db $C0		;[Wait] 1
    1896.  00:5B08  B1 03               	db $B1, $03	;[CMD vibrato] rep
    1897.  00:5B0A  C2                  	db $C2		;[Wait] 3
    1898.  00:5B0B  2D                  	db $2D		;[Note] 46
    1899.  00:5B0C  C1                  	db $C1		;[Wait] 2
    1900.  00:5B0D  28                  	db $28		;[Note] 41
    1901.  00:5B0E  C2                  	db $C2		;[Wait] 3
    1902.  00:5B0F  A7 55               	db $A7, $55	;[CMD vibrato]
    1903.  00:5B11  C0                  	db $C0		;[Wait] 1
    1904.  00:5B12  B1 05               	db $B1, $05	;[CMD vibrato] rep
    1905.  00:5B14  C4                  	db $C4		;[Wait] 5
    1906.  00:5B15  A5 10               	db $A5, $10; slide-down
    1907.  00:5B17  C0                  	db $C0		;[Wait] 1
    1908.  00:5B18  AF 03               	db $AF, $03; slide-down rep
    1909.  00:5B1A  C2                  	db $C2		;[Wait] 3
    1910.  00:5B1B  60                  	db $60		;[Note] 97
    1911.  00:5B1C  C4                  	db $C4		;[Wait] 5
    1912.  00:5B1D  26                  	db $26		;[Note] 39
    1913.  00:5B1E  C0                  	db $C0		;[Wait] 1
    1914.  00:5B1F  28                  	db $28		;[Note] 41
    1915.  00:5B20  A6 10               	db $A6, $10; tone-slide
    1916.  00:5B22                      				;[Skip delay] 1
    1917.  00:5B22  26                  	db $26		;[Note] 39
    1918.  00:5B23  C1                  	db $C1		;[Wait] 2
    1919.  00:5B24  24                  	db $24		;[Note] 37
    1920.  00:5B25                      				;[Skip delay] 2
    1921.  00:5B25  26                  	db $26		;[Note] 39
    1922.  00:5B26  C1                  	db $C1		;[Wait..] 2
    1923.  00:5B27  A7 55               	db $A7, $55	;[CMD vibrato]
    1924.  00:5B29  C0                  	db $C0		;[Wait] 1
    1925.  00:5B2A  B1 03               	db $B1, $03	;[CMD vibrato] rep
    1926.  00:5B2C  C2                  	db $C2		;[Wait] 3
    1927.  00:5B2D  28                  	db $28		;[Note] 41
    1928.  00:5B2E  C1                  	db $C1		;[Wait] 2
    1929.  00:5B2F  23                  	db $23		;[Note] 36
    1930.  00:5B30  C2                  	db $C2		;[Wait] 3
    1931.  00:5B31  A7 55               	db $A7, $55	;[CMD vibrato]
    1932.  00:5B33  C0                  	db $C0		;[Wait] 1
    1933.  00:5B34  B1 05               	db $B1, $05	;[CMD vibrato] rep
    1934.  00:5B36  C4                  	db $C4		;[Wait] 5
    1935.  00:5B37  A5 10               	db $A5, $10; slide-down
    1936.  00:5B39  C0                  	db $C0		;[Wait] 1
    1937.  00:5B3A  AF 03               	db $AF, $03; slide-down rep
    1938.  00:5B3C  C2                  	db $C2		;[Wait] 3
    1939.  00:5B3D  60                  	db $60		;[Note] 97
    1940.  00:5B3E  C4                  	db $C4		;[Wait] 5
    1941.  00:5B3F  BF                  	db $BF		;[End-Of-Track]
    1942.  00:5B40                      .track_19:
    1943.  00:5B40  15                  	db $15		;[Note] 22
    1944.  00:5B41  79                  	db $79		;[Instrument] 10
    1945.  00:5B42  C1                  	db $C1		;[Wait] 2
    1946.  00:5B43  15                  	db $15		;[Note] 22
    1947.  00:5B44  C0                  	db $C0		;[Wait] 1
    1948.  00:5B45  15                  	db $15		;[Note] 22
    1949.  00:5B46                      				;[Skip delay] 1
    1950.  00:5B46  18                  	db $18		;[Note] 25
    1951.  00:5B47  C1                  	db $C1		;[Wait] 2
    1952.  00:5B48  15                  	db $15		;[Note] 22
    1953.  00:5B49                      				;[Skip delay] 2
    1954.  00:5B49  1A                  	db $1A		;[Note] 27
    1955.  00:5B4A                      				;[Skip delay] 2
    1956.  00:5B4A  15                  	db $15		;[Note] 22
    1957.  00:5B4B                      				;[Skip delay] 2
    1958.  00:5B4B  1C                  	db $1C		;[Note] 29
    1959.  00:5B4C                      				;[Skip delay] 2
    1960.  00:5B4C  13                  	db $13		;[Note] 20
    1961.  00:5B4D  C1                  	db $C1		;[Wait..] 2
    1962.  00:5B4E  A5 10               	db $A5, $10; slide-down
    1963.  00:5B50  C0                  	db $C0		;[Wait] 1
    1964.  00:5B51  AF 01               	db $AF, $01; slide-down rep
    1965.  00:5B53                      				;[Skip delay] 1
    1966.  00:5B53  13                  	db $13		;[Note] 20
    1967.  00:5B54                      				;[Skip delay] 1
    1968.  00:5B54  13                  	db $13		;[Note] 20
    1969.  00:5B55                      				;[Skip delay] 1
    1970.  00:5B55  17                  	db $17		;[Note] 24
    1971.  00:5B56  C1                  	db $C1		;[Wait] 2
    1972.  00:5B57  13                  	db $13		;[Note] 20
    1973.  00:5B58                      				;[Skip delay] 2
    1974.  00:5B58  18                  	db $18		;[Note] 25
    1975.  00:5B59                      				;[Skip delay] 2
    1976.  00:5B59  13                  	db $13		;[Note] 20
    1977.  00:5B5A                      				;[Skip delay] 2
    1978.  00:5B5A  1A                  	db $1A		;[Note] 27
    1979.  00:5B5B                      				;[Skip delay] 2
    1980.  00:5B5B  13                  	db $13		;[Note] 20
    1981.  00:5B5C                      				;[Skip delay] 2
    1982.  00:5B5C  11                  	db $11		;[Note] 18
    1983.  00:5B5D                      				;[Skip delay] 2
    1984.  00:5B5D  11                  	db $11		;[Note] 18
    1985.  00:5B5E  C0                  	db $C0		;[Wait] 1
    1986.  00:5B5F  11                  	db $11		;[Note] 18
    1987.  00:5B60                      				;[Skip delay] 1
    1988.  00:5B60  15                  	db $15		;[Note] 22
    1989.  00:5B61  C1                  	db $C1		;[Wait] 2
    1990.  00:5B62  11                  	db $11		;[Note] 18
    1991.  00:5B63                      				;[Skip delay] 2
    1992.  00:5B63  17                  	db $17		;[Note] 24
    1993.  00:5B64                      				;[Skip delay] 2
    1994.  00:5B64  11                  	db $11		;[Note] 18
    1995.  00:5B65                      				;[Skip delay] 2
    1996.  00:5B65  18                  	db $18		;[Note] 25
    1997.  00:5B66                      				;[Skip delay] 2
    1998.  00:5B66  10                  	db $10		;[Note] 17
    1999.  00:5B67  C1                  	db $C1		;[Wait..] 2
    2000.  00:5B68  A5 10               	db $A5, $10; slide-down
    2001.  00:5B6A  C0                  	db $C0		;[Wait] 1
    2002.  00:5B6B  AF 01               	db $AF, $01; slide-down rep
    2003.  00:5B6D                      				;[Skip delay] 1
    2004.  00:5B6D  10                  	db $10		;[Note] 17
    2005.  00:5B6E                      				;[Skip delay] 1
    2006.  00:5B6E  10                  	db $10		;[Note] 17
    2007.  00:5B6F                      				;[Skip delay] 1
    2008.  00:5B6F  13                  	db $13		;[Note] 20
    2009.  00:5B70  C1                  	db $C1		;[Wait] 2
    2010.  00:5B71  15                  	db $15		;[Note] 22
    2011.  00:5B72                      				;[Skip delay] 2
    2012.  00:5B72  15                  	db $15		;[Note] 22
    2013.  00:5B73  C0                  	db $C0		;[Wait] 1
    2014.  00:5B74  17                  	db $17		;[Note] 24
    2015.  00:5B75  A6 20               	db $A6, $20; tone-slide
    2016.  00:5B77                      				;[Skip delay] 1
    2017.  00:5B77  15                  	db $15		;[Note] 22
    2018.  00:5B78  C1                  	db $C1		;[Wait] 2
    2019.  00:5B79  13                  	db $13		;[Note] 20
    2020.  00:5B7A                      				;[Skip delay] 2
    2021.  00:5B7A  10                  	db $10		;[Note] 17
    2022.  00:5B7B                      				;[Skip delay] 2
    2023.  00:5B7B  BF                  	db $BF		;[End-Of-Track]
    2024.  00:5B7C                      .track_20:
    2025.  00:5B7C  28                  	db $28		;[Note] 41
    2026.  00:5B7D  6A                  	db $6A		;[Volume] 10
    2027.  00:5B7E  89                  	db $89		;[Instrument] 26
    2028.  00:5B7F  C1                  	db $C1		;[Wait] 2
    2029.  00:5B80  26                  	db $26		;[Note] 39
    2030.  00:5B81                      				;[Skip delay] 2
    2031.  00:5B81  24                  	db $24		;[Note] 37
    2032.  00:5B82                      				;[Skip delay] 2
    2033.  00:5B82  23                  	db $23		;[Note] 36
    2034.  00:5B83  C3                  	db $C3		;[Wait] 4
    2035.  00:5B84  24                  	db $24		;[Note] 37
    2036.  00:5B85                      				;[Skip delay] 4
    2037.  00:5B85  23                  	db $23		;[Note] 36
    2038.  00:5B86                      				;[Skip delay] 4
    2039.  00:5B86  24                  	db $24		;[Note] 37
    2040.  00:5B87  C1                  	db $C1		;[Wait] 2
    2041.  00:5B88  26                  	db $26		;[Note] 39
    2042.  00:5B89  C0                  	db $C0		;[Wait] 1
    2043.  00:5B8A  32                  	db $32		;[Note] 51
    2044.  00:5B8B  69                  	db $69		;[Volume] 9
    2045.  00:5B8C  7C                  	db $7C		;[Instrument] 13
    2046.  00:5B8D                      				;[Skip delay] 1
    2047.  00:5B8D  37                  	db $37		;[Note] 56
    2048.  00:5B8E                      				;[Skip delay] 1
    2049.  00:5B8E  3B                  	db $3B		;[Note] 60
    2050.  00:5B8F  6A                  	db $6A		;[Volume] 10
    2051.  00:5B90                      				;[Skip delay] 1
    2052.  00:5B90  3E                  	db $3E		;[Note] 63
    2053.  00:5B91  6B                  	db $6B		;[Volume] 11
    2054.  00:5B92                      				;[Skip delay] 1
    2055.  00:5B92  3B                  	db $3B		;[Note] 60
    2056.  00:5B93  6C                  	db $6C		;[Volume] 12
    2057.  00:5B94                      				;[Skip delay] 1
    2058.  00:5B94  37                  	db $37		;[Note] 56
    2059.  00:5B95  6D                  	db $6D		;[Volume] 13
    2060.  00:5B96                      				;[Skip delay] 1
    2061.  00:5B96  32                  	db $32		;[Note] 51
    2062.  00:5B97  6E                  	db $6E		;[Volume] 14
    2063.  00:5B98                      				;[Skip delay] 1
    2064.  00:5B98  3B                  	db $3B		;[Note] 60
    2065.  00:5B99  6D                  	db $6D		;[Volume] 13
    2066.  00:5B9A                      				;[Skip delay] 1
    2067.  00:5B9A  37                  	db $37		;[Note] 56
    2068.  00:5B9B  6C                  	db $6C		;[Volume] 12
    2069.  00:5B9C                      				;[Skip delay] 1
    2070.  00:5B9C  32                  	db $32		;[Note] 51
    2071.  00:5B9D                      				;[Skip delay] 1
    2072.  00:5B9D  2F                  	db $2F		;[Note] 48
    2073.  00:5B9E  6B                  	db $6B		;[Volume] 11
    2074.  00:5B9F                      				;[Skip delay] 1
    2075.  00:5B9F  28                  	db $28		;[Note] 41
    2076.  00:5BA0  6A                  	db $6A		;[Volume] 10
    2077.  00:5BA1  89                  	db $89		;[Instrument] 26
    2078.  00:5BA2  C1                  	db $C1		;[Wait] 2
    2079.  00:5BA3  26                  	db $26		;[Note] 39
    2080.  00:5BA4                      				;[Skip delay] 2
    2081.  00:5BA4  24                  	db $24		;[Note] 37
    2082.  00:5BA5                      				;[Skip delay] 2
    2083.  00:5BA5  23                  	db $23		;[Note] 36
    2084.  00:5BA6  C3                  	db $C3		;[Wait] 4
    2085.  00:5BA7  24                  	db $24		;[Note] 37
    2086.  00:5BA8                      				;[Skip delay] 4
    2087.  00:5BA8  23                  	db $23		;[Note] 36
    2088.  00:5BA9                      				;[Skip delay] 4
    2089.  00:5BA9  28                  	db $28		;[Note] 41
    2090.  00:5BAA  81                  	db $81		;[Instrument] 18
    2091.  00:5BAB  95 01               	db $95, $01	; track detune
    2092.  00:5BAD  C0                  	db $C0		;[Wait] 1
    2093.  00:5BAE  6B                  	db $6B		;[Volume] 11
    2094.  00:5BAF                      				;[Skip delay] 1
    2095.  00:5BAF  2B                  	db $2B		;[Note] 44
    2096.  00:5BB0  6C                  	db $6C		;[Volume] 12
    2097.  00:5BB1                      				;[Skip delay] 1
    2098.  00:5BB1  6D                  	db $6D		;[Volume] 13
    2099.  00:5BB2                      				;[Skip delay] 1
    2100.  00:5BB2  2D                  	db $2D		;[Note] 46
    2101.  00:5BB3  6E                  	db $6E		;[Volume] 14
    2102.  00:5BB4                      				;[Skip delay] 1
    2103.  00:5BB4  6F                  	db $6F		;[Volume] 15
    2104.  00:5BB5                      				;[Skip delay] 1
    2105.  00:5BB5  2D                  	db $2D		;[Note] 46
    2106.  00:5BB6                      				;[Skip delay] 1
    2107.  00:5BB6  2F                  	db $2F		;[Note] 48
    2108.  00:5BB7  A6 20               	db $A6, $20; tone-slide
    2109.  00:5BB9                      				;[Skip delay] 1
    2110.  00:5BB9  2D                  	db $2D		;[Note] 46
    2111.  00:5BBA  C0                  	db $C0		;[Wait..] 1
    2112.  00:5BBB  6A                  	db $6A		;[Volume] 10
    2113.  00:5BBC                      				;[Skip delay] 1
    2114.  00:5BBC  2B                  	db $2B		;[Note] 44
    2115.  00:5BBD  69                  	db $69		;[Volume] 9
    2116.  00:5BBE  C1                  	db $C1		;[Wait] 2
    2117.  00:5BBF  28                  	db $28		;[Note] 41
    2118.  00:5BC0  68                  	db $68		;[Volume] 8
    2119.  00:5BC1                      				;[Skip delay] 2
    2120.  00:5BC1  BF                  	db $BF		;[End-Of-Track]
    2121.  00:5BC2                      .track_21:
    2122.  00:5BC2  24                  	db $24		;[Note] 37
    2123.  00:5BC3  69                  	db $69		;[Volume] 9
    2124.  00:5BC4  87                  	db $87		;[Instrument] 24
    2125.  00:5BC5  C5                  	db $C5		;[Wait] 6
    2126.  00:5BC6  21                  	db $21		;[Note] 34
    2127.  00:5BC7  6A                  	db $6A		;[Volume] 10
    2128.  00:5BC8  C4                  	db $C4		;[Wait] 5
    2129.  00:5BC9  69                  	db $69		;[Volume] 9
    2130.  00:5BCA  C1                  	db $C1		;[Wait] 2
    2131.  00:5BCB  66                  	db $66		;[Volume] 6
    2132.  00:5BCC  C0                  	db $C0		;[Wait] 1
    2133.  00:5BCD  64                  	db $64		;[Volume] 4
    2134.  00:5BCE                      				;[Skip delay] 1
    2135.  00:5BCE  63                  	db $63		;[Volume] 3
    2136.  00:5BCF                      				;[Skip delay] 1
    2137.  00:5BCF  26                  	db $26		;[Note] 39
    2138.  00:5BD0  66                  	db $66		;[Volume] 6
    2139.  00:5BD1  C1                  	db $C1		;[Wait] 2
    2140.  00:5BD2  68                  	db $68		;[Volume] 8
    2141.  00:5BD3  C0                  	db $C0		;[Wait] 1
    2142.  00:5BD4  69                  	db $69		;[Volume] 9
    2143.  00:5BD5  C4                  	db $C4		;[Wait] 5
    2144.  00:5BD6  26                  	db $26		;[Note] 39
    2145.  00:5BD7  C4                  	db $C4		;[Wait..] 5
    2146.  00:5BD8  66                  	db $66		;[Volume] 6
    2147.  00:5BD9  C0                  	db $C0		;[Wait] 1
    2148.  00:5BDA  65                  	db $65		;[Volume] 5
    2149.  00:5BDB                      				;[Skip delay] 1
    2150.  00:5BDB  64                  	db $64		;[Volume] 4
    2151.  00:5BDC                      				;[Skip delay] 1
    2152.  00:5BDC  2D                  	db $2D		;[Note] 46
    2153.  00:5BDD  68                  	db $68		;[Volume] 8
    2154.  00:5BDE  C7                  	db $C7		;[Wait] 8
    2155.  00:5BDF  2F                  	db $2F		;[Note] 48
    2156.  00:5BE0                      				;[Skip delay] 8
    2157.  00:5BE0  34                  	db $34		;[Note] 53
    2158.  00:5BE1  C0                  	db $C0		;[Wait] 1
    2159.  00:5BE2  69                  	db $69		;[Volume] 9
    2160.  00:5BE3                      				;[Skip delay] 1
    2161.  00:5BE3  6A                  	db $6A		;[Volume] 10
    2162.  00:5BE4                      				;[Skip delay] 1
    2163.  00:5BE4  28                  	db $28		;[Note] 41
    2164.  00:5BE5  81                  	db $81		;[Instrument] 18
    2165.  00:5BE6  95 08               	db $95, $08	; track detune
    2166.  00:5BE8                      				;[Skip delay] 1
    2167.  00:5BE8  6B                  	db $6B		;[Volume] 11
    2168.  00:5BE9                      				;[Skip delay] 1
    2169.  00:5BE9  2B                  	db $2B		;[Note] 44
    2170.  00:5BEA  6C                  	db $6C		;[Volume] 12
    2171.  00:5BEB                      				;[Skip delay] 1
    2172.  00:5BEB  6D                  	db $6D		;[Volume] 13
    2173.  00:5BEC                      				;[Skip delay] 1
    2174.  00:5BEC  2D                  	db $2D		;[Note] 46
    2175.  00:5BED  6E                  	db $6E		;[Volume] 14
    2176.  00:5BEE                      				;[Skip delay] 1
    2177.  00:5BEE  6C                  	db $6C		;[Volume] 12
    2178.  00:5BEF                      				;[Skip delay] 1
    2179.  00:5BEF  2F                  	db $2F		;[Note] 48
    2180.  00:5BF0  C1                  	db $C1		;[Wait] 2
    2181.  00:5BF1  2D                  	db $2D		;[Note] 46
    2182.  00:5BF2  6D                  	db $6D		;[Volume] 13
    2183.  00:5BF3  C0                  	db $C0		;[Wait] 1
    2184.  00:5BF4  6A                  	db $6A		;[Volume] 10
    2185.  00:5BF5                      				;[Skip delay] 1
    2186.  00:5BF5  2B                  	db $2B		;[Note] 44
    2187.  00:5BF6  68                  	db $68		;[Volume] 8
    2188.  00:5BF7  C1                  	db $C1		;[Wait] 2
    2189.  00:5BF8  28                  	db $28		;[Note] 41
    2190.  00:5BF9  67                  	db $67		;[Volume] 7
    2191.  00:5BFA  C0                  	db $C0		;[Wait] 1
    2192.  00:5BFB  BF                  	db $BF		;[End-Of-Track]
    2193.  00:5BFC                      .track_22:
    2194.  00:5BFC  3B                  	db $3B		;[Note] 60
    2195.  00:5BFD  6E                  	db $6E		;[Volume] 14
    2196.  00:5BFE  7F                  	db $7F		;[Instrument] 16
    2197.  00:5BFF  C0                  	db $C0		;[Wait] 1
    2198.  00:5C00  3C                  	db $3C		;[Note] 61
    2199.  00:5C01  A6 04               	db $A6, $04; tone-slide
    2200.  00:5C03                      				;[Skip delay] 1
    2201.  00:5C03  3B                  	db $3B		;[Note] 60
    2202.  00:5C04  C1                  	db $C1		;[Wait] 2
    2203.  00:5C05  39                  	db $39		;[Note] 58
    2204.  00:5C06                      				;[Skip delay] 2
    2205.  00:5C06  3B                  	db $3B		;[Note] 60
    2206.  00:5C07  C1                  	db $C1		;[Wait..] 2
    2207.  00:5C08  67                  	db $67		;[Volume] 7
    2208.  00:5C09  C0                  	db $C0		;[Wait] 1
    2209.  00:5C0A  65                  	db $65		;[Volume] 5
    2210.  00:5C0B                      				;[Skip delay] 1
    2211.  00:5C0B  3C                  	db $3C		;[Note] 61
    2212.  00:5C0C  6A                  	db $6A		;[Volume] 10
    2213.  00:5C0D  C1                  	db $C1		;[Wait] 2
    2214.  00:5C0E  A7 67               	db $A7, $67	;[CMD vibrato]
    2215.  00:5C10  C0                  	db $C0		;[Wait] 1
    2216.  00:5C11  B1 01               	db $B1, $01	;[CMD vibrato] rep
    2217.  00:5C13                      				;[Skip delay] 1
    2218.  00:5C13  40                  	db $40		;[Note] 65
    2219.  00:5C14  C1                  	db $C1		;[Wait] 2
    2220.  00:5C15  67                  	db $67		;[Volume] 7
    2221.  00:5C16  A7 67               	db $A7, $67	;[CMD vibrato]
    2222.  00:5C18  C0                  	db $C0		;[Wait] 1
    2223.  00:5C19  65                  	db $65		;[Volume] 5
    2224.  00:5C1A  B1 01               	db $B1, $01	;[CMD vibrato] rep
    2225.  00:5C1C                      				;[Skip delay] 1
    2226.  00:5C1C  3E                  	db $3E		;[Note] 63
    2227.  00:5C1D  6D                  	db $6D		;[Volume] 13
    2228.  00:5C1E  C1                  	db $C1		;[Wait] 2
    2229.  00:5C1F  3E                  	db $3E		;[Note] 63
    2230.  00:5C20  C2                  	db $C2		;[Wait] 3
    2231.  00:5C21  A7 56               	db $A7, $56	;[CMD vibrato]
    2232.  00:5C23  C0                  	db $C0		;[Wait] 1
    2233.  00:5C24  B1 03               	db $B1, $03	;[CMD vibrato] rep
    2234.  00:5C26  C2                  	db $C2		;[Wait] 3
    2235.  00:5C27  A7 55               	db $A7, $55	;[CMD vibrato]
    2236.  00:5C29  C0                  	db $C0		;[Wait] 1
    2237.  00:5C2A  B1 04               	db $B1, $04	;[CMD vibrato] rep
    2238.  00:5C2C                      				;[Skip delay] 1
    2239.  00:5C2C  6A                  	db $6A		;[Volume] 10
    2240.  00:5C2D                      				;[Skip delay] 1
    2241.  00:5C2D  68                  	db $68		;[Volume] 8
    2242.  00:5C2E                      				;[Skip delay] 1
    2243.  00:5C2E  66                  	db $66		;[Volume] 6
    2244.  00:5C2F                      				;[Skip delay] 1
    2245.  00:5C2F  3B                  	db $3B		;[Note] 60
    2246.  00:5C30  6D                  	db $6D		;[Volume] 13
    2247.  00:5C31                      				;[Skip delay] 1
    2248.  00:5C31  3C                  	db $3C		;[Note] 61
    2249.  00:5C32  A6 05               	db $A6, $05; tone-slide
    2250.  00:5C34                      				;[Skip delay] 1
    2251.  00:5C34  3B                  	db $3B		;[Note] 60
    2252.  00:5C35  C1                  	db $C1		;[Wait] 2
    2253.  00:5C36  3C                  	db $3C		;[Note] 61
    2254.  00:5C37                      				;[Skip delay] 2
    2255.  00:5C37  3E                  	db $3E		;[Note] 63
    2256.  00:5C38  C1                  	db $C1		;[Wait..] 2
    2257.  00:5C39  A7 67               	db $A7, $67	;[CMD vibrato]
    2258.  00:5C3B  C0                  	db $C0		;[Wait] 1
    2259.  00:5C3C  B1 01               	db $B1, $01	;[CMD vibrato] rep
    2260.  00:5C3E                      				;[Skip delay] 1
    2261.  00:5C3E  3C                  	db $3C		;[Note] 61
    2262.  00:5C3F  6F                  	db $6F		;[Volume] 15
    2263.  00:5C40  C1                  	db $C1		;[Wait] 2
    2264.  00:5C41  3B                  	db $3B		;[Note] 60
    2265.  00:5C42                      				;[Skip delay] 2
    2266.  00:5C42  34                  	db $34		;[Note] 53
    2267.  00:5C43                      				;[Skip delay] 2
    2268.  00:5C43  60                  	db $60		;[Note] 97
    2269.  00:5C44  A5 03               	db $A5, $03; slide-down
    2270.  00:5C46  C0                  	db $C0		;[Wait] 1
    2271.  00:5C47  AF 01               	db $AF, $01; slide-down rep
    2272.  00:5C49                      				;[Skip delay] 1
    2273.  00:5C49  1C                  	db $1C		;[Note] 29
    2274.  00:5C4A  C1                  	db $C1		;[Wait] 2
    2275.  00:5C4B  1F                  	db $1F		;[Note] 32
    2276.  00:5C4C                      				;[Skip delay] 2
    2277.  00:5C4C  21                  	db $21		;[Note] 34
    2278.  00:5C4D                      				;[Skip delay] 2
    2279.  00:5C4D  21                  	db $21		;[Note] 34
    2280.  00:5C4E  C0                  	db $C0		;[Wait] 1
    2281.  00:5C4F  23                  	db $23		;[Note] 36
    2282.  00:5C50  A6 19               	db $A6, $19; tone-slide
    2283.  00:5C52                      				;[Skip delay] 1
    2284.  00:5C52  21                  	db $21		;[Note] 34
    2285.  00:5C53  C1                  	db $C1		;[Wait] 2
    2286.  00:5C54  1F                  	db $1F		;[Note] 32
    2287.  00:5C55                      				;[Skip delay] 2
    2288.  00:5C55  1C                  	db $1C		;[Note] 29
    2289.  00:5C56                      				;[Skip delay] 2
    2290.  00:5C56  BF                  	db $BF		;[End-Of-Track]
    2291.  00:5C57                      .track_23:
    2292.  00:5C57  37                  	db $37		;[Note] 56
    2293.  00:5C58  6D                  	db $6D		;[Volume] 13
    2294.  00:5C59  7F                  	db $7F		;[Instrument] 16
    2295.  00:5C5A  95 08               	db $95, $08	; track detune
    2296.  00:5C5C  C0                  	db $C0		;[Wait] 1
    2297.  00:5C5D  39                  	db $39		;[Note] 58
    2298.  00:5C5E  A6 04               	db $A6, $04; tone-slide
    2299.  00:5C60                      				;[Skip delay] 1
    2300.  00:5C60  37                  	db $37		;[Note] 56
    2301.  00:5C61  C1                  	db $C1		;[Wait] 2
    2302.  00:5C62  34                  	db $34		;[Note] 53
    2303.  00:5C63                      				;[Skip delay] 2
    2304.  00:5C63  37                  	db $37		;[Note] 56
    2305.  00:5C64  C1                  	db $C1		;[Wait..] 2
    2306.  00:5C65  67                  	db $67		;[Volume] 7
    2307.  00:5C66  C0                  	db $C0		;[Wait] 1
    2308.  00:5C67  65                  	db $65		;[Volume] 5
    2309.  00:5C68                      				;[Skip delay] 1
    2310.  00:5C68  39                  	db $39		;[Note] 58
    2311.  00:5C69  6A                  	db $6A		;[Volume] 10
    2312.  00:5C6A  C3                  	db $C3		;[Wait] 4
    2313.  00:5C6B  3C                  	db $3C		;[Note] 61
    2314.  00:5C6C  C1                  	db $C1		;[Wait] 2
    2315.  00:5C6D  67                  	db $67		;[Volume] 7
    2316.  00:5C6E  C0                  	db $C0		;[Wait] 1
    2317.  00:5C6F  65                  	db $65		;[Volume] 5
    2318.  00:5C70                      				;[Skip delay] 1
    2319.  00:5C70  3B                  	db $3B		;[Note] 60
    2320.  00:5C71  6A                  	db $6A		;[Volume] 10
    2321.  00:5C72  C1                  	db $C1		;[Wait] 2
    2322.  00:5C73  3B                  	db $3B		;[Note] 60
    2323.  00:5C74  C8                  	db $C8		;[Wait] 9
    2324.  00:5C75  69                  	db $69		;[Volume] 9
    2325.  00:5C76  C0                  	db $C0		;[Wait] 1
    2326.  00:5C77  68                  	db $68		;[Volume] 8
    2327.  00:5C78                      				;[Skip delay] 1
    2328.  00:5C78  64                  	db $64		;[Volume] 4
    2329.  00:5C79                      				;[Skip delay] 1
    2330.  00:5C79  37                  	db $37		;[Note] 56
    2331.  00:5C7A  6A                  	db $6A		;[Volume] 10
    2332.  00:5C7B                      				;[Skip delay] 1
    2333.  00:5C7B  39                  	db $39		;[Note] 58
    2334.  00:5C7C  A6 05               	db $A6, $05; tone-slide
    2335.  00:5C7E                      				;[Skip delay] 1
    2336.  00:5C7E  37                  	db $37		;[Note] 56
    2337.  00:5C7F  C1                  	db $C1		;[Wait] 2
    2338.  00:5C80  39                  	db $39		;[Note] 58
    2339.  00:5C81                      				;[Skip delay] 2
    2340.  00:5C81  3B                  	db $3B		;[Note] 60
    2341.  00:5C82  C3                  	db $C3		;[Wait] 4
    2342.  00:5C83  39                  	db $39		;[Note] 58
    2343.  00:5C84  6F                  	db $6F		;[Volume] 15
    2344.  00:5C85  C1                  	db $C1		;[Wait] 2
    2345.  00:5C86  37                  	db $37		;[Note] 56
    2346.  00:5C87                      				;[Skip delay] 2
    2347.  00:5C87  2F                  	db $2F		;[Note] 48
    2348.  00:5C88                      				;[Skip delay] 2
    2349.  00:5C88  60                  	db $60		;[Note] 97
    2350.  00:5C89  A5 03               	db $A5, $03; slide-down
    2351.  00:5C8B  C0                  	db $C0		;[Wait] 1
    2352.  00:5C8C  AF 01               	db $AF, $01; slide-down rep
    2353.  00:5C8E                      				;[Skip delay] 1
    2354.  00:5C8E  23                  	db $23		;[Note] 36
    2355.  00:5C8F  C1                  	db $C1		;[Wait] 2
    2356.  00:5C90  26                  	db $26		;[Note] 39
    2357.  00:5C91                      				;[Skip delay] 2
    2358.  00:5C91  28                  	db $28		;[Note] 41
    2359.  00:5C92                      				;[Skip delay] 2
    2360.  00:5C92  28                  	db $28		;[Note] 41
    2361.  00:5C93  C0                  	db $C0		;[Wait] 1
    2362.  00:5C94  2A                  	db $2A		;[Note] 43
    2363.  00:5C95  A6 19               	db $A6, $19; tone-slide
    2364.  00:5C97                      				;[Skip delay] 1
    2365.  00:5C97  28                  	db $28		;[Note] 41
    2366.  00:5C98  C1                  	db $C1		;[Wait] 2
    2367.  00:5C99  26                  	db $26		;[Note] 39
    2368.  00:5C9A                      				;[Skip delay] 2
    2369.  00:5C9A  23                  	db $23		;[Note] 36
    2370.  00:5C9B                      				;[Skip delay] 2
    2371.  00:5C9B  BF                  	db $BF		;[End-Of-Track]
    2372.  00:5C9C                      .track_24:
    2373.  00:5C9C  15                  	db $15		;[Note] 22
    2374.  00:5C9D  76                  	db $76		;[Instrument] 7
    2375.  00:5C9E  C1                  	db $C1		;[Wait] 2
    2376.  00:5C9F  15                  	db $15		;[Note] 22
    2377.  00:5CA0  C0                  	db $C0		;[Wait] 1
    2378.  00:5CA1  15                  	db $15		;[Note] 22
    2379.  00:5CA2                      				;[Skip delay] 1
    2380.  00:5CA2  18                  	db $18		;[Note] 25
    2381.  00:5CA3  C1                  	db $C1		;[Wait] 2
    2382.  00:5CA4  15                  	db $15		;[Note] 22
    2383.  00:5CA5                      				;[Skip delay] 2
    2384.  00:5CA5  1A                  	db $1A		;[Note] 27
    2385.  00:5CA6                      				;[Skip delay] 2
    2386.  00:5CA6  15                  	db $15		;[Note] 22
    2387.  00:5CA7                      				;[Skip delay] 2
    2388.  00:5CA7  1C                  	db $1C		;[Note] 29
    2389.  00:5CA8                      				;[Skip delay] 2
    2390.  00:5CA8  13                  	db $13		;[Note] 20
    2391.  00:5CA9  C1                  	db $C1		;[Wait..] 2
    2392.  00:5CAA  A5 10               	db $A5, $10; slide-down
    2393.  00:5CAC  C0                  	db $C0		;[Wait] 1
    2394.  00:5CAD  AF 01               	db $AF, $01; slide-down rep
    2395.  00:5CAF                      				;[Skip delay] 1
    2396.  00:5CAF  13                  	db $13		;[Note] 20
    2397.  00:5CB0                      				;[Skip delay] 1
    2398.  00:5CB0  13                  	db $13		;[Note] 20
    2399.  00:5CB1                      				;[Skip delay] 1
    2400.  00:5CB1  17                  	db $17		;[Note] 24
    2401.  00:5CB2  C1                  	db $C1		;[Wait] 2
    2402.  00:5CB3  13                  	db $13		;[Note] 20
    2403.  00:5CB4                      				;[Skip delay] 2
    2404.  00:5CB4  18                  	db $18		;[Note] 25
    2405.  00:5CB5                      				;[Skip delay] 2
    2406.  00:5CB5  13                  	db $13		;[Note] 20
    2407.  00:5CB6                      				;[Skip delay] 2
    2408.  00:5CB6  1A                  	db $1A		;[Note] 27
    2409.  00:5CB7                      				;[Skip delay] 2
    2410.  00:5CB7  13                  	db $13		;[Note] 20
    2411.  00:5CB8                      				;[Skip delay] 2
    2412.  00:5CB8  11                  	db $11		;[Note] 18
    2413.  00:5CB9                      				;[Skip delay] 2
    2414.  00:5CB9  11                  	db $11		;[Note] 18
    2415.  00:5CBA  C0                  	db $C0		;[Wait] 1
    2416.  00:5CBB  11                  	db $11		;[Note] 18
    2417.  00:5CBC                      				;[Skip delay] 1
    2418.  00:5CBC  15                  	db $15		;[Note] 22
    2419.  00:5CBD  C1                  	db $C1		;[Wait] 2
    2420.  00:5CBE  11                  	db $11		;[Note] 18
    2421.  00:5CBF                      				;[Skip delay] 2
    2422.  00:5CBF  17                  	db $17		;[Note] 24
    2423.  00:5CC0                      				;[Skip delay] 2
    2424.  00:5CC0  11                  	db $11		;[Note] 18
    2425.  00:5CC1                      				;[Skip delay] 2
    2426.  00:5CC1  18                  	db $18		;[Note] 25
    2427.  00:5CC2                      				;[Skip delay] 2
    2428.  00:5CC2  10                  	db $10		;[Note] 17
    2429.  00:5CC3                      				;[Skip delay] 2
    2430.  00:5CC3  10                  	db $10		;[Note] 17
    2431.  00:5CC4                      				;[Skip delay] 2
    2432.  00:5CC4  10                  	db $10		;[Note] 17
    2433.  00:5CC5                      				;[Skip delay] 2
    2434.  00:5CC5  14                  	db $14		;[Note] 21
    2435.  00:5CC6                      				;[Skip delay] 2
    2436.  00:5CC6  10                  	db $10		;[Note] 17
    2437.  00:5CC7                      				;[Skip delay] 2
    2438.  00:5CC7  10                  	db $10		;[Note] 17
    2439.  00:5CC8                      				;[Skip delay] 2
    2440.  00:5CC8  10                  	db $10		;[Note] 17
    2441.  00:5CC9  C0                  	db $C0		;[Wait] 1
    2442.  00:5CCA  10                  	db $10		;[Note] 17
    2443.  00:5CCB                      				;[Skip delay] 1
    2444.  00:5CCB  13                  	db $13		;[Note] 20
    2445.  00:5CCC  C1                  	db $C1		;[Wait] 2
    2446.  00:5CCD  13                  	db $13		;[Note] 20
    2447.  00:5CCE  C0                  	db $C0		;[Wait] 1
    2448.  00:5CCF  13                  	db $13		;[Note] 20
    2449.  00:5CD0                      				;[Skip delay] 1
    2450.  00:5CD0  BF                  	db $BF		;[End-Of-Track]
    2451.  00:5CD1                      .track_25:
    2452.  00:5CD1  2D                  	db $2D		;[Note] 46
    2453.  00:5CD2  77                  	db $77		;[Instrument] 8
    2454.  00:5CD3  C1                  	db $C1		;[Wait] 2
    2455.  00:5CD4  2B                  	db $2B		;[Note] 44
    2456.  00:5CD5                      				;[Skip delay] 2
    2457.  00:5CD5  28                  	db $28		;[Note] 41
    2458.  00:5CD6                      				;[Skip delay] 2
    2459.  00:5CD6  2B                  	db $2B		;[Note] 44
    2460.  00:5CD7  C1                  	db $C1		;[Wait..] 2
    2461.  00:5CD8  A7 55               	db $A7, $55	;[CMD vibrato]
    2462.  00:5CDA  C0                  	db $C0		;[Wait] 1
    2463.  00:5CDB  B1 03               	db $B1, $03	;[CMD vibrato] rep
    2464.  00:5CDD  C2                  	db $C2		;[Wait] 3
    2465.  00:5CDE  2D                  	db $2D		;[Note] 46
    2466.  00:5CDF  C1                  	db $C1		;[Wait] 2
    2467.  00:5CE0  28                  	db $28		;[Note] 41
    2468.  00:5CE1  C2                  	db $C2		;[Wait] 3
    2469.  00:5CE2  A7 55               	db $A7, $55	;[CMD vibrato]
    2470.  00:5CE4  C0                  	db $C0		;[Wait] 1
    2471.  00:5CE5  B1 05               	db $B1, $05	;[CMD vibrato] rep
    2472.  00:5CE7  C4                  	db $C4		;[Wait] 5
    2473.  00:5CE8  A5 10               	db $A5, $10; slide-down
    2474.  00:5CEA  C0                  	db $C0		;[Wait] 1
    2475.  00:5CEB  AF 03               	db $AF, $03; slide-down rep
    2476.  00:5CED  C2                  	db $C2		;[Wait] 3
    2477.  00:5CEE  60                  	db $60		;[Note] 97
    2478.  00:5CEF  C4                  	db $C4		;[Wait] 5
    2479.  00:5CF0  05                  	db $05		;[Note] 6
    2480.  00:5CF1  6F                  	db $6F		;[Volume] 15
    2481.  00:5CF2  76                  	db $76		;[Instrument] 7
    2482.  00:5CF3  C1                  	db $C1		;[Wait] 2
    2483.  00:5CF4  05                  	db $05		;[Note] 6
    2484.  00:5CF5  C0                  	db $C0		;[Wait] 1
    2485.  00:5CF6  05                  	db $05		;[Note] 6
    2486.  00:5CF7                      				;[Skip delay] 1
    2487.  00:5CF7  09                  	db $09		;[Note] 10
    2488.  00:5CF8  C1                  	db $C1		;[Wait] 2
    2489.  00:5CF9  05                  	db $05		;[Note] 6
    2490.  00:5CFA                      				;[Skip delay] 2
    2491.  00:5CFA  0B                  	db $0B		;[Note] 12
    2492.  00:5CFB                      				;[Skip delay] 2
    2493.  00:5CFB  05                  	db $05		;[Note] 6
    2494.  00:5CFC                      				;[Skip delay] 2
    2495.  00:5CFC  0C                  	db $0C		;[Note] 13
    2496.  00:5CFD                      				;[Skip delay] 2
    2497.  00:5CFD  04                  	db $04		;[Note] 5
    2498.  00:5CFE                      				;[Skip delay] 2
    2499.  00:5CFE  04                  	db $04		;[Note] 5
    2500.  00:5CFF                      				;[Skip delay] 2
    2501.  00:5CFF  04                  	db $04		;[Note] 5
    2502.  00:5D00                      				;[Skip delay] 2
    2503.  00:5D00  08                  	db $08		;[Note] 9
    2504.  00:5D01                      				;[Skip delay] 2
    2505.  00:5D01  04                  	db $04		;[Note] 5
    2506.  00:5D02                      				;[Skip delay] 2
    2507.  00:5D02  04                  	db $04		;[Note] 5
    2508.  00:5D03                      				;[Skip delay] 2
    2509.  00:5D03  04                  	db $04		;[Note] 5
    2510.  00:5D04  C0                  	db $C0		;[Wait] 1
    2511.  00:5D05  04                  	db $04		;[Note] 5
    2512.  00:5D06                      				;[Skip delay] 1
    2513.  00:5D06  07                  	db $07		;[Note] 8
    2514.  00:5D07  C1                  	db $C1		;[Wait] 2
    2515.  00:5D08  07                  	db $07		;[Note] 8
    2516.  00:5D09  C0                  	db $C0		;[Wait] 1
    2517.  00:5D0A  07                  	db $07		;[Note] 8
    2518.  00:5D0B                      				;[Skip delay] 1
    2519.  00:5D0B  BF                  	db $BF		;[End-Of-Track]
    2520.  00:5D0C                      .track_26:
    2521.  00:5D0C  15                  	db $15		;[Note] 22
    2522.  00:5D0D  79                  	db $79		;[Instrument] 10
    2523.  00:5D0E  C1                  	db $C1		;[Wait] 2
    2524.  00:5D0F  15                  	db $15		;[Note] 22
    2525.  00:5D10  C0                  	db $C0		;[Wait] 1
    2526.  00:5D11  15                  	db $15		;[Note] 22
    2527.  00:5D12                      				;[Skip delay] 1
    2528.  00:5D12  18                  	db $18		;[Note] 25
    2529.  00:5D13  C1                  	db $C1		;[Wait] 2
    2530.  00:5D14  15                  	db $15		;[Note] 22
    2531.  00:5D15                      				;[Skip delay] 2
    2532.  00:5D15  1A                  	db $1A		;[Note] 27
    2533.  00:5D16                      				;[Skip delay] 2
    2534.  00:5D16  15                  	db $15		;[Note] 22
    2535.  00:5D17                      				;[Skip delay] 2
    2536.  00:5D17  1C                  	db $1C		;[Note] 29
    2537.  00:5D18                      				;[Skip delay] 2
    2538.  00:5D18  13                  	db $13		;[Note] 20
    2539.  00:5D19  C1                  	db $C1		;[Wait..] 2
    2540.  00:5D1A  A5 10               	db $A5, $10; slide-down
    2541.  00:5D1C  C0                  	db $C0		;[Wait] 1
    2542.  00:5D1D  AF 01               	db $AF, $01; slide-down rep
    2543.  00:5D1F                      				;[Skip delay] 1
    2544.  00:5D1F  13                  	db $13		;[Note] 20
    2545.  00:5D20                      				;[Skip delay] 1
    2546.  00:5D20  13                  	db $13		;[Note] 20
    2547.  00:5D21                      				;[Skip delay] 1
    2548.  00:5D21  17                  	db $17		;[Note] 24
    2549.  00:5D22  C1                  	db $C1		;[Wait] 2
    2550.  00:5D23  13                  	db $13		;[Note] 20
    2551.  00:5D24                      				;[Skip delay] 2
    2552.  00:5D24  18                  	db $18		;[Note] 25
    2553.  00:5D25                      				;[Skip delay] 2
    2554.  00:5D25  13                  	db $13		;[Note] 20
    2555.  00:5D26                      				;[Skip delay] 2
    2556.  00:5D26  1A                  	db $1A		;[Note] 27
    2557.  00:5D27                      				;[Skip delay] 2
    2558.  00:5D27  13                  	db $13		;[Note] 20
    2559.  00:5D28                      				;[Skip delay] 2
    2560.  00:5D28  11                  	db $11		;[Note] 18
    2561.  00:5D29                      				;[Skip delay] 2
    2562.  00:5D29  11                  	db $11		;[Note] 18
    2563.  00:5D2A  C0                  	db $C0		;[Wait] 1
    2564.  00:5D2B  11                  	db $11		;[Note] 18
    2565.  00:5D2C                      				;[Skip delay] 1
    2566.  00:5D2C  15                  	db $15		;[Note] 22
    2567.  00:5D2D  C1                  	db $C1		;[Wait] 2
    2568.  00:5D2E  11                  	db $11		;[Note] 18
    2569.  00:5D2F                      				;[Skip delay] 2
    2570.  00:5D2F  17                  	db $17		;[Note] 24
    2571.  00:5D30                      				;[Skip delay] 2
    2572.  00:5D30  11                  	db $11		;[Note] 18
    2573.  00:5D31                      				;[Skip delay] 2
    2574.  00:5D31  18                  	db $18		;[Note] 25
    2575.  00:5D32                      				;[Skip delay] 2
    2576.  00:5D32  10                  	db $10		;[Note] 17
    2577.  00:5D33                      				;[Skip delay] 2
    2578.  00:5D33  10                  	db $10		;[Note] 17
    2579.  00:5D34                      				;[Skip delay] 2
    2580.  00:5D34  10                  	db $10		;[Note] 17
    2581.  00:5D35                      				;[Skip delay] 2
    2582.  00:5D35  14                  	db $14		;[Note] 21
    2583.  00:5D36                      				;[Skip delay] 2
    2584.  00:5D36  10                  	db $10		;[Note] 17
    2585.  00:5D37                      				;[Skip delay] 2
    2586.  00:5D37  10                  	db $10		;[Note] 17
    2587.  00:5D38                      				;[Skip delay] 2
    2588.  00:5D38  10                  	db $10		;[Note] 17
    2589.  00:5D39  C0                  	db $C0		;[Wait] 1
    2590.  00:5D3A  10                  	db $10		;[Note] 17
    2591.  00:5D3B                      				;[Skip delay] 1
    2592.  00:5D3B  13                  	db $13		;[Note] 20
    2593.  00:5D3C  C1                  	db $C1		;[Wait] 2
    2594.  00:5D3D  13                  	db $13		;[Note] 20
    2595.  00:5D3E  C0                  	db $C0		;[Wait] 1
    2596.  00:5D3F  13                  	db $13		;[Note] 20
    2597.  00:5D40                      				;[Skip delay] 1
    2598.  00:5D40  BF                  	db $BF		;[End-Of-Track]
    2599.  00:5D41                      .track_27:
    2600.  00:5D41  28                  	db $28		;[Note] 41
    2601.  00:5D42  6A                  	db $6A		;[Volume] 10
    2602.  00:5D43  89                  	db $89		;[Instrument] 26
    2603.  00:5D44  C1                  	db $C1		;[Wait] 2
    2604.  00:5D45  26                  	db $26		;[Note] 39
    2605.  00:5D46                      				;[Skip delay] 2
    2606.  00:5D46  24                  	db $24		;[Note] 37
    2607.  00:5D47                      				;[Skip delay] 2
    2608.  00:5D47  23                  	db $23		;[Note] 36
    2609.  00:5D48  C3                  	db $C3		;[Wait] 4
    2610.  00:5D49  24                  	db $24		;[Note] 37
    2611.  00:5D4A                      				;[Skip delay] 4
    2612.  00:5D4A  23                  	db $23		;[Note] 36
    2613.  00:5D4B                      				;[Skip delay] 4
    2614.  00:5D4B  24                  	db $24		;[Note] 37
    2615.  00:5D4C  C1                  	db $C1		;[Wait] 2
    2616.  00:5D4D  26                  	db $26		;[Note] 39
    2617.  00:5D4E  C0                  	db $C0		;[Wait] 1
    2618.  00:5D4F  32                  	db $32		;[Note] 51
    2619.  00:5D50  69                  	db $69		;[Volume] 9
    2620.  00:5D51  7C                  	db $7C		;[Instrument] 13
    2621.  00:5D52                      				;[Skip delay] 1
    2622.  00:5D52  37                  	db $37		;[Note] 56
    2623.  00:5D53                      				;[Skip delay] 1
    2624.  00:5D53  3B                  	db $3B		;[Note] 60
    2625.  00:5D54  6A                  	db $6A		;[Volume] 10
    2626.  00:5D55                      				;[Skip delay] 1
    2627.  00:5D55  3E                  	db $3E		;[Note] 63
    2628.  00:5D56  6B                  	db $6B		;[Volume] 11
    2629.  00:5D57                      				;[Skip delay] 1
    2630.  00:5D57  3B                  	db $3B		;[Note] 60
    2631.  00:5D58  6C                  	db $6C		;[Volume] 12
    2632.  00:5D59                      				;[Skip delay] 1
    2633.  00:5D59  37                  	db $37		;[Note] 56
    2634.  00:5D5A                      				;[Skip delay] 1
    2635.  00:5D5A  32                  	db $32		;[Note] 51
    2636.  00:5D5B  6A                  	db $6A		;[Volume] 10
    2637.  00:5D5C                      				;[Skip delay] 1
    2638.  00:5D5C  3B                  	db $3B		;[Note] 60
    2639.  00:5D5D                      				;[Skip delay] 1
    2640.  00:5D5D  37                  	db $37		;[Note] 56
    2641.  00:5D5E  67                  	db $67		;[Volume] 7
    2642.  00:5D5F                      				;[Skip delay] 1
    2643.  00:5D5F  32                  	db $32		;[Note] 51
    2644.  00:5D60                      				;[Skip delay] 1
    2645.  00:5D60  2F                  	db $2F		;[Note] 48
    2646.  00:5D61  66                  	db $66		;[Volume] 6
    2647.  00:5D62                      				;[Skip delay] 1
    2648.  00:5D62  28                  	db $28		;[Note] 41
    2649.  00:5D63  6A                  	db $6A		;[Volume] 10
    2650.  00:5D64  89                  	db $89		;[Instrument] 26
    2651.  00:5D65  C1                  	db $C1		;[Wait] 2
    2652.  00:5D66  26                  	db $26		;[Note] 39
    2653.  00:5D67                      				;[Skip delay] 2
    2654.  00:5D67  24                  	db $24		;[Note] 37
    2655.  00:5D68                      				;[Skip delay] 2
    2656.  00:5D68  23                  	db $23		;[Note] 36
    2657.  00:5D69  C3                  	db $C3		;[Wait] 4
    2658.  00:5D6A  24                  	db $24		;[Note] 37
    2659.  00:5D6B                      				;[Skip delay] 4
    2660.  00:5D6B  23                  	db $23		;[Note] 36
    2661.  00:5D6C  C1                  	db $C1		;[Wait] 2
    2662.  00:5D6D  28                  	db $28		;[Note] 41
    2663.  00:5D6E  7C                  	db $7C		;[Instrument] 13
    2664.  00:5D6F  95 00               	db $95, $00	; track detune
    2665.  00:5D71  C0                  	db $C0		;[Wait] 1
    2666.  00:5D72  2C                  	db $2C		;[Note] 45
    2667.  00:5D73                      				;[Skip delay] 1
    2668.  00:5D73  2C                  	db $2C		;[Note] 45
    2669.  00:5D74                      				;[Skip delay] 1
    2670.  00:5D74  34                  	db $34		;[Note] 53
    2671.  00:5D75                      				;[Skip delay] 1
    2672.  00:5D75  2C                  	db $2C		;[Note] 45
    2673.  00:5D76                      				;[Skip delay] 1
    2674.  00:5D76  2F                  	db $2F		;[Note] 48
    2675.  00:5D77                      				;[Skip delay] 1
    2676.  00:5D77  34                  	db $34		;[Note] 53
    2677.  00:5D78                      				;[Skip delay] 1
    2678.  00:5D78  38                  	db $38		;[Note] 57
    2679.  00:5D79                      				;[Skip delay] 1
    2680.  00:5D79  2F                  	db $2F		;[Note] 48
    2681.  00:5D7A                      				;[Skip delay] 1
    2682.  00:5D7A  34                  	db $34		;[Note] 53
    2683.  00:5D7B                      				;[Skip delay] 1
    2684.  00:5D7B  38                  	db $38		;[Note] 57
    2685.  00:5D7C                      				;[Skip delay] 1
    2686.  00:5D7C  3B                  	db $3B		;[Note] 60
    2687.  00:5D7D                      				;[Skip delay] 1
    2688.  00:5D7D  34                  	db $34		;[Note] 53
    2689.  00:5D7E                      				;[Skip delay] 1
    2690.  00:5D7E  38                  	db $38		;[Note] 57
    2691.  00:5D7F                      				;[Skip delay] 1
    2692.  00:5D7F  3B                  	db $3B		;[Note] 60
    2693.  00:5D80                      				;[Skip delay] 1
    2694.  00:5D80  40                  	db $40		;[Note] 65
    2695.  00:5D81                      				;[Skip delay] 1
    2696.  00:5D81  BF                  	db $BF		;[End-Of-Track]
    2697.  00:5D82                      .track_28:
    2698.  00:5D82  24                  	db $24		;[Note] 37
    2699.  00:5D83  69                  	db $69		;[Volume] 9
    2700.  00:5D84  87                  	db $87		;[Instrument] 24
    2701.  00:5D85  C5                  	db $C5		;[Wait] 6
    2702.  00:5D86  21                  	db $21		;[Note] 34
    2703.  00:5D87  6A                  	db $6A		;[Volume] 10
    2704.  00:5D88  C4                  	db $C4		;[Wait] 5
    2705.  00:5D89  69                  	db $69		;[Volume] 9
    2706.  00:5D8A  C1                  	db $C1		;[Wait] 2
    2707.  00:5D8B  66                  	db $66		;[Volume] 6
    2708.  00:5D8C  C0                  	db $C0		;[Wait] 1
    2709.  00:5D8D  64                  	db $64		;[Volume] 4
    2710.  00:5D8E                      				;[Skip delay] 1
    2711.  00:5D8E  63                  	db $63		;[Volume] 3
    2712.  00:5D8F                      				;[Skip delay] 1
    2713.  00:5D8F  26                  	db $26		;[Note] 39
    2714.  00:5D90  66                  	db $66		;[Volume] 6
    2715.  00:5D91  C1                  	db $C1		;[Wait] 2
    2716.  00:5D92  68                  	db $68		;[Volume] 8
    2717.  00:5D93  C0                  	db $C0		;[Wait] 1
    2718.  00:5D94  69                  	db $69		;[Volume] 9
    2719.  00:5D95  C4                  	db $C4		;[Wait] 5
    2720.  00:5D96  26                  	db $26		;[Note] 39
    2721.  00:5D97  C4                  	db $C4		;[Wait..] 5
    2722.  00:5D98  66                  	db $66		;[Volume] 6
    2723.  00:5D99  C0                  	db $C0		;[Wait] 1
    2724.  00:5D9A  65                  	db $65		;[Volume] 5
    2725.  00:5D9B                      				;[Skip delay] 1
    2726.  00:5D9B  64                  	db $64		;[Volume] 4
    2727.  00:5D9C                      				;[Skip delay] 1
    2728.  00:5D9C  23                  	db $23		;[Note] 36
    2729.  00:5D9D  69                  	db $69		;[Volume] 9
    2730.  00:5D9E  83                  	db $83		;[Instrument] 20
    2731.  00:5D9F                      				;[Skip delay] 1
    2732.  00:5D9F  24                  	db $24		;[Note] 37
    2733.  00:5DA0  A6 06               	db $A6, $06; tone-slide
    2734.  00:5DA2                      				;[Skip delay] 1
    2735.  00:5DA2  23                  	db $23		;[Note] 36
    2736.  00:5DA3  C1                  	db $C1		;[Wait] 2
    2737.  00:5DA4  24                  	db $24		;[Note] 37
    2738.  00:5DA5                      				;[Skip delay] 2
    2739.  00:5DA5  26                  	db $26		;[Note] 39
    2740.  00:5DA6  C3                  	db $C3		;[Wait] 4
    2741.  00:5DA7  28                  	db $28		;[Note] 41
    2742.  00:5DA8  C1                  	db $C1		;[Wait] 2
    2743.  00:5DA9  2D                  	db $2D		;[Note] 46
    2744.  00:5DAA                      				;[Skip delay] 2
    2745.  00:5DAA  2F                  	db $2F		;[Note] 48
    2746.  00:5DAB                      				;[Skip delay] 2
    2747.  00:5DAB  1C                  	db $1C		;[Note] 29
    2748.  00:5DAC  6A                  	db $6A		;[Volume] 10
    2749.  00:5DAD  81                  	db $81		;[Instrument] 18
    2750.  00:5DAE  95 09               	db $95, $09	; track detune
    2751.  00:5DB0  C0                  	db $C0		;[Wait] 1
    2752.  00:5DB1  20                  	db $20		;[Note] 33
    2753.  00:5DB2                      				;[Skip delay] 1
    2754.  00:5DB2  20                  	db $20		;[Note] 33
    2755.  00:5DB3                      				;[Skip delay] 1
    2756.  00:5DB3  28                  	db $28		;[Note] 41
    2757.  00:5DB4                      				;[Skip delay] 1
    2758.  00:5DB4  20                  	db $20		;[Note] 33
    2759.  00:5DB5                      				;[Skip delay] 1
    2760.  00:5DB5  23                  	db $23		;[Note] 36
    2761.  00:5DB6                      				;[Skip delay] 1
    2762.  00:5DB6  28                  	db $28		;[Note] 41
    2763.  00:5DB7                      				;[Skip delay] 1
    2764.  00:5DB7  2C                  	db $2C		;[Note] 45
    2765.  00:5DB8                      				;[Skip delay] 1
    2766.  00:5DB8  23                  	db $23		;[Note] 36
    2767.  00:5DB9                      				;[Skip delay] 1
    2768.  00:5DB9  28                  	db $28		;[Note] 41
    2769.  00:5DBA                      				;[Skip delay] 1
    2770.  00:5DBA  2C                  	db $2C		;[Note] 45
    2771.  00:5DBB                      				;[Skip delay] 1
    2772.  00:5DBB  2F                  	db $2F		;[Note] 48
    2773.  00:5DBC                      				;[Skip delay] 1
    2774.  00:5DBC  28                  	db $28		;[Note] 41
    2775.  00:5DBD                      				;[Skip delay] 1
    2776.  00:5DBD  2C                  	db $2C		;[Note] 45
    2777.  00:5DBE                      				;[Skip delay] 1
    2778.  00:5DBE  2F                  	db $2F		;[Note] 48
    2779.  00:5DBF                      				;[Skip delay] 1
    2780.  00:5DBF  34                  	db $34		;[Note] 53
    2781.  00:5DC0                      				;[Skip delay] 1
    2782.  00:5DC0  BF                  	db $BF		;[End-Of-Track]
    2783.  00:5DC1                      .track_29:
    2784.  00:5DC1  3B                  	db $3B		;[Note] 60
    2785.  00:5DC2  6E                  	db $6E		;[Volume] 14
    2786.  00:5DC3  7F                  	db $7F		;[Instrument] 16
    2787.  00:5DC4  C0                  	db $C0		;[Wait] 1
    2788.  00:5DC5  3C                  	db $3C		;[Note] 61
    2789.  00:5DC6  A6 04               	db $A6, $04; tone-slide
    2790.  00:5DC8                      				;[Skip delay] 1
    2791.  00:5DC8  3B                  	db $3B		;[Note] 60
    2792.  00:5DC9  C1                  	db $C1		;[Wait] 2
    2793.  00:5DCA  39                  	db $39		;[Note] 58
    2794.  00:5DCB                      				;[Skip delay] 2
    2795.  00:5DCB  3B                  	db $3B		;[Note] 60
    2796.  00:5DCC  C1                  	db $C1		;[Wait..] 2
    2797.  00:5DCD  67                  	db $67		;[Volume] 7
    2798.  00:5DCE  C0                  	db $C0		;[Wait] 1
    2799.  00:5DCF  65                  	db $65		;[Volume] 5
    2800.  00:5DD0                      				;[Skip delay] 1
    2801.  00:5DD0  3C                  	db $3C		;[Note] 61
    2802.  00:5DD1  6A                  	db $6A		;[Volume] 10
    2803.  00:5DD2  C1                  	db $C1		;[Wait] 2
    2804.  00:5DD3  A7 67               	db $A7, $67	;[CMD vibrato]
    2805.  00:5DD5  C0                  	db $C0		;[Wait] 1
    2806.  00:5DD6  B1 01               	db $B1, $01	;[CMD vibrato] rep
    2807.  00:5DD8                      				;[Skip delay] 1
    2808.  00:5DD8  40                  	db $40		;[Note] 65
    2809.  00:5DD9  C0                  	db $C0		;[Wait..] 1
    2810.  00:5DDA  A7 67               	db $A7, $67	;[CMD vibrato]
    2811.  00:5DDC                      				;[Skip delay] 1
    2812.  00:5DDC  67                  	db $67		;[Volume] 7
    2813.  00:5DDD  B1 02               	db $B1, $02	;[CMD vibrato] rep
    2814.  00:5DDF                      				;[Skip delay] 1
    2815.  00:5DDF  65                  	db $65		;[Volume] 5
    2816.  00:5DE0                      				;[Skip delay] 1
    2817.  00:5DE0  3E                  	db $3E		;[Note] 63
    2818.  00:5DE1  6D                  	db $6D		;[Volume] 13
    2819.  00:5DE2  C1                  	db $C1		;[Wait] 2
    2820.  00:5DE3  3E                  	db $3E		;[Note] 63
    2821.  00:5DE4  C2                  	db $C2		;[Wait] 3
    2822.  00:5DE5  A7 56               	db $A7, $56	;[CMD vibrato]
    2823.  00:5DE7  C0                  	db $C0		;[Wait] 1
    2824.  00:5DE8  B1 03               	db $B1, $03	;[CMD vibrato] rep
    2825.  00:5DEA  C2                  	db $C2		;[Wait] 3
    2826.  00:5DEB  A7 55               	db $A7, $55	;[CMD vibrato]
    2827.  00:5DED  C0                  	db $C0		;[Wait] 1
    2828.  00:5DEE  B1 04               	db $B1, $04	;[CMD vibrato] rep
    2829.  00:5DF0                      				;[Skip delay] 1
    2830.  00:5DF0  6A                  	db $6A		;[Volume] 10
    2831.  00:5DF1                      				;[Skip delay] 1
    2832.  00:5DF1  68                  	db $68		;[Volume] 8
    2833.  00:5DF2                      				;[Skip delay] 1
    2834.  00:5DF2  66                  	db $66		;[Volume] 6
    2835.  00:5DF3                      				;[Skip delay] 1
    2836.  00:5DF3  3B                  	db $3B		;[Note] 60
    2837.  00:5DF4  6D                  	db $6D		;[Volume] 13
    2838.  00:5DF5                      				;[Skip delay] 1
    2839.  00:5DF5  3C                  	db $3C		;[Note] 61
    2840.  00:5DF6  A6 05               	db $A6, $05; tone-slide
    2841.  00:5DF8                      				;[Skip delay] 1
    2842.  00:5DF8  3B                  	db $3B		;[Note] 60
    2843.  00:5DF9  C1                  	db $C1		;[Wait] 2
    2844.  00:5DFA  3C                  	db $3C		;[Note] 61
    2845.  00:5DFB                      				;[Skip delay] 2
    2846.  00:5DFB  3E                  	db $3E		;[Note] 63
    2847.  00:5DFC  C1                  	db $C1		;[Wait..] 2
    2848.  00:5DFD  A7 67               	db $A7, $67	;[CMD vibrato]
    2849.  00:5DFF  C0                  	db $C0		;[Wait] 1
    2850.  00:5E00  B1 01               	db $B1, $01	;[CMD vibrato] rep
    2851.  00:5E02                      				;[Skip delay] 1
    2852.  00:5E02  3C                  	db $3C		;[Note] 61
    2853.  00:5E03  C1                  	db $C1		;[Wait] 2
    2854.  00:5E04  3E                  	db $3E		;[Note] 63
    2855.  00:5E05                      				;[Skip delay] 2
    2856.  00:5E05  40                  	db $40		;[Note] 65
    2857.  00:5E06  C2                  	db $C2		;[Wait] 3
    2858.  00:5E07  A7 56               	db $A7, $56	;[CMD vibrato]
    2859.  00:5E09  C0                  	db $C0		;[Wait] 1
    2860.  00:5E0A  B1 02               	db $B1, $02	;[CMD vibrato] rep
    2861.  00:5E0C  C1                  	db $C1		;[Wait] 2
    2862.  00:5E0D  69                  	db $69		;[Volume] 9
    2863.  00:5E0E  A7 55               	db $A7, $55	;[CMD vibrato]
    2864.  00:5E10  C0                  	db $C0		;[Wait] 1
    2865.  00:5E11  67                  	db $67		;[Volume] 7
    2866.  00:5E12  B1 02               	db $B1, $02	;[CMD vibrato] rep
    2867.  00:5E14                      				;[Skip delay] 1
    2868.  00:5E14  66                  	db $66		;[Volume] 6
    2869.  00:5E15                      				;[Skip delay] 1
    2870.  00:5E15  60                  	db $60		;[Note] 97
    2871.  00:5E16  63                  	db $63		;[Volume] 3
    2872.  00:5E17                      				;[Skip delay] 1
    2873.  00:5E17  40                  	db $40		;[Note] 65
    2874.  00:5E18  6A                  	db $6A		;[Volume] 10
    2875.  00:5E19  83                  	db $83		;[Instrument] 20
    2876.  00:5E1A  C1                  	db $C1		;[Wait] 2
    2877.  00:5E1B  A7 55               	db $A7, $55	;[CMD vibrato]
    2878.  00:5E1D  C0                  	db $C0		;[Wait] 1
    2879.  00:5E1E  B1 01               	db $B1, $01	;[CMD vibrato] rep
    2880.  00:5E20                      				;[Skip delay] 1
    2881.  00:5E20  43                  	db $43		;[Note] 68
    2882.  00:5E21  C1                  	db $C1		;[Wait] 2
    2883.  00:5E22  A7 55               	db $A7, $55	;[CMD vibrato]
    2884.  00:5E24  C0                  	db $C0		;[Wait] 1
    2885.  00:5E25  B1 01               	db $B1, $01	;[CMD vibrato] rep
    2886.  00:5E27                      				;[Skip delay] 1
    2887.  00:5E27  BF                  	db $BF		;[End-Of-Track]
    2888.  00:5E28                      .track_30:
    2889.  00:5E28  37                  	db $37		;[Note] 56
    2890.  00:5E29  6D                  	db $6D		;[Volume] 13
    2891.  00:5E2A  7F                  	db $7F		;[Instrument] 16
    2892.  00:5E2B  95 08               	db $95, $08	; track detune
    2893.  00:5E2D  C0                  	db $C0		;[Wait] 1
    2894.  00:5E2E  39                  	db $39		;[Note] 58
    2895.  00:5E2F  A6 04               	db $A6, $04; tone-slide
    2896.  00:5E31                      				;[Skip delay] 1
    2897.  00:5E31  37                  	db $37		;[Note] 56
    2898.  00:5E32  C1                  	db $C1		;[Wait] 2
    2899.  00:5E33  34                  	db $34		;[Note] 53
    2900.  00:5E34                      				;[Skip delay] 2
    2901.  00:5E34  37                  	db $37		;[Note] 56
    2902.  00:5E35  C1                  	db $C1		;[Wait..] 2
    2903.  00:5E36  67                  	db $67		;[Volume] 7
    2904.  00:5E37  C0                  	db $C0		;[Wait] 1
    2905.  00:5E38  65                  	db $65		;[Volume] 5
    2906.  00:5E39                      				;[Skip delay] 1
    2907.  00:5E39  39                  	db $39		;[Note] 58
    2908.  00:5E3A  6A                  	db $6A		;[Volume] 10
    2909.  00:5E3B  C3                  	db $C3		;[Wait] 4
    2910.  00:5E3C  3C                  	db $3C		;[Note] 61
    2911.  00:5E3D  C1                  	db $C1		;[Wait] 2
    2912.  00:5E3E  67                  	db $67		;[Volume] 7
    2913.  00:5E3F  C0                  	db $C0		;[Wait] 1
    2914.  00:5E40  65                  	db $65		;[Volume] 5
    2915.  00:5E41                      				;[Skip delay] 1
    2916.  00:5E41  3B                  	db $3B		;[Note] 60
    2917.  00:5E42  6A                  	db $6A		;[Volume] 10
    2918.  00:5E43  C1                  	db $C1		;[Wait] 2
    2919.  00:5E44  3B                  	db $3B		;[Note] 60
    2920.  00:5E45  C8                  	db $C8		;[Wait] 9
    2921.  00:5E46  69                  	db $69		;[Volume] 9
    2922.  00:5E47  C0                  	db $C0		;[Wait] 1
    2923.  00:5E48  68                  	db $68		;[Volume] 8
    2924.  00:5E49                      				;[Skip delay] 1
    2925.  00:5E49  64                  	db $64		;[Volume] 4
    2926.  00:5E4A                      				;[Skip delay] 1
    2927.  00:5E4A  37                  	db $37		;[Note] 56
    2928.  00:5E4B  6F                  	db $6F		;[Volume] 15
    2929.  00:5E4C                      				;[Skip delay] 1
    2930.  00:5E4C  39                  	db $39		;[Note] 58
    2931.  00:5E4D  A6 05               	db $A6, $05; tone-slide
    2932.  00:5E4F                      				;[Skip delay] 1
    2933.  00:5E4F  37                  	db $37		;[Note] 56
    2934.  00:5E50  C1                  	db $C1		;[Wait] 2
    2935.  00:5E51  39                  	db $39		;[Note] 58
    2936.  00:5E52                      				;[Skip delay] 2
    2937.  00:5E52  3B                  	db $3B		;[Note] 60
    2938.  00:5E53  C3                  	db $C3		;[Wait] 4
    2939.  00:5E54  39                  	db $39		;[Note] 58
    2940.  00:5E55  C1                  	db $C1		;[Wait] 2
    2941.  00:5E56  37                  	db $37		;[Note] 56
    2942.  00:5E57                      				;[Skip delay] 2
    2943.  00:5E57  3B                  	db $3B		;[Note] 60
    2944.  00:5E58  C8                  	db $C8		;[Wait] 9
    2945.  00:5E59  60                  	db $60		;[Note] 97
    2946.  00:5E5A  C0                  	db $C0		;[Wait] 1
    2947.  00:5E5B  2C                  	db $2C		;[Note] 45
    2948.  00:5E5C  83                  	db $83		;[Instrument] 20
    2949.  00:5E5D  C3                  	db $C3		;[Wait] 4
    2950.  00:5E5E  2F                  	db $2F		;[Note] 48
    2951.  00:5E5F                      				;[Skip delay] 4
    2952.  00:5E5F  BF                  	db $BF		;[End-Of-Track]
    2953.  00:5E60                      .track_31:
    2954.  00:5E60  15                  	db $15		;[Note] 22
    2955.  00:5E61  6F                  	db $6F		;[Volume] 15
    2956.  00:5E62  76                  	db $76		;[Instrument] 7
    2957.  00:5E63  C1                  	db $C1		;[Wait] 2
    2958.  00:5E64  15                  	db $15		;[Note] 22
    2959.  00:5E65  C0                  	db $C0		;[Wait] 1
    2960.  00:5E66  15                  	db $15		;[Note] 22
    2961.  00:5E67                      				;[Skip delay] 1
    2962.  00:5E67  15                  	db $15		;[Note] 22
    2963.  00:5E68  C1                  	db $C1		;[Wait] 2
    2964.  00:5E69  15                  	db $15		;[Note] 22
    2965.  00:5E6A                      				;[Skip delay] 2
    2966.  00:5E6A  15                  	db $15		;[Note] 22
    2967.  00:5E6B                      				;[Skip delay] 2
    2968.  00:5E6B  10                  	db $10		;[Note] 17
    2969.  00:5E6C                      				;[Skip delay] 2
    2970.  00:5E6C  15                  	db $15		;[Note] 22
    2971.  00:5E6D                      				;[Skip delay] 2
    2972.  00:5E6D  13                  	db $13		;[Note] 20
    2973.  00:5E6E  C3                  	db $C3		;[Wait] 4
    2974.  00:5E6F  13                  	db $13		;[Note] 20
    2975.  00:5E70                      				;[Skip delay] 4
    2976.  00:5E70  13                  	db $13		;[Note] 20
    2977.  00:5E71  C1                  	db $C1		;[Wait] 2
    2978.  00:5E72  0E                  	db $0E		;[Note] 15
    2979.  00:5E73  C3                  	db $C3		;[Wait] 4
    2980.  00:5E74  13                  	db $13		;[Note] 20
    2981.  00:5E75                      				;[Skip delay] 4
    2982.  00:5E75  11                  	db $11		;[Note] 18
    2983.  00:5E76  C1                  	db $C1		;[Wait] 2
    2984.  00:5E77  11                  	db $11		;[Note] 18
    2985.  00:5E78  C0                  	db $C0		;[Wait] 1
    2986.  00:5E79  11                  	db $11		;[Note] 18
    2987.  00:5E7A                      				;[Skip delay] 1
    2988.  00:5E7A  11                  	db $11		;[Note] 18
    2989.  00:5E7B  C1                  	db $C1		;[Wait] 2
    2990.  00:5E7C  11                  	db $11		;[Note] 18
    2991.  00:5E7D                      				;[Skip delay] 2
    2992.  00:5E7D  13                  	db $13		;[Note] 20
    2993.  00:5E7E  C2                  	db $C2		;[Wait] 3
    2994.  00:5E7F  13                  	db $13		;[Note] 20
    2995.  00:5E80                      				;[Skip delay] 3
    2996.  00:5E80  15                  	db $15		;[Note] 22
    2997.  00:5E81  C3                  	db $C3		;[Wait] 4
    2998.  00:5E82  15                  	db $15		;[Note] 22
    2999.  00:5E83                      				;[Skip delay] 4
    3000.  00:5E83  15                  	db $15		;[Note] 22
    3001.  00:5E84  C1                  	db $C1		;[Wait] 2
    3002.  00:5E85  10                  	db $10		;[Note] 17
    3003.  00:5E86                      				;[Skip delay] 2
    3004.  00:5E86  10                  	db $10		;[Note] 17
    3005.  00:5E87  C0                  	db $C0		;[Wait] 1
    3006.  00:5E88  10                  	db $10		;[Note] 17
    3007.  00:5E89                      				;[Skip delay] 1
    3008.  00:5E89  10                  	db $10		;[Note] 17
    3009.  00:5E8A  C1                  	db $C1		;[Wait] 2
    3010.  00:5E8B  13                  	db $13		;[Note] 20
    3011.  00:5E8C  C0                  	db $C0		;[Wait] 1
    3012.  00:5E8D  13                  	db $13		;[Note] 20
    3013.  00:5E8E                      				;[Skip delay] 1
    3014.  00:5E8E  BF                  	db $BF		;[End-Of-Track]
    3015.  00:5E8F                      .track_32:
    3016.  00:5E8F  24                  	db $24		;[Note] 37
    3017.  00:5E90  6C                  	db $6C		;[Volume] 12
    3018.  00:5E91  78                  	db $78		;[Instrument] 9
    3019.  00:5E92  C7                  	db $C7		;[Wait] 8
    3020.  00:5E93  21                  	db $21		;[Note] 34
    3021.  00:5E94                      				;[Skip delay] 8
    3022.  00:5E94  23                  	db $23		;[Note] 36
    3023.  00:5E95                      				;[Skip delay] 8
    3024.  00:5E95  26                  	db $26		;[Note] 39
    3025.  00:5E96                      				;[Skip delay] 8
    3026.  00:5E96  1E                  	db $1E		;[Note] 31
    3027.  00:5E97  76                  	db $76		;[Instrument] 7
    3028.  00:5E98  C0                  	db $C0		;[Wait] 1
    3029.  00:5E99  21                  	db $21		;[Note] 34
    3030.  00:5E9A  6D                  	db $6D		;[Volume] 13
    3031.  00:5E9B                      				;[Skip delay] 1
    3032.  00:5E9B  26                  	db $26		;[Note] 39
    3033.  00:5E9C  6E                  	db $6E		;[Volume] 14
    3034.  00:5E9D                      				;[Skip delay] 1
    3035.  00:5E9D  21                  	db $21		;[Note] 34
    3036.  00:5E9E                      				;[Skip delay] 1
    3037.  00:5E9E  21                  	db $21		;[Note] 34
    3038.  00:5E9F                      				;[Skip delay] 1
    3039.  00:5E9F  26                  	db $26		;[Note] 39
    3040.  00:5EA0                      				;[Skip delay] 1
    3041.  00:5EA0  2A                  	db $2A		;[Note] 43
    3042.  00:5EA1                      				;[Skip delay] 1
    3043.  00:5EA1  26                  	db $26		;[Note] 39
    3044.  00:5EA2                      				;[Skip delay] 1
    3045.  00:5EA2  26                  	db $26		;[Note] 39
    3046.  00:5EA3                      				;[Skip delay] 1
    3047.  00:5EA3  2A                  	db $2A		;[Note] 43
    3048.  00:5EA4                      				;[Skip delay] 1
    3049.  00:5EA4  2D                  	db $2D		;[Note] 46
    3050.  00:5EA5                      				;[Skip delay] 1
    3051.  00:5EA5  2A                  	db $2A		;[Note] 43
    3052.  00:5EA6                      				;[Skip delay] 1
    3053.  00:5EA6  2A                  	db $2A		;[Note] 43
    3054.  00:5EA7                      				;[Skip delay] 1
    3055.  00:5EA7  2D                  	db $2D		;[Note] 46
    3056.  00:5EA8                      				;[Skip delay] 1
    3057.  00:5EA8  32                  	db $32		;[Note] 51
    3058.  00:5EA9                      				;[Skip delay] 1
    3059.  00:5EA9  2D                  	db $2D		;[Note] 46
    3060.  00:5EAA                      				;[Skip delay] 1
    3061.  00:5EAA  20                  	db $20		;[Note] 33
    3062.  00:5EAB                      				;[Skip delay] 1
    3063.  00:5EAB  23                  	db $23		;[Note] 36
    3064.  00:5EAC                      				;[Skip delay] 1
    3065.  00:5EAC  28                  	db $28		;[Note] 41
    3066.  00:5EAD                      				;[Skip delay] 1
    3067.  00:5EAD  23                  	db $23		;[Note] 36
    3068.  00:5EAE                      				;[Skip delay] 1
    3069.  00:5EAE  20                  	db $20		;[Note] 33
    3070.  00:5EAF                      				;[Skip delay] 1
    3071.  00:5EAF  28                  	db $28		;[Note] 41
    3072.  00:5EB0                      				;[Skip delay] 1
    3073.  00:5EB0  2C                  	db $2C		;[Note] 45
    3074.  00:5EB1                      				;[Skip delay] 1
    3075.  00:5EB1  28                  	db $28		;[Note] 41
    3076.  00:5EB2                      				;[Skip delay] 1
    3077.  00:5EB2  28                  	db $28		;[Note] 41
    3078.  00:5EB3                      				;[Skip delay] 1
    3079.  00:5EB3  2C                  	db $2C		;[Note] 45
    3080.  00:5EB4                      				;[Skip delay] 1
    3081.  00:5EB4  2F                  	db $2F		;[Note] 48
    3082.  00:5EB5  6D                  	db $6D		;[Volume] 13
    3083.  00:5EB6                      				;[Skip delay] 1
    3084.  00:5EB6  2C                  	db $2C		;[Note] 45
    3085.  00:5EB7  6C                  	db $6C		;[Volume] 12
    3086.  00:5EB8                      				;[Skip delay] 1
    3087.  00:5EB8  2C                  	db $2C		;[Note] 45
    3088.  00:5EB9  6A                  	db $6A		;[Volume] 10
    3089.  00:5EBA                      				;[Skip delay] 1
    3090.  00:5EBA  2F                  	db $2F		;[Note] 48
    3091.  00:5EBB  69                  	db $69		;[Volume] 9
    3092.  00:5EBC                      				;[Skip delay] 1
    3093.  00:5EBC  34                  	db $34		;[Note] 53
    3094.  00:5EBD  67                  	db $67		;[Volume] 7
    3095.  00:5EBE                      				;[Skip delay] 1
    3096.  00:5EBE  2F                  	db $2F		;[Note] 48
    3097.  00:5EBF                      				;[Skip delay] 1
    3098.  00:5EBF  BF                  	db $BF		;[End-Of-Track]
    3099.  00:5EC0                      .track_33:
    3100.  00:5EC0  09                  	db $09		;[Note] 10
    3101.  00:5EC1  6F                  	db $6F		;[Volume] 15
    3102.  00:5EC2  79                  	db $79		;[Instrument] 10
    3103.  00:5EC3  C1                  	db $C1		;[Wait] 2
    3104.  00:5EC4  09                  	db $09		;[Note] 10
    3105.  00:5EC5  C0                  	db $C0		;[Wait] 1
    3106.  00:5EC6  09                  	db $09		;[Note] 10
    3107.  00:5EC7                      				;[Skip delay] 1
    3108.  00:5EC7  09                  	db $09		;[Note] 10
    3109.  00:5EC8  C1                  	db $C1		;[Wait] 2
    3110.  00:5EC9  09                  	db $09		;[Note] 10
    3111.  00:5ECA                      				;[Skip delay] 2
    3112.  00:5ECA  09                  	db $09		;[Note] 10
    3113.  00:5ECB                      				;[Skip delay] 2
    3114.  00:5ECB  04                  	db $04		;[Note] 5
    3115.  00:5ECC                      				;[Skip delay] 2
    3116.  00:5ECC  09                  	db $09		;[Note] 10
    3117.  00:5ECD                      				;[Skip delay] 2
    3118.  00:5ECD  07                  	db $07		;[Note] 8
    3119.  00:5ECE  C3                  	db $C3		;[Wait] 4
    3120.  00:5ECF  07                  	db $07		;[Note] 8
    3121.  00:5ED0                      				;[Skip delay] 4
    3122.  00:5ED0  07                  	db $07		;[Note] 8
    3123.  00:5ED1  C1                  	db $C1		;[Wait] 2
    3124.  00:5ED2  02                  	db $02		;[Note] 3
    3125.  00:5ED3  C3                  	db $C3		;[Wait] 4
    3126.  00:5ED4  07                  	db $07		;[Note] 8
    3127.  00:5ED5                      				;[Skip delay] 4
    3128.  00:5ED5  05                  	db $05		;[Note] 6
    3129.  00:5ED6  C1                  	db $C1		;[Wait] 2
    3130.  00:5ED7  05                  	db $05		;[Note] 6
    3131.  00:5ED8  C0                  	db $C0		;[Wait] 1
    3132.  00:5ED9  05                  	db $05		;[Note] 6
    3133.  00:5EDA                      				;[Skip delay] 1
    3134.  00:5EDA  05                  	db $05		;[Note] 6
    3135.  00:5EDB  C1                  	db $C1		;[Wait] 2
    3136.  00:5EDC  05                  	db $05		;[Note] 6
    3137.  00:5EDD                      				;[Skip delay] 2
    3138.  00:5EDD  07                  	db $07		;[Note] 8
    3139.  00:5EDE  C2                  	db $C2		;[Wait] 3
    3140.  00:5EDF  07                  	db $07		;[Note] 8
    3141.  00:5EE0                      				;[Skip delay] 3
    3142.  00:5EE0  09                  	db $09		;[Note] 10
    3143.  00:5EE1  C3                  	db $C3		;[Wait] 4
    3144.  00:5EE2  09                  	db $09		;[Note] 10
    3145.  00:5EE3                      				;[Skip delay] 4
    3146.  00:5EE3  09                  	db $09		;[Note] 10
    3147.  00:5EE4  C1                  	db $C1		;[Wait] 2
    3148.  00:5EE5  04                  	db $04		;[Note] 5
    3149.  00:5EE6                      				;[Skip delay] 2
    3150.  00:5EE6  04                  	db $04		;[Note] 5
    3151.  00:5EE7  C0                  	db $C0		;[Wait] 1
    3152.  00:5EE8  04                  	db $04		;[Note] 5
    3153.  00:5EE9                      				;[Skip delay] 1
    3154.  00:5EE9  04                  	db $04		;[Note] 5
    3155.  00:5EEA  C1                  	db $C1		;[Wait] 2
    3156.  00:5EEB  07                  	db $07		;[Note] 8
    3157.  00:5EEC  C0                  	db $C0		;[Wait] 1
    3158.  00:5EED  07                  	db $07		;[Note] 8
    3159.  00:5EEE                      				;[Skip delay] 1
    3160.  00:5EEE  BF                  	db $BF		;[End-Of-Track]
    3161.  00:5EEF                      .track_34:
    3162.  00:5EEF  23                  	db $23		;[Note] 36
    3163.  00:5EF0  6F                  	db $6F		;[Volume] 15
    3164.  00:5EF1  7A                  	db $7A		;[Instrument] 11
    3165.  00:5EF2  C1                  	db $C1		;[Wait] 2
    3166.  00:5EF3  21                  	db $21		;[Note] 34
    3167.  00:5EF4                      				;[Skip delay] 2
    3168.  00:5EF4  1F                  	db $1F		;[Note] 32
    3169.  00:5EF5  C3                  	db $C3		;[Wait] 4
    3170.  00:5EF6  1C                  	db $1C		;[Note] 29
    3171.  00:5EF7                      				;[Skip delay] 4
    3172.  00:5EF7  24                  	db $24		;[Note] 37
    3173.  00:5EF8                      				;[Skip delay] 4
    3174.  00:5EF8  26                  	db $26		;[Note] 39
    3175.  00:5EF9  C1                  	db $C1		;[Wait] 2
    3176.  00:5EFA  24                  	db $24		;[Note] 37
    3177.  00:5EFB                      				;[Skip delay] 2
    3178.  00:5EFB  23                  	db $23		;[Note] 36
    3179.  00:5EFC  C3                  	db $C3		;[Wait] 4
    3180.  00:5EFD  23                  	db $23		;[Note] 36
    3181.  00:5EFE  C1                  	db $C1		;[Wait] 2
    3182.  00:5EFF  21                  	db $21		;[Note] 34
    3183.  00:5F00                      				;[Skip delay] 2
    3184.  00:5F00  1F                  	db $1F		;[Note] 32
    3185.  00:5F01  C3                  	db $C3		;[Wait] 4
    3186.  00:5F02  36                  	db $36		;[Note] 55
    3187.  00:5F03  6C                  	db $6C		;[Volume] 12
    3188.  00:5F04  7E                  	db $7E		;[Instrument] 15
    3189.  00:5F05  C0                  	db $C0		;[Wait] 1
    3190.  00:5F06  39                  	db $39		;[Note] 58
    3191.  00:5F07                      				;[Skip delay] 1
    3192.  00:5F07  3E                  	db $3E		;[Note] 63
    3193.  00:5F08                      				;[Skip delay] 1
    3194.  00:5F08  39                  	db $39		;[Note] 58
    3195.  00:5F09                      				;[Skip delay] 1
    3196.  00:5F09  39                  	db $39		;[Note] 58
    3197.  00:5F0A                      				;[Skip delay] 1
    3198.  00:5F0A  3E                  	db $3E		;[Note] 63
    3199.  00:5F0B                      				;[Skip delay] 1
    3200.  00:5F0B  42                  	db $42		;[Note] 67
    3201.  00:5F0C                      				;[Skip delay] 1
    3202.  00:5F0C  3E                  	db $3E		;[Note] 63
    3203.  00:5F0D                      				;[Skip delay] 1
    3204.  00:5F0D  3E                  	db $3E		;[Note] 63
    3205.  00:5F0E                      				;[Skip delay] 1
    3206.  00:5F0E  42                  	db $42		;[Note] 67
    3207.  00:5F0F                      				;[Skip delay] 1
    3208.  00:5F0F  45                  	db $45		;[Note] 70
    3209.  00:5F10                      				;[Skip delay] 1
    3210.  00:5F10  42                  	db $42		;[Note] 67
    3211.  00:5F11                      				;[Skip delay] 1
    3212.  00:5F11  42                  	db $42		;[Note] 67
    3213.  00:5F12                      				;[Skip delay] 1
    3214.  00:5F12  45                  	db $45		;[Note] 70
    3215.  00:5F13                      				;[Skip delay] 1
    3216.  00:5F13  4A                  	db $4A		;[Note] 75
    3217.  00:5F14                      				;[Skip delay] 1
    3218.  00:5F14  45                  	db $45		;[Note] 70
    3219.  00:5F15                      				;[Skip delay] 1
    3220.  00:5F15  38                  	db $38		;[Note] 57
    3221.  00:5F16                      				;[Skip delay] 1
    3222.  00:5F16  3B                  	db $3B		;[Note] 60
    3223.  00:5F17                      				;[Skip delay] 1
    3224.  00:5F17  40                  	db $40		;[Note] 65
    3225.  00:5F18                      				;[Skip delay] 1
    3226.  00:5F18  3B                  	db $3B		;[Note] 60
    3227.  00:5F19                      				;[Skip delay] 1
    3228.  00:5F19  38                  	db $38		;[Note] 57
    3229.  00:5F1A                      				;[Skip delay] 1
    3230.  00:5F1A  40                  	db $40		;[Note] 65
    3231.  00:5F1B                      				;[Skip delay] 1
    3232.  00:5F1B  44                  	db $44		;[Note] 69
    3233.  00:5F1C                      				;[Skip delay] 1
    3234.  00:5F1C  40                  	db $40		;[Note] 65
    3235.  00:5F1D                      				;[Skip delay] 1
    3236.  00:5F1D  40                  	db $40		;[Note] 65
    3237.  00:5F1E                      				;[Skip delay] 1
    3238.  00:5F1E  44                  	db $44		;[Note] 69
    3239.  00:5F1F  69                  	db $69		;[Volume] 9
    3240.  00:5F20                      				;[Skip delay] 1
    3241.  00:5F20  47                  	db $47		;[Note] 72
    3242.  00:5F21  68                  	db $68		;[Volume] 8
    3243.  00:5F22                      				;[Skip delay] 1
    3244.  00:5F22  44                  	db $44		;[Note] 69
    3245.  00:5F23  66                  	db $66		;[Volume] 6
    3246.  00:5F24                      				;[Skip delay] 1
    3247.  00:5F24  44                  	db $44		;[Note] 69
    3248.  00:5F25  65                  	db $65		;[Volume] 5
    3249.  00:5F26                      				;[Skip delay] 1
    3250.  00:5F26  47                  	db $47		;[Note] 72
    3251.  00:5F27  63                  	db $63		;[Volume] 3
    3252.  00:5F28                      				;[Skip delay] 1
    3253.  00:5F28  4C                  	db $4C		;[Note] 77
    3254.  00:5F29                      				;[Skip delay] 1
    3255.  00:5F29  47                  	db $47		;[Note] 72
    3256.  00:5F2A                      				;[Skip delay] 1
    3257.  00:5F2A  BF                  	db $BF		;[End-Of-Track]
    3258.  00:5F2B                      .track_35:
    3259.  00:5F2B  21                  	db $21		;[Note] 34
    3260.  00:5F2C  6D                  	db $6D		;[Volume] 13
    3261.  00:5F2D  7B                  	db $7B		;[Instrument] 12
    3262.  00:5F2E  C0                  	db $C0		;[Wait] 1
    3263.  00:5F2F  69                  	db $69		;[Volume] 9
    3264.  00:5F30  A5 10               	db $A5, $10; slide-down
    3265.  00:5F32                      				;[Skip delay] 1
    3266.  00:5F32  68                  	db $68		;[Volume] 8
    3267.  00:5F33  AF 02               	db $AF, $02; slide-down rep
    3268.  00:5F35                      				;[Skip delay] 1
    3269.  00:5F35  66                  	db $66		;[Volume] 6
    3270.  00:5F36                      				;[Skip delay] 1
    3271.  00:5F36  23                  	db $23		;[Note] 36
    3272.  00:5F37  6B                  	db $6B		;[Volume] 11
    3273.  00:5F38  7D                  	db $7D		;[Instrument] 14
    3274.  00:5F39                      				;[Skip delay] 1
    3275.  00:5F39  24                  	db $24		;[Note] 37
    3276.  00:5F3A  A6 07               	db $A6, $07; tone-slide
    3277.  00:5F3C                      				;[Skip delay] 1
    3278.  00:5F3C  B0 02               	db $B0, $02; tone-slide rep
    3279.  00:5F3E                      				;[Skip delay] 1
    3280.  00:5F3E  60                  	db $60		;[Note] 97
    3281.  00:5F3F                      				;[Skip delay] 1
    3282.  00:5F3F  23                  	db $23		;[Note] 36
    3283.  00:5F40  C2                  	db $C2		;[Wait] 3
    3284.  00:5F41  6A                  	db $6A		;[Volume] 10
    3285.  00:5F42  C0                  	db $C0		;[Wait] 1
    3286.  00:5F43  69                  	db $69		;[Volume] 9
    3287.  00:5F44                      				;[Skip delay] 1
    3288.  00:5F44  67                  	db $67		;[Volume] 7
    3289.  00:5F45                      				;[Skip delay] 1
    3290.  00:5F45  66                  	db $66		;[Volume] 6
    3291.  00:5F46                      				;[Skip delay] 1
    3292.  00:5F46  64                  	db $64		;[Volume] 4
    3293.  00:5F47  C2                  	db $C2		;[Wait] 3
    3294.  00:5F48  28                  	db $28		;[Note] 41
    3295.  00:5F49  68                  	db $68		;[Volume] 8
    3296.  00:5F4A  89                  	db $89		;[Instrument] 26
    3297.  00:5F4B  C1                  	db $C1		;[Wait] 2
    3298.  00:5F4C  2D                  	db $2D		;[Note] 46
    3299.  00:5F4D  C2                  	db $C2		;[Wait] 3
    3300.  00:5F4E  32                  	db $32		;[Note] 51
    3301.  00:5F4F                      				;[Skip delay] 3
    3302.  00:5F4F  2D                  	db $2D		;[Note] 46
    3303.  00:5F50  C1                  	db $C1		;[Wait] 2
    3304.  00:5F51  30                  	db $30		;[Note] 49
    3305.  00:5F52                      				;[Skip delay] 2
    3306.  00:5F52  32                  	db $32		;[Note] 51
    3307.  00:5F53                      				;[Skip delay] 2
    3308.  00:5F53  36                  	db $36		;[Note] 55
    3309.  00:5F54  66                  	db $66		;[Volume] 6
    3310.  00:5F55  87                  	db $87		;[Instrument] 24
    3311.  00:5F56  C3                  	db $C3		;[Wait] 4
    3312.  00:5F57  32                  	db $32		;[Note] 51
    3313.  00:5F58  C0                  	db $C0		;[Wait] 1
    3314.  00:5F59  64                  	db $64		;[Volume] 4
    3315.  00:5F5A                      				;[Skip delay] 1
    3316.  00:5F5A  62                  	db $62		;[Volume] 2
    3317.  00:5F5B  C2                  	db $C2		;[Wait] 3
    3318.  00:5F5C  60                  	db $60		;[Note] 97
    3319.  00:5F5D                      				;[Skip delay] 3
    3320.  00:5F5D  2B                  	db $2B		;[Note] 44
    3321.  00:5F5E  C1                  	db $C1		;[Wait] 2
    3322.  00:5F5F  32                  	db $32		;[Note] 51
    3323.  00:5F60  C4                  	db $C4		;[Wait] 5
    3324.  00:5F61  A5 10               	db $A5, $10; slide-down
    3325.  00:5F63  C0                  	db $C0		;[Wait] 1
    3326.  00:5F64  AF 08               	db $AF, $08; slide-down rep
    3327.  00:5F66  C7                  	db $C7		;[Wait] 8
    3328.  00:5F67  60                  	db $60		;[Note] 97
    3329.  00:5F68  C3                  	db $C3		;[Wait] 4
    3330.  00:5F69  BF                  	db $BF		;[End-Of-Track]
    3331.  00:5F6A                      .track_36:
    3332.  00:5F6A  60                  	db $60		;[Note] 97
    3333.  00:5F6B  C3                  	db $C3		;[Wait] 4
    3334.  00:5F6C  37                  	db $37		;[Note] 56
    3335.  00:5F6D  6D                  	db $6D		;[Volume] 13
    3336.  00:5F6E  83                  	db $83		;[Instrument] 20
    3337.  00:5F6F  C0                  	db $C0		;[Wait] 1
    3338.  00:5F70  39                  	db $39		;[Note] 58
    3339.  00:5F71  A6 09               	db $A6, $09; tone-slide
    3340.  00:5F73                      				;[Skip delay] 1
    3341.  00:5F73  B0 01               	db $B0, $01; tone-slide rep
    3342.  00:5F75                      				;[Skip delay] 1
    3343.  00:5F75  60                  	db $60		;[Note] 97
    3344.  00:5F76                      				;[Skip delay] 1
    3345.  00:5F76  37                  	db $37		;[Note] 56
    3346.  00:5F77  C3                  	db $C3		;[Wait] 4
    3347.  00:5F78  A7 55               	db $A7, $55	;[CMD vibrato]
    3348.  00:5F7A  C0                  	db $C0		;[Wait] 1
    3349.  00:5F7B  B1 03               	db $B1, $03	;[CMD vibrato] rep
    3350.  00:5F7D  C2                  	db $C2		;[Wait] 3
    3351.  00:5F7E  34                  	db $34		;[Note] 53
    3352.  00:5F7F  C1                  	db $C1		;[Wait] 2
    3353.  00:5F80  32                  	db $32		;[Note] 51
    3354.  00:5F81                      				;[Skip delay] 2
    3355.  00:5F81  30                  	db $30		;[Note] 49
    3356.  00:5F82  C2                  	db $C2		;[Wait] 3
    3357.  00:5F83  2D                  	db $2D		;[Note] 46
    3358.  00:5F84  C0                  	db $C0		;[Wait] 1
    3359.  00:5F85  6B                  	db $6B		;[Volume] 11
    3360.  00:5F86                      				;[Skip delay] 1
    3361.  00:5F86  66                  	db $66		;[Volume] 6
    3362.  00:5F87                      				;[Skip delay] 1
    3363.  00:5F87  2D                  	db $2D		;[Note] 46
    3364.  00:5F88  6D                  	db $6D		;[Volume] 13
    3365.  00:5F89                      				;[Skip delay] 1
    3366.  00:5F89  68                  	db $68		;[Volume] 8
    3367.  00:5F8A                      				;[Skip delay] 1
    3368.  00:5F8A  2D                  	db $2D		;[Note] 46
    3369.  00:5F8B  6B                  	db $6B		;[Volume] 11
    3370.  00:5F8C  C1                  	db $C1		;[Wait] 2
    3371.  00:5F8D  30                  	db $30		;[Note] 49
    3372.  00:5F8E                      				;[Skip delay] 2
    3373.  00:5F8E  32                  	db $32		;[Note] 51
    3374.  00:5F8F  6C                  	db $6C		;[Volume] 12
    3375.  00:5F90                      				;[Skip delay] 2
    3376.  00:5F90  66                  	db $66		;[Volume] 6
    3377.  00:5F91  C0                  	db $C0		;[Wait] 1
    3378.  00:5F92  63                  	db $63		;[Volume] 3
    3379.  00:5F93                      				;[Skip delay] 1
    3380.  00:5F93  32                  	db $32		;[Note] 51
    3381.  00:5F94  6C                  	db $6C		;[Volume] 12
    3382.  00:5F95  C1                  	db $C1		;[Wait] 2
    3383.  00:5F96  66                  	db $66		;[Volume] 6
    3384.  00:5F97  C0                  	db $C0		;[Wait] 1
    3385.  00:5F98  63                  	db $63		;[Volume] 3
    3386.  00:5F99                      				;[Skip delay] 1
    3387.  00:5F99  30                  	db $30		;[Note] 49
    3388.  00:5F9A  6A                  	db $6A		;[Volume] 10
    3389.  00:5F9B                      				;[Skip delay] 1
    3390.  00:5F9B  32                  	db $32		;[Note] 51
    3391.  00:5F9C  C2                  	db $C2		;[Wait] 3
    3392.  00:5F9D  30                  	db $30		;[Note] 49
    3393.  00:5F9E  C1                  	db $C1		;[Wait] 2
    3394.  00:5F9F  34                  	db $34		;[Note] 53
    3395.  00:5FA0  C3                  	db $C3		;[Wait] 4
    3396.  00:5FA1  A7 56               	db $A7, $56	;[CMD vibrato]
    3397.  00:5FA3  C0                  	db $C0		;[Wait] 1
    3398.  00:5FA4  B1 03               	db $B1, $03	;[CMD vibrato] rep
    3399.  00:5FA6  C2                  	db $C2		;[Wait] 3
    3400.  00:5FA7  67                  	db $67		;[Volume] 7
    3401.  00:5FA8  A7 55               	db $A7, $55	;[CMD vibrato]
    3402.  00:5FAA  C0                  	db $C0		;[Wait] 1
    3403.  00:5FAB  66                  	db $66		;[Volume] 6
    3404.  00:5FAC  B1 01               	db $B1, $01	;[CMD vibrato] rep
    3405.  00:5FAE                      				;[Skip delay] 1
    3406.  00:5FAE  64                  	db $64		;[Volume] 4
    3407.  00:5FAF  A5 10               	db $A5, $10; slide-down
    3408.  00:5FB1                      				;[Skip delay] 1
    3409.  00:5FB1  63                  	db $63		;[Volume] 3
    3410.  00:5FB2  AF 01               	db $AF, $01; slide-down rep
    3411.  00:5FB4                      				;[Skip delay] 1
    3412.  00:5FB4  34                  	db $34		;[Note] 53
    3413.  00:5FB5  6A                  	db $6A		;[Volume] 10
    3414.  00:5FB6                      				;[Skip delay] 1
    3415.  00:5FB6  66                  	db $66		;[Volume] 6
    3416.  00:5FB7                      				;[Skip delay] 1
    3417.  00:5FB7  34                  	db $34		;[Note] 53
    3418.  00:5FB8  6A                  	db $6A		;[Volume] 10
    3419.  00:5FB9  C1                  	db $C1		;[Wait] 2
    3420.  00:5FBA  37                  	db $37		;[Note] 56
    3421.  00:5FBB                      				;[Skip delay] 2
    3422.  00:5FBB  BF                  	db $BF		;[End-Of-Track]
    3423.  00:5FBC                      .track_37:
    3424.  00:5FBC  60                  	db $60		;[Note] 97
    3425.  00:5FBD  C3                  	db $C3		;[Wait] 4
    3426.  00:5FBE  2F                  	db $2F		;[Note] 48
    3427.  00:5FBF  69                  	db $69		;[Volume] 9
    3428.  00:5FC0  83                  	db $83		;[Instrument] 20
    3429.  00:5FC1  C0                  	db $C0		;[Wait] 1
    3430.  00:5FC2  30                  	db $30		;[Note] 49
    3431.  00:5FC3  A6 09               	db $A6, $09; tone-slide
    3432.  00:5FC5                      				;[Skip delay] 1
    3433.  00:5FC5  B0 01               	db $B0, $01; tone-slide rep
    3434.  00:5FC7                      				;[Skip delay] 1
    3435.  00:5FC7  60                  	db $60		;[Note] 97
    3436.  00:5FC8                      				;[Skip delay] 1
    3437.  00:5FC8  2F                  	db $2F		;[Note] 48
    3438.  00:5FC9  C7                  	db $C7		;[Wait] 8
    3439.  00:5FCA  30                  	db $30		;[Note] 49
    3440.  00:5FCB  C1                  	db $C1		;[Wait] 2
    3441.  00:5FCC  2F                  	db $2F		;[Note] 48
    3442.  00:5FCD                      				;[Skip delay] 2
    3443.  00:5FCD  2D                  	db $2D		;[Note] 46
    3444.  00:5FCE  C2                  	db $C2		;[Wait] 3
    3445.  00:5FCF  28                  	db $28		;[Note] 41
    3446.  00:5FD0  6D                  	db $6D		;[Volume] 13
    3447.  00:5FD1  C0                  	db $C0		;[Wait] 1
    3448.  00:5FD2  6B                  	db $6B		;[Volume] 11
    3449.  00:5FD3                      				;[Skip delay] 1
    3450.  00:5FD3  66                  	db $66		;[Volume] 6
    3451.  00:5FD4                      				;[Skip delay] 1
    3452.  00:5FD4  28                  	db $28		;[Note] 41
    3453.  00:5FD5  6D                  	db $6D		;[Volume] 13
    3454.  00:5FD6  C1                  	db $C1		;[Wait] 2
    3455.  00:5FD7  28                  	db $28		;[Note] 41
    3456.  00:5FD8                      				;[Skip delay] 2
    3457.  00:5FD8  2B                  	db $2B		;[Note] 44
    3458.  00:5FD9  C0                  	db $C0		;[Wait] 1
    3459.  00:5FDA  60                  	db $60		;[Note] 97
    3460.  00:5FDB                      				;[Skip delay] 1
    3461.  00:5FDB  2D                  	db $2D		;[Note] 46
    3462.  00:5FDC  C3                  	db $C3		;[Wait] 4
    3463.  00:5FDD  2A                  	db $2A		;[Note] 43
    3464.  00:5FDE                      				;[Skip delay] 4
    3465.  00:5FDE  2B                  	db $2B		;[Note] 44
    3466.  00:5FDF  C0                  	db $C0		;[Wait] 1
    3467.  00:5FE0  2D                  	db $2D		;[Note] 46
    3468.  00:5FE1  C2                  	db $C2		;[Wait] 3
    3469.  00:5FE2  2B                  	db $2B		;[Note] 44
    3470.  00:5FE3  C1                  	db $C1		;[Wait] 2
    3471.  00:5FE4  2C                  	db $2C		;[Note] 45
    3472.  00:5FE5  C9                  	db $C9		;[Wait] 10
    3473.  00:5FE6  A5 10               	db $A5, $10; slide-down
    3474.  00:5FE8  C0                  	db $C0		;[Wait] 1
    3475.  00:5FE9  AF 01               	db $AF, $01; slide-down rep
    3476.  00:5FEB                      				;[Skip delay] 1
    3477.  00:5FEB  2C                  	db $2C		;[Note] 45
    3478.  00:5FEC  C1                  	db $C1		;[Wait] 2
    3479.  00:5FED  2F                  	db $2F		;[Note] 48
    3480.  00:5FEE                      				;[Skip delay] 2
    3481.  00:5FEE  32                  	db $32		;[Note] 51
    3482.  00:5FEF                      				;[Skip delay] 2
    3483.  00:5FEF  BF                  	db $BF		;[End-Of-Track]
    3484.  00:5FF0                      .track_38:
    3485.  00:5FF0  12                  	db $12		;[Note] 19
    3486.  00:5FF1  6F                  	db $6F		;[Volume] 15
    3487.  00:5FF2  70                  	db $70		;[Instrument] 1
    3488.  00:5FF3  C1                  	db $C1		;[Wait] 2
    3489.  00:5FF4  5F                  	db $5F		;[Note] 96
    3490.  00:5FF5  6E                  	db $6E		;[Volume] 14
    3491.  00:5FF6  72                  	db $72		;[Instrument] 3
    3492.  00:5FF7  C0                  	db $C0		;[Wait] 1
    3493.  00:5FF8  5F                  	db $5F		;[Note] 96
    3494.  00:5FF9  6D                  	db $6D		;[Volume] 13
    3495.  00:5FFA                      				;[Skip delay] 1
    3496.  00:5FFA  5F                  	db $5F		;[Note] 96
    3497.  00:5FFB  6E                  	db $6E		;[Volume] 14
    3498.  00:5FFC  C1                  	db $C1		;[Wait] 2
    3499.  00:5FFD  5F                  	db $5F		;[Note] 96
    3500.  00:5FFE  73                  	db $73		;[Instrument] 4
    3501.  00:5FFF                      				;[Skip delay] 2
    3502.  00:5FFF  12                  	db $12		;[Note] 19
    3503.  00:6000  6F                  	db $6F		;[Volume] 15
    3504.  00:6001  70                  	db $70		;[Instrument] 1
    3505.  00:6002                      				;[Skip delay] 2
    3506.  00:6002  5F                  	db $5F		;[Note] 96
    3507.  00:6003  6E                  	db $6E		;[Volume] 14
    3508.  00:6004  72                  	db $72		;[Instrument] 3
    3509.  00:6005                      				;[Skip delay] 2
    3510.  00:6005  5F                  	db $5F		;[Note] 96
    3511.  00:6006  6D                  	db $6D		;[Volume] 13
    3512.  00:6007  C0                  	db $C0		;[Wait] 1
    3513.  00:6008  60                  	db $60		;[Note] 97
    3514.  00:6009                      				;[Skip delay] 1
    3515.  00:6009  12                  	db $12		;[Note] 19
    3516.  00:600A  70                  	db $70		;[Instrument] 1
    3517.  00:600B  C1                  	db $C1		;[Wait] 2
    3518.  00:600C  5F                  	db $5F		;[Note] 96
    3519.  00:600D  6E                  	db $6E		;[Volume] 14
    3520.  00:600E  72                  	db $72		;[Instrument] 3
    3521.  00:600F                      				;[Skip delay] 2
    3522.  00:600F  5F                  	db $5F		;[Note] 96
    3523.  00:6010  73                  	db $73		;[Instrument] 4
    3524.  00:6011                      				;[Skip delay] 2
    3525.  00:6011  12                  	db $12		;[Note] 19
    3526.  00:6012  70                  	db $70		;[Instrument] 1
    3527.  00:6013                      				;[Skip delay] 2
    3528.  00:6013  5F                  	db $5F		;[Note] 96
    3529.  00:6014  72                  	db $72		;[Instrument] 3
    3530.  00:6015                      				;[Skip delay] 2
    3531.  00:6015  5F                  	db $5F		;[Note] 96
    3532.  00:6016                      				;[Skip delay] 2
    3533.  00:6016  5F                  	db $5F		;[Note] 96
    3534.  00:6017  C0                  	db $C0		;[Wait] 1
    3535.  00:6018  5F                  	db $5F		;[Note] 96
    3536.  00:6019  6D                  	db $6D		;[Volume] 13
    3537.  00:601A                      				;[Skip delay] 1
    3538.  00:601A  5F                  	db $5F		;[Note] 96
    3539.  00:601B  6E                  	db $6E		;[Volume] 14
    3540.  00:601C  C1                  	db $C1		;[Wait] 2
    3541.  00:601D  5F                  	db $5F		;[Note] 96
    3542.  00:601E                      				;[Skip delay] 2
    3543.  00:601E  12                  	db $12		;[Note] 19
    3544.  00:601F  6F                  	db $6F		;[Volume] 15
    3545.  00:6020  70                  	db $70		;[Instrument] 1
    3546.  00:6021                      				;[Skip delay] 2
    3547.  00:6021  5F                  	db $5F		;[Note] 96
    3548.  00:6022  6E                  	db $6E		;[Volume] 14
    3549.  00:6023  72                  	db $72		;[Instrument] 3
    3550.  00:6024  C0                  	db $C0		;[Wait] 1
    3551.  00:6025  5F                  	db $5F		;[Note] 96
    3552.  00:6026  6D                  	db $6D		;[Volume] 13
    3553.  00:6027                      				;[Skip delay] 1
    3554.  00:6027  5F                  	db $5F		;[Note] 96
    3555.  00:6028  6E                  	db $6E		;[Volume] 14
    3556.  00:6029  C1                  	db $C1		;[Wait] 2
    3557.  00:602A  5F                  	db $5F		;[Note] 96
    3558.  00:602B  73                  	db $73		;[Instrument] 4
    3559.  00:602C                      				;[Skip delay] 2
    3560.  00:602C  1F                  	db $1F		;[Note] 32
    3561.  00:602D  6F                  	db $6F		;[Volume] 15
    3562.  00:602E  71                  	db $71		;[Instrument] 2
    3563.  00:602F                      				;[Skip delay] 2
    3564.  00:602F  5F                  	db $5F		;[Note] 96
    3565.  00:6030  6D                  	db $6D		;[Volume] 13
    3566.  00:6031  72                  	db $72		;[Instrument] 3
    3567.  00:6032                      				;[Skip delay] 2
    3568.  00:6032  5F                  	db $5F		;[Note] 96
    3569.  00:6033  6A                  	db $6A		;[Volume] 10
    3570.  00:6034  C0                  	db $C0		;[Wait] 1
    3571.  00:6035  60                  	db $60		;[Note] 97
    3572.  00:6036                      				;[Skip delay] 1
    3573.  00:6036  12                  	db $12		;[Note] 19
    3574.  00:6037  6F                  	db $6F		;[Volume] 15
    3575.  00:6038  70                  	db $70		;[Instrument] 1
    3576.  00:6039  C1                  	db $C1		;[Wait] 2
    3577.  00:603A  5F                  	db $5F		;[Note] 96
    3578.  00:603B  6E                  	db $6E		;[Volume] 14
    3579.  00:603C  72                  	db $72		;[Instrument] 3
    3580.  00:603D                      				;[Skip delay] 2
    3581.  00:603D  1F                  	db $1F		;[Note] 32
    3582.  00:603E  71                  	db $71		;[Instrument] 2
    3583.  00:603F                      				;[Skip delay] 2
    3584.  00:603F  1F                  	db $1F		;[Note] 32
    3585.  00:6040  6F                  	db $6F		;[Volume] 15
    3586.  00:6041                      				;[Skip delay] 2
    3587.  00:6041  1F                  	db $1F		;[Note] 32
    3588.  00:6042                      				;[Skip delay] 2
    3589.  00:6042  1F                  	db $1F		;[Note] 32
    3590.  00:6043                      				;[Skip delay] 2
    3591.  00:6043  12                  	db $12		;[Note] 19
    3592.  00:6044  70                  	db $70		;[Instrument] 1
    3593.  00:6045                      				;[Skip delay] 2
    3594.  00:6045  5F                  	db $5F		;[Note] 96
    3595.  00:6046  73                  	db $73		;[Instrument] 4
    3596.  00:6047                      				;[Skip delay] 2
    3597.  00:6047  5F                  	db $5F		;[Note] 96
    3598.  00:6048  72                  	db $72		;[Instrument] 3
    3599.  00:6049  C0                  	db $C0		;[Wait] 1
    3600.  00:604A  5F                  	db $5F		;[Note] 96
    3601.  00:604B                      				;[Skip delay] 1
    3602.  00:604B  BF                  	db $BF		;[End-Of-Track]
    3603.  00:604C                      .track_39:
    3604.  00:604C  15                  	db $15		;[Note] 22
    3605.  00:604D  6F                  	db $6F		;[Volume] 15
    3606.  00:604E  76                  	db $76		;[Instrument] 7
    3607.  00:604F  C1                  	db $C1		;[Wait] 2
    3608.  00:6050  15                  	db $15		;[Note] 22
    3609.  00:6051  C0                  	db $C0		;[Wait] 1
    3610.  00:6052  15                  	db $15		;[Note] 22
    3611.  00:6053                      				;[Skip delay] 1
    3612.  00:6053  15                  	db $15		;[Note] 22
    3613.  00:6054  C1                  	db $C1		;[Wait] 2
    3614.  00:6055  15                  	db $15		;[Note] 22
    3615.  00:6056                      				;[Skip delay] 2
    3616.  00:6056  15                  	db $15		;[Note] 22
    3617.  00:6057                      				;[Skip delay] 2
    3618.  00:6057  10                  	db $10		;[Note] 17
    3619.  00:6058                      				;[Skip delay] 2
    3620.  00:6058  15                  	db $15		;[Note] 22
    3621.  00:6059                      				;[Skip delay] 2
    3622.  00:6059  13                  	db $13		;[Note] 20
    3623.  00:605A  C3                  	db $C3		;[Wait] 4
    3624.  00:605B  13                  	db $13		;[Note] 20
    3625.  00:605C                      				;[Skip delay] 4
    3626.  00:605C  13                  	db $13		;[Note] 20
    3627.  00:605D  C1                  	db $C1		;[Wait] 2
    3628.  00:605E  0E                  	db $0E		;[Note] 15
    3629.  00:605F  C3                  	db $C3		;[Wait] 4
    3630.  00:6060  13                  	db $13		;[Note] 20
    3631.  00:6061                      				;[Skip delay] 4
    3632.  00:6061  11                  	db $11		;[Note] 18
    3633.  00:6062  C1                  	db $C1		;[Wait] 2
    3634.  00:6063  11                  	db $11		;[Note] 18
    3635.  00:6064  C0                  	db $C0		;[Wait] 1
    3636.  00:6065  11                  	db $11		;[Note] 18
    3637.  00:6066                      				;[Skip delay] 1
    3638.  00:6066  11                  	db $11		;[Note] 18
    3639.  00:6067  C1                  	db $C1		;[Wait] 2
    3640.  00:6068  11                  	db $11		;[Note] 18
    3641.  00:6069                      				;[Skip delay] 2
    3642.  00:6069  13                  	db $13		;[Note] 20
    3643.  00:606A  C2                  	db $C2		;[Wait] 3
    3644.  00:606B  13                  	db $13		;[Note] 20
    3645.  00:606C                      				;[Skip delay] 3
    3646.  00:606C  15                  	db $15		;[Note] 22
    3647.  00:606D  C3                  	db $C3		;[Wait] 4
    3648.  00:606E  15                  	db $15		;[Note] 22
    3649.  00:606F  C1                  	db $C1		;[Wait] 2
    3650.  00:6070  15                  	db $15		;[Note] 22
    3651.  00:6071                      				;[Skip delay] 2
    3652.  00:6071  15                  	db $15		;[Note] 22
    3653.  00:6072                      				;[Skip delay] 2
    3654.  00:6072  15                  	db $15		;[Note] 22
    3655.  00:6073  C1                  	db $C1		;[Wait..] 2
    3656.  00:6074  6E                  	db $6E		;[Volume] 14
    3657.  00:6075  A5 10               	db $A5, $10; slide-down
    3658.  00:6077  C0                  	db $C0		;[Wait] 1
    3659.  00:6078  60                  	db $60		;[Note] 97
    3660.  00:6079  6D                  	db $6D		;[Volume] 13
    3661.  00:607A  AF 03               	db $AF, $03; slide-down rep
    3662.  00:607C                      				;[Skip delay] 1
    3663.  00:607C  6C                  	db $6C		;[Volume] 12
    3664.  00:607D                      				;[Skip delay] 1
    3665.  00:607D  6A                  	db $6A		;[Volume] 10
    3666.  00:607E                      				;[Skip delay] 1
    3667.  00:607E  1D                  	db $1D		;[Note] 30
    3668.  00:607F  6D                  	db $6D		;[Volume] 13
    3669.  00:6080  75                  	db $75		;[Instrument] 6
    3670.  00:6081                      				;[Skip delay] 1
    3671.  00:6081  17                  	db $17		;[Note] 24
    3672.  00:6082                      				;[Skip delay] 1
    3673.  00:6082  BF                  	db $BF		;[End-Of-Track]
    3674.  00:6083                      .track_40:
    3675.  00:6083  24                  	db $24		;[Note] 37
    3676.  00:6084  6C                  	db $6C		;[Volume] 12
    3677.  00:6085  78                  	db $78		;[Instrument] 9
    3678.  00:6086  C7                  	db $C7		;[Wait] 8
    3679.  00:6087  21                  	db $21		;[Note] 34
    3680.  00:6088                      				;[Skip delay] 8
    3681.  00:6088  23                  	db $23		;[Note] 36
    3682.  00:6089                      				;[Skip delay] 8
    3683.  00:6089  26                  	db $26		;[Note] 39
    3684.  00:608A                      				;[Skip delay] 8
    3685.  00:608A  24                  	db $24		;[Note] 37
    3686.  00:608B  76                  	db $76		;[Instrument] 7
    3687.  00:608C  C1                  	db $C1		;[Wait] 2
    3688.  00:608D  24                  	db $24		;[Note] 37
    3689.  00:608E  C0                  	db $C0		;[Wait] 1
    3690.  00:608F  24                  	db $24		;[Note] 37
    3691.  00:6090                      				;[Skip delay] 1
    3692.  00:6090  24                  	db $24		;[Note] 37
    3693.  00:6091  C1                  	db $C1		;[Wait] 2
    3694.  00:6092  24                  	db $24		;[Note] 37
    3695.  00:6093                      				;[Skip delay] 2
    3696.  00:6093  26                  	db $26		;[Note] 39
    3697.  00:6094  C2                  	db $C2		;[Wait] 3
    3698.  00:6095  26                  	db $26		;[Note] 39
    3699.  00:6096                      				;[Skip delay] 3
    3700.  00:6096  28                  	db $28		;[Note] 41
    3701.  00:6097  C3                  	db $C3		;[Wait] 4
    3702.  00:6098  28                  	db $28		;[Note] 41
    3703.  00:6099  C1                  	db $C1		;[Wait] 2
    3704.  00:609A  28                  	db $28		;[Note] 41
    3705.  00:609B                      				;[Skip delay] 2
    3706.  00:609B  28                  	db $28		;[Note] 41
    3707.  00:609C                      				;[Skip delay] 2
    3708.  00:609C  28                  	db $28		;[Note] 41
    3709.  00:609D  C1                  	db $C1		;[Wait..] 2
    3710.  00:609E  6E                  	db $6E		;[Volume] 14
    3711.  00:609F  A5 10               	db $A5, $10; slide-down
    3712.  00:60A1  C0                  	db $C0		;[Wait] 1
    3713.  00:60A2  6D                  	db $6D		;[Volume] 13
    3714.  00:60A3  AF 03               	db $AF, $03; slide-down rep
    3715.  00:60A5                      				;[Skip delay] 1
    3716.  00:60A5  6C                  	db $6C		;[Volume] 12
    3717.  00:60A6                      				;[Skip delay] 1
    3718.  00:60A6  6A                  	db $6A		;[Volume] 10
    3719.  00:60A7                      				;[Skip delay] 1
    3720.  00:60A7  60                  	db $60		;[Note] 97
    3721.  00:60A8  C1                  	db $C1		;[Wait] 2
    3722.  00:60A9  BF                  	db $BF		;[End-Of-Track]
    3723.  00:60AA                      .track_41:
    3724.  00:60AA  09                  	db $09		;[Note] 10
    3725.  00:60AB  6F                  	db $6F		;[Volume] 15
    3726.  00:60AC  79                  	db $79		;[Instrument] 10
    3727.  00:60AD  C1                  	db $C1		;[Wait] 2
    3728.  00:60AE  09                  	db $09		;[Note] 10
    3729.  00:60AF  C0                  	db $C0		;[Wait] 1
    3730.  00:60B0  09                  	db $09		;[Note] 10
    3731.  00:60B1                      				;[Skip delay] 1
    3732.  00:60B1  09                  	db $09		;[Note] 10
    3733.  00:60B2  C1                  	db $C1		;[Wait] 2
    3734.  00:60B3  09                  	db $09		;[Note] 10
    3735.  00:60B4                      				;[Skip delay] 2
    3736.  00:60B4  09                  	db $09		;[Note] 10
    3737.  00:60B5                      				;[Skip delay] 2
    3738.  00:60B5  04                  	db $04		;[Note] 5
    3739.  00:60B6                      				;[Skip delay] 2
    3740.  00:60B6  09                  	db $09		;[Note] 10
    3741.  00:60B7                      				;[Skip delay] 2
    3742.  00:60B7  07                  	db $07		;[Note] 8
    3743.  00:60B8  C3                  	db $C3		;[Wait] 4
    3744.  00:60B9  07                  	db $07		;[Note] 8
    3745.  00:60BA                      				;[Skip delay] 4
    3746.  00:60BA  07                  	db $07		;[Note] 8
    3747.  00:60BB  C1                  	db $C1		;[Wait] 2
    3748.  00:60BC  02                  	db $02		;[Note] 3
    3749.  00:60BD  C3                  	db $C3		;[Wait] 4
    3750.  00:60BE  07                  	db $07		;[Note] 8
    3751.  00:60BF                      				;[Skip delay] 4
    3752.  00:60BF  05                  	db $05		;[Note] 6
    3753.  00:60C0  C1                  	db $C1		;[Wait] 2
    3754.  00:60C1  05                  	db $05		;[Note] 6
    3755.  00:60C2  C0                  	db $C0		;[Wait] 1
    3756.  00:60C3  05                  	db $05		;[Note] 6
    3757.  00:60C4                      				;[Skip delay] 1
    3758.  00:60C4  05                  	db $05		;[Note] 6
    3759.  00:60C5  C1                  	db $C1		;[Wait] 2
    3760.  00:60C6  05                  	db $05		;[Note] 6
    3761.  00:60C7                      				;[Skip delay] 2
    3762.  00:60C7  07                  	db $07		;[Note] 8
    3763.  00:60C8  C2                  	db $C2		;[Wait] 3
    3764.  00:60C9  07                  	db $07		;[Note] 8
    3765.  00:60CA                      				;[Skip delay] 3
    3766.  00:60CA  09                  	db $09		;[Note] 10
    3767.  00:60CB  C3                  	db $C3		;[Wait] 4
    3768.  00:60CC  09                  	db $09		;[Note] 10
    3769.  00:60CD  C1                  	db $C1		;[Wait] 2
    3770.  00:60CE  09                  	db $09		;[Note] 10
    3771.  00:60CF                      				;[Skip delay] 2
    3772.  00:60CF  09                  	db $09		;[Note] 10
    3773.  00:60D0                      				;[Skip delay] 2
    3774.  00:60D0  09                  	db $09		;[Note] 10
    3775.  00:60D1  C1                  	db $C1		;[Wait..] 2
    3776.  00:60D2  6D                  	db $6D		;[Volume] 13
    3777.  00:60D3  A5 10               	db $A5, $10; slide-down
    3778.  00:60D5  C0                  	db $C0		;[Wait] 1
    3779.  00:60D6  6A                  	db $6A		;[Volume] 10
    3780.  00:60D7  AF 03               	db $AF, $03; slide-down rep
    3781.  00:60D9                      				;[Skip delay] 1
    3782.  00:60D9  69                  	db $69		;[Volume] 9
    3783.  00:60DA                      				;[Skip delay] 1
    3784.  00:60DA  67                  	db $67		;[Volume] 7
    3785.  00:60DB                      				;[Skip delay] 1
    3786.  00:60DB  60                  	db $60		;[Note] 97
    3787.  00:60DC  C1                  	db $C1		;[Wait] 2
    3788.  00:60DD  BF                  	db $BF		;[End-Of-Track]
    3789.  00:60DE                      .track_42:
    3790.  00:60DE  23                  	db $23		;[Note] 36
    3791.  00:60DF  6F                  	db $6F		;[Volume] 15
    3792.  00:60E0  7A                  	db $7A		;[Instrument] 11
    3793.  00:60E1  C1                  	db $C1		;[Wait] 2
    3794.  00:60E2  21                  	db $21		;[Note] 34
    3795.  00:60E3                      				;[Skip delay] 2
    3796.  00:60E3  1F                  	db $1F		;[Note] 32
    3797.  00:60E4  C3                  	db $C3		;[Wait] 4
    3798.  00:60E5  1C                  	db $1C		;[Note] 29
    3799.  00:60E6                      				;[Skip delay] 4
    3800.  00:60E6  24                  	db $24		;[Note] 37
    3801.  00:60E7                      				;[Skip delay] 4
    3802.  00:60E7  26                  	db $26		;[Note] 39
    3803.  00:60E8  C1                  	db $C1		;[Wait] 2
    3804.  00:60E9  24                  	db $24		;[Note] 37
    3805.  00:60EA                      				;[Skip delay] 2
    3806.  00:60EA  23                  	db $23		;[Note] 36
    3807.  00:60EB  C3                  	db $C3		;[Wait] 4
    3808.  00:60EC  23                  	db $23		;[Note] 36
    3809.  00:60ED  C1                  	db $C1		;[Wait] 2
    3810.  00:60EE  21                  	db $21		;[Note] 34
    3811.  00:60EF                      				;[Skip delay] 2
    3812.  00:60EF  1F                  	db $1F		;[Note] 32
    3813.  00:60F0  C2                  	db $C2		;[Wait] 3
    3814.  00:60F1  60                  	db $60		;[Note] 97
    3815.  00:60F2  C0                  	db $C0		;[Wait] 1
    3816.  00:60F3  2B                  	db $2B		;[Note] 44
    3817.  00:60F4  84                  	db $84		;[Instrument] 21
    3818.  00:60F5  C3                  	db $C3		;[Wait] 4
    3819.  00:60F6  28                  	db $28		;[Note] 41
    3820.  00:60F7  C1                  	db $C1		;[Wait] 2
    3821.  00:60F8  2B                  	db $2B		;[Note] 44
    3822.  00:60F9  C0                  	db $C0		;[Wait] 1
    3823.  00:60FA  28                  	db $28		;[Note] 41
    3824.  00:60FB                      				;[Skip delay] 1
    3825.  00:60FB  21                  	db $21		;[Note] 34
    3826.  00:60FC  C2                  	db $C2		;[Wait] 3
    3827.  00:60FD  1C                  	db $1C		;[Note] 29
    3828.  00:60FE                      				;[Skip delay] 3
    3829.  00:60FE  1A                  	db $1A		;[Note] 27
    3830.  00:60FF  C3                  	db $C3		;[Wait] 4
    3831.  00:6100  10                  	db $10		;[Note] 17
    3832.  00:6101  8A                  	db $8A		;[Instrument] 27
    3833.  00:6102  C1                  	db $C1		;[Wait] 2
    3834.  00:6103  10                  	db $10		;[Note] 17
    3835.  00:6104                      				;[Skip delay] 2
    3836.  00:6104  10                  	db $10		;[Note] 17
    3837.  00:6105                      				;[Skip delay] 2
    3838.  00:6105  10                  	db $10		;[Note] 17
    3839.  00:6106  C0                  	db $C0		;[Wait] 1
    3840.  00:6107  A5 10               	db $A5, $10; slide-down
    3841.  00:6109                      				;[Skip delay] 1
    3842.  00:6109  6D                  	db $6D		;[Volume] 13
    3843.  00:610A  AF 03               	db $AF, $03; slide-down rep
    3844.  00:610C                      				;[Skip delay] 1
    3845.  00:610C  6A                  	db $6A		;[Volume] 10
    3846.  00:610D                      				;[Skip delay] 1
    3847.  00:610D  69                  	db $69		;[Volume] 9
    3848.  00:610E                      				;[Skip delay] 1
    3849.  00:610E  67                  	db $67		;[Volume] 7
    3850.  00:610F                      				;[Skip delay] 1
    3851.  00:610F  60                  	db $60		;[Note] 97
    3852.  00:6110  C1                  	db $C1		;[Wait] 2
    3853.  00:6111  BF                  	db $BF		;[End-Of-Track]
    3854.  00:6112                      .track_43:
    3855.  00:6112  09                  	db $09		;[Note] 10
    3856.  00:6113  6A                  	db $6A		;[Volume] 10
    3857.  00:6114  7B                  	db $7B		;[Instrument] 12
    3858.  00:6115  C0                  	db $C0		;[Wait] 1
    3859.  00:6116  69                  	db $69		;[Volume] 9
    3860.  00:6117                      				;[Skip delay] 1
    3861.  00:6117  68                  	db $68		;[Volume] 8
    3862.  00:6118                      				;[Skip delay] 1
    3863.  00:6118  66                  	db $66		;[Volume] 6
    3864.  00:6119                      				;[Skip delay] 1
    3865.  00:6119  23                  	db $23		;[Note] 36
    3866.  00:611A  6B                  	db $6B		;[Volume] 11
    3867.  00:611B  7D                  	db $7D		;[Instrument] 14
    3868.  00:611C                      				;[Skip delay] 1
    3869.  00:611C  24                  	db $24		;[Note] 37
    3870.  00:611D  A6 07               	db $A6, $07; tone-slide
    3871.  00:611F                      				;[Skip delay] 1
    3872.  00:611F  B0 02               	db $B0, $02; tone-slide rep
    3873.  00:6121                      				;[Skip delay] 1
    3874.  00:6121  60                  	db $60		;[Note] 97
    3875.  00:6122                      				;[Skip delay] 1
    3876.  00:6122  23                  	db $23		;[Note] 36
    3877.  00:6123  C2                  	db $C2		;[Wait] 3
    3878.  00:6124  6A                  	db $6A		;[Volume] 10
    3879.  00:6125  C0                  	db $C0		;[Wait] 1
    3880.  00:6126  69                  	db $69		;[Volume] 9
    3881.  00:6127                      				;[Skip delay] 1
    3882.  00:6127  67                  	db $67		;[Volume] 7
    3883.  00:6128                      				;[Skip delay] 1
    3884.  00:6128  66                  	db $66		;[Volume] 6
    3885.  00:6129                      				;[Skip delay] 1
    3886.  00:6129  64                  	db $64		;[Volume] 4
    3887.  00:612A  C2                  	db $C2		;[Wait] 3
    3888.  00:612B  28                  	db $28		;[Note] 41
    3889.  00:612C  68                  	db $68		;[Volume] 8
    3890.  00:612D  89                  	db $89		;[Instrument] 26
    3891.  00:612E  C1                  	db $C1		;[Wait] 2
    3892.  00:612F  2D                  	db $2D		;[Note] 46
    3893.  00:6130  C2                  	db $C2		;[Wait] 3
    3894.  00:6131  32                  	db $32		;[Note] 51
    3895.  00:6132                      				;[Skip delay] 3
    3896.  00:6132  2D                  	db $2D		;[Note] 46
    3897.  00:6133  C1                  	db $C1		;[Wait] 2
    3898.  00:6134  30                  	db $30		;[Note] 49
    3899.  00:6135                      				;[Skip delay] 2
    3900.  00:6135  32                  	db $32		;[Note] 51
    3901.  00:6136                      				;[Skip delay] 2
    3902.  00:6136  2D                  	db $2D		;[Note] 46
    3903.  00:6137  69                  	db $69		;[Volume] 9
    3904.  00:6138  83                  	db $83		;[Instrument] 20
    3905.  00:6139                      				;[Skip delay] 2
    3906.  00:6139  67                  	db $67		;[Volume] 7
    3907.  00:613A  C0                  	db $C0		;[Wait] 1
    3908.  00:613B  66                  	db $66		;[Volume] 6
    3909.  00:613C                      				;[Skip delay] 1
    3910.  00:613C  30                  	db $30		;[Note] 49
    3911.  00:613D  69                  	db $69		;[Volume] 9
    3912.  00:613E                      				;[Skip delay] 1
    3913.  00:613E  64                  	db $64		;[Volume] 4
    3914.  00:613F                      				;[Skip delay] 1
    3915.  00:613F  62                  	db $62		;[Volume] 2
    3916.  00:6140  C1                  	db $C1		;[Wait] 2
    3917.  00:6141  2F                  	db $2F		;[Note] 48
    3918.  00:6142  69                  	db $69		;[Volume] 9
    3919.  00:6143  C0                  	db $C0		;[Wait] 1
    3920.  00:6144  65                  	db $65		;[Volume] 5
    3921.  00:6145                      				;[Skip delay] 1
    3922.  00:6145  63                  	db $63		;[Volume] 3
    3923.  00:6146                      				;[Skip delay] 1
    3924.  00:6146  2B                  	db $2B		;[Note] 44
    3925.  00:6147  68                  	db $68		;[Volume] 8
    3926.  00:6148  C2                  	db $C2		;[Wait] 3
    3927.  00:6149  28                  	db $28		;[Note] 41
    3928.  00:614A  C1                  	db $C1		;[Wait] 2
    3929.  00:614B  A7 55               	db $A7, $55	;[CMD vibrato]
    3930.  00:614D  C0                  	db $C0		;[Wait] 1
    3931.  00:614E  65                  	db $65		;[Volume] 5
    3932.  00:614F  B1 03               	db $B1, $03	;[CMD vibrato] rep
    3933.  00:6151                      				;[Skip delay] 1
    3934.  00:6151  64                  	db $64		;[Volume] 4
    3935.  00:6152                      				;[Skip delay] 1
    3936.  00:6152  63                  	db $63		;[Volume] 3
    3937.  00:6153                      				;[Skip delay] 1
    3938.  00:6153  60                  	db $60		;[Note] 97
    3939.  00:6154  CB                  	db $CB		;[Wait] 12
    3940.  00:6155  BF                  	db $BF		;[End-Of-Track]
    3941.  00:6156                      .track_44:
    3942.  00:6156  60                  	db $60		;[Note] 97
    3943.  00:6157  C3                  	db $C3		;[Wait] 4
    3944.  00:6158  37                  	db $37		;[Note] 56
    3945.  00:6159  6D                  	db $6D		;[Volume] 13
    3946.  00:615A  83                  	db $83		;[Instrument] 20
    3947.  00:615B  C0                  	db $C0		;[Wait] 1
    3948.  00:615C  39                  	db $39		;[Note] 58
    3949.  00:615D  A6 07               	db $A6, $07; tone-slide
    3950.  00:615F                      				;[Skip delay] 1
    3951.  00:615F  B0 01               	db $B0, $01; tone-slide rep
    3952.  00:6161                      				;[Skip delay] 1
    3953.  00:6161  60                  	db $60		;[Note] 97
    3954.  00:6162                      				;[Skip delay] 1
    3955.  00:6162  37                  	db $37		;[Note] 56
    3956.  00:6163  C3                  	db $C3		;[Wait] 4
    3957.  00:6164  A7 55               	db $A7, $55	;[CMD vibrato]
    3958.  00:6166  C0                  	db $C0		;[Wait] 1
    3959.  00:6167  B1 03               	db $B1, $03	;[CMD vibrato] rep
    3960.  00:6169  C2                  	db $C2		;[Wait] 3
    3961.  00:616A  3E                  	db $3E		;[Note] 63
    3962.  00:616B  C0                  	db $C0		;[Wait] 1
    3963.  00:616C  40                  	db $40		;[Note] 65
    3964.  00:616D  A6 07               	db $A6, $07; tone-slide
    3965.  00:616F                      				;[Skip delay] 1
    3966.  00:616F  3E                  	db $3E		;[Note] 63
    3967.  00:6170  C1                  	db $C1		;[Wait] 2
    3968.  00:6171  3C                  	db $3C		;[Note] 61
    3969.  00:6172  C1                  	db $C1		;[Wait..] 2
    3970.  00:6173  A7 55               	db $A7, $55	;[CMD vibrato]
    3971.  00:6175  C0                  	db $C0		;[Wait] 1
    3972.  00:6176  39                  	db $39		;[Note] 58
    3973.  00:6177  C0                  	db $C0		;[Wait..] 1
    3974.  00:6178  67                  	db $67		;[Volume] 7
    3975.  00:6179                      				;[Skip delay] 1
    3976.  00:6179  65                  	db $65		;[Volume] 5
    3977.  00:617A                      				;[Skip delay] 1
    3978.  00:617A  39                  	db $39		;[Note] 58
    3979.  00:617B  6D                  	db $6D		;[Volume] 13
    3980.  00:617C                      				;[Skip delay] 1
    3981.  00:617C  68                  	db $68		;[Volume] 8
    3982.  00:617D                      				;[Skip delay] 1
    3983.  00:617D  39                  	db $39		;[Note] 58
    3984.  00:617E  6D                  	db $6D		;[Volume] 13
    3985.  00:617F  C1                  	db $C1		;[Wait] 2
    3986.  00:6180  40                  	db $40		;[Note] 65
    3987.  00:6181                      				;[Skip delay] 2
    3988.  00:6181  3E                  	db $3E		;[Note] 63
    3989.  00:6182  C1                  	db $C1		;[Wait..] 2
    3990.  00:6183  66                  	db $66		;[Volume] 6
    3991.  00:6184  C0                  	db $C0		;[Wait] 1
    3992.  00:6185  63                  	db $63		;[Volume] 3
    3993.  00:6186                      				;[Skip delay] 1
    3994.  00:6186  3C                  	db $3C		;[Note] 61
    3995.  00:6187  6D                  	db $6D		;[Volume] 13
    3996.  00:6188  C1                  	db $C1		;[Wait] 2
    3997.  00:6189  66                  	db $66		;[Volume] 6
    3998.  00:618A  C0                  	db $C0		;[Wait] 1
    3999.  00:618B  63                  	db $63		;[Volume] 3
    4000.  00:618C                      				;[Skip delay] 1
    4001.  00:618C  3B                  	db $3B		;[Note] 60
    4002.  00:618D  6D                  	db $6D		;[Volume] 13
    4003.  00:618E  C1                  	db $C1		;[Wait] 2
    4004.  00:618F  69                  	db $69		;[Volume] 9
    4005.  00:6190  C0                  	db $C0		;[Wait] 1
    4006.  00:6191  37                  	db $37		;[Note] 56
    4007.  00:6192  6D                  	db $6D		;[Volume] 13
    4008.  00:6193  C1                  	db $C1		;[Wait] 2
    4009.  00:6194  69                  	db $69		;[Volume] 9
    4010.  00:6195  C0                  	db $C0		;[Wait] 1
    4011.  00:6196  39                  	db $39		;[Note] 58
    4012.  00:6197  6B                  	db $6B		;[Volume] 11
    4013.  00:6198  C1                  	db $C1		;[Wait] 2
    4014.  00:6199  A7 55               	db $A7, $55	;[CMD vibrato]
    4015.  00:619B  C0                  	db $C0		;[Wait] 1
    4016.  00:619C  69                  	db $69		;[Volume] 9
    4017.  00:619D  B1 03               	db $B1, $03	;[CMD vibrato] rep
    4018.  00:619F                      				;[Skip delay] 1
    4019.  00:619F  67                  	db $67		;[Volume] 7
    4020.  00:61A0                      				;[Skip delay] 1
    4021.  00:61A0  66                  	db $66		;[Volume] 6
    4022.  00:61A1                      				;[Skip delay] 1
    4023.  00:61A1  60                  	db $60		;[Note] 97
    4024.  00:61A2  CB                  	db $CB		;[Wait] 12
    4025.  00:61A3  BF                  	db $BF		;[End-Of-Track]
    4026.  00:61A4                      .track_45:
    4027.  00:61A4  60                  	db $60		;[Note] 97
    4028.  00:61A5  C3                  	db $C3		;[Wait] 4
    4029.  00:61A6  2F                  	db $2F		;[Note] 48
    4030.  00:61A7  69                  	db $69		;[Volume] 9
    4031.  00:61A8  83                  	db $83		;[Instrument] 20
    4032.  00:61A9  C0                  	db $C0		;[Wait] 1
    4033.  00:61AA  30                  	db $30		;[Note] 49
    4034.  00:61AB  A6 08               	db $A6, $08; tone-slide
    4035.  00:61AD                      				;[Skip delay] 1
    4036.  00:61AD  B0 01               	db $B0, $01; tone-slide rep
    4037.  00:61AF                      				;[Skip delay] 1
    4038.  00:61AF  60                  	db $60		;[Note] 97
    4039.  00:61B0                      				;[Skip delay] 1
    4040.  00:61B0  2F                  	db $2F		;[Note] 48
    4041.  00:61B1  C7                  	db $C7		;[Wait] 8
    4042.  00:61B2  3B                  	db $3B		;[Note] 60
    4043.  00:61B3  C0                  	db $C0		;[Wait] 1
    4044.  00:61B4  3C                  	db $3C		;[Note] 61
    4045.  00:61B5  A6 06               	db $A6, $06; tone-slide
    4046.  00:61B7                      				;[Skip delay] 1
    4047.  00:61B7  3B                  	db $3B		;[Note] 60
    4048.  00:61B8  C1                  	db $C1		;[Wait] 2
    4049.  00:61B9  39                  	db $39		;[Note] 58
    4050.  00:61BA  C2                  	db $C2		;[Wait] 3
    4051.  00:61BB  34                  	db $34		;[Note] 53
    4052.  00:61BC                      				;[Skip delay] 3
    4053.  00:61BC  34                  	db $34		;[Note] 53
    4054.  00:61BD  C1                  	db $C1		;[Wait] 2
    4055.  00:61BE  34                  	db $34		;[Note] 53
    4056.  00:61BF                      				;[Skip delay] 2
    4057.  00:61BF  39                  	db $39		;[Note] 58
    4058.  00:61C0  C0                  	db $C0		;[Wait] 1
    4059.  00:61C1  60                  	db $60		;[Note] 97
    4060.  00:61C2                      				;[Skip delay] 1
    4061.  00:61C2  3B                  	db $3B		;[Note] 60
    4062.  00:61C3  6D                  	db $6D		;[Volume] 13
    4063.  00:61C4  C1                  	db $C1		;[Wait] 2
    4064.  00:61C5  66                  	db $66		;[Volume] 6
    4065.  00:61C6  C0                  	db $C0		;[Wait] 1
    4066.  00:61C7  63                  	db $63		;[Volume] 3
    4067.  00:61C8                      				;[Skip delay] 1
    4068.  00:61C8  39                  	db $39		;[Note] 58
    4069.  00:61C9  6D                  	db $6D		;[Volume] 13
    4070.  00:61CA  C1                  	db $C1		;[Wait] 2
    4071.  00:61CB  66                  	db $66		;[Volume] 6
    4072.  00:61CC  C0                  	db $C0		;[Wait] 1
    4073.  00:61CD  63                  	db $63		;[Volume] 3
    4074.  00:61CE                      				;[Skip delay] 1
    4075.  00:61CE  37                  	db $37		;[Note] 56
    4076.  00:61CF  6D                  	db $6D		;[Volume] 13
    4077.  00:61D0  C1                  	db $C1		;[Wait] 2
    4078.  00:61D1  69                  	db $69		;[Volume] 9
    4079.  00:61D2  C0                  	db $C0		;[Wait] 1
    4080.  00:61D3  34                  	db $34		;[Note] 53
    4081.  00:61D4  6D                  	db $6D		;[Volume] 13
    4082.  00:61D5  C1                  	db $C1		;[Wait] 2
    4083.  00:61D6  69                  	db $69		;[Volume] 9
    4084.  00:61D7  C0                  	db $C0		;[Wait] 1
    4085.  00:61D8  34                  	db $34		;[Note] 53
    4086.  00:61D9  6B                  	db $6B		;[Volume] 11
    4087.  00:61DA  C2                  	db $C2		;[Wait] 3
    4088.  00:61DB  68                  	db $68		;[Volume] 8
    4089.  00:61DC  C0                  	db $C0		;[Wait] 1
    4090.  00:61DD  65                  	db $65		;[Volume] 5
    4091.  00:61DE                      				;[Skip delay] 1
    4092.  00:61DE  63                  	db $63		;[Volume] 3
    4093.  00:61DF                      				;[Skip delay] 1
    4094.  00:61DF  60                  	db $60		;[Note] 97
    4095.  00:61E0  CB                  	db $CB		;[Wait] 12
    4096.  00:61E1  BF                  	db $BF		;[End-Of-Track]
    4097.  00:61E2                      .track_46:
    4098.  00:61E2  BF                  	db $BF		;[End-Of-Track]
    4099.  00:61E3                      ; [ Song sub-track data ]
     134   00:61E3                      
     135   00:61E3                      	include ".\sfx.asm"
       1.  00:61E3                      ; Compiled using tt_compile.exe V0.4.0 [16-09-2016]
       2.  00:61E3                      ; Copyright 2016 Richard Cornelisse
       3.  00:61E3                      
       4.  00:61E3                      ; Song: TriloTracker v0.10.0 public beta
       5.  00:61E3                      ; By:    Richard Cornelisse      (c) 201
       6.  00:61E3                      
       7.  00:61E3                      ttsfx_waveforms:
       8.  00:61E3                      	db $7F,$7F,$7F,$7F,$7F,$7F,$7F,$7F,$7F,$7F,$7F,$7F,$7F,$7F,$7F,$7F,$80,$80,$80,$80,$80,$80,$80,$80,$80,$80,$80,$80,$80,$80,$80,$00	; Waveform 0(was 0)
       8.  00:61E3  7F 7F 7F 7F 7F 7F 7F 7F 7F 7F 7F 7F 7F 7F 7F 7F 
       8.  00:61F3  80 80 80 80 80 80 80 80 80 80 80 80 80 80 80 00 
       9.  00:6203                      	db $00,$19,$31,$47,$5A,$6A,$75,$7D,$7F,$7D,$75,$6A,$5A,$47,$31,$19,$80,$90,$A0,$B0,$C0,$D0,$E0,$F0,$00,$10,$20,$30,$40,$50,$60,$70	; Waveform 1(was 9)
       9.  00:6203  00 19 31 47 5A 6A 75 7D 7F 7D 75 6A 5A 47 31 19 
       9.  00:6213  80 90 A0 B0 C0 D0 E0 F0 00 10 20 30 40 50 60 70 
      10.  00:6223                      	db $00,$00,$00,$80,$00,$70,$70,$70,$00,$00,$00,$80,$00,$00,$00,$80,$80,$80,$80,$00,$80,$00,$00,$00,$00,$80,$80,$80,$00,$80,$80,$80	; Waveform 2(was 31)
      10.  00:6223  00 00 00 80 00 70 70 70 00 00 00 80 00 00 00 80 
      10.  00:6233  80 80 80 00 80 00 00 00 00 80 80 80 00 80 80 80 
      11.  00:6243                      
      12.  00:6243                      ; [ sfx start data ]
      13.  00:6243                      
      14.  00:6243                      ; [ sfx order pointer list ]
      15.  00:6243                      sfxlist:
      16.  00:6243  49 62               	dw sfx_0
      17.  00:6245  4D 62               	dw sfx_1
      18.  00:6247  51 62               	dw sfx_2
      19.  00:6249                      
      20.  00:6249                      sfx_0:	; sfx 0 /pattern 0
      21.  00:6249  01                  	db 1		; PSG
      22.  00:624A  55 62               	dw sfxtrack_0
      23.  00:624C  00                  	db 0        ; End of SFX
      24.  00:624D                      sfx_1:	; sfx 1 /pattern 1
      25.  00:624D  01                  	db 1		; PSG
      26.  00:624E  BC 62               	dw sfxtrack_8
      27.  00:6250  00                  	db 0        ; End of SFX
      28.  00:6251                      sfx_2:	; sfx 2 /pattern 2
      29.  00:6251  02                  	db 2		; SCC
      30.  00:6252  D4 62               	dw sfxtrack_19
      31.  00:6254  00                  	db 0        ; End of SFX
      32.  00:6255                      
      33.  00:6255                      ; [ SFX data ]
      34.  00:6255                      sfxtrack_0:		;Chip:PSG
      35.  00:6255                      	; Note: 85  Ins: 1  Wav: 0  Vol: 240  
      36.  00:6255  3F 19 00            	db $3F, $19, $00
      37.  00:6258  3F 1A 00            	db $3F, $1A, $00
      38.  00:625B                      	; Note: 73  
      39.  00:625B  3F 32 00            	db $3F, $32, $00
      40.  00:625E  3F 33 00            	db $3F, $33, $00
      41.  00:6261                      	; Note: 85  
      42.  00:6261  3F 19 00            	db $3F, $19, $00
      43.  00:6264  3F 1A 00            	db $3F, $1A, $00
      44.  00:6267                      	; Note: 73  
      45.  00:6267  3F 32 00            	db $3F, $32, $00
      46.  00:626A  3F 33 00            	db $3F, $33, $00
      47.  00:626D                      	; Note: 85  
      48.  00:626D  3F 19 00            	db $3F, $19, $00
      49.  00:6270  3F 1A 00            	db $3F, $1A, $00
      50.  00:6273                      	; Note: 73  
      51.  00:6273  3F 32 00            	db $3F, $32, $00
      52.  00:6276  3F 33 00            	db $3F, $33, $00
      53.  00:6279                      	; Note: 85  
      54.  00:6279  3F 19 00            	db $3F, $19, $00
      55.  00:627C  3F 1A 00            	db $3F, $1A, $00
      56.  00:627F                      	; Note: 73  
      57.  00:627F  3F 32 00            	db $3F, $32, $00
      58.  00:6282  3F 33 00            	db $3F, $33, $00
      59.  00:6285                      	; Note: 85  
      60.  00:6285  3F 19 00            	db $3F, $19, $00
      61.  00:6288  3F 1A 00            	db $3F, $1A, $00
      62.  00:628B                      	; Note: 73  
      63.  00:628B  3F 32 00            	db $3F, $32, $00
      64.  00:628E  3F 33 00            	db $3F, $33, $00
      65.  00:6291                      	; Note: 85  Vol: 160  
      66.  00:6291  3A 19 00            	db $3A, $19, $00
      67.  00:6294  3A 1A 00            	db $3A, $1A, $00
      68.  00:6297                      	; Note: 73  
      69.  00:6297  3A 32 00            	db $3A, $32, $00
      70.  00:629A  3A 33 00            	db $3A, $33, $00
      71.  00:629D                      	; Note: 85  Vol: 128  
      72.  00:629D  38 19 00            	db $38, $19, $00
      73.  00:62A0  38 1A 00            	db $38, $1A, $00
      74.  00:62A3                      	; Note: 73  
      75.  00:62A3  38 32 00            	db $38, $32, $00
      76.  00:62A6  38 33 00            	db $38, $33, $00
      77.  00:62A9                      	; Note: 85  Vol: 96  
      78.  00:62A9  36 19 00            	db $36, $19, $00
      79.  00:62AC  36 1A 00            	db $36, $1A, $00
      80.  00:62AF                      	; Note: 73  
      81.  00:62AF  36 32 00            	db $36, $32, $00
      82.  00:62B2  36 33 00            	db $36, $33, $00
      83.  00:62B5                      	; Note: 85  Vol: 64  
      84.  00:62B5  34 19 00            	db $34, $19, $00
      85.  00:62B8  34 1A 00            	db $34, $1A, $00
      86.  00:62BB                      ;	db $12
      87.  00:62BB  40                  	db 64		; End delimiter PSG
      88.  00:62BC                       
      89.  00:62BC                      sfxtrack_8:		;Chip:PSG
      90.  00:62BC                      	; Note: 29  Ins: 2  Wav: 0  Vol: 240  
      91.  00:62BC  AC 78 02            	db $AC, $78, $02
      92.  00:62BF  B8 A8 02            	db $B8, $A8, $02
      93.  00:62C2                      	; 
      94.  00:62C2  AC 78 02            	db $AC, $78, $02
      95.  00:62C5  B8 A8 02            	db $B8, $A8, $02
      96.  00:62C8                      	; 
      97.  00:62C8  20 78 02            	db $20, $78, $02
      98.  00:62CB  00                  	db $00
      99.  00:62CC                      	; 
     100.  00:62CC  00                  	db $00
     101.  00:62CD  00                  	db $00
     102.  00:62CE                      	; 
     103.  00:62CE  00                  	db $00
     104.  00:62CF  8C                  	db $8C
     105.  00:62D0                      	; -R-: 
     106.  00:62D0  00                  	db $00
     107.  00:62D1  00                  	db $00
     108.  00:62D2  00                  	db $00
     109.  00:62D3  40                  	db 64		; End delimiter PSG
     110.  00:62D4                       
     111.  00:62D4                      sfxtrack_19:		;Chip:SCC
     112.  00:62D4                      	; Note: 85  Ins: 3  Wav: 1  Vol: 240  
     113.  00:62D4  7B 0F 00 08         	db $7B, $0F, $00, $08
     114.  00:62D8  3A 14 00            	db $3A, $14, $00
     115.  00:62DB                      	; 
     116.  00:62DB  37 0F 00            	db $37, $0F, $00
     117.  00:62DE  3C 19 00            	db $3C, $19, $00
     118.  00:62E1                      	; 
     119.  00:62E1  1A                  	db $1A
     120.  00:62E2  1A                  	db $1A
     121.  00:62E3                      	; 
     122.  00:62E3  3A 1A 00            	db $3A, $1A, $00
     123.  00:62E6  1A                  	db $1A
     124.  00:62E7                      	; 
     125.  00:62E7  3A 19 00            	db $3A, $19, $00
     126.  00:62EA  19                  	db $19
     127.  00:62EB                      	; 
     128.  00:62EB  19                  	db $19
     129.  00:62EC  39 1A 00            	db $39, $1A, $00
     130.  00:62EF                      	; 
     131.  00:62EF  19                  	db $19
     132.  00:62F0  39 19 00            	db $39, $19, $00
     133.  00:62F3                      	; 
     134.  00:62F3  18                  	db $18
     135.  00:62F4  18                  	db $18
     136.  00:62F5                      	; 
     137.  00:62F5  38 1A 00            	db $38, $1A, $00
     138.  00:62F8  18                  	db $18
     139.  00:62F9                      	; 
     140.  00:62F9  38 19 00            	db $38, $19, $00
     141.  00:62FC  17                  	db $17
     142.  00:62FD                      	; 
     143.  00:62FD  17                  	db $17
     144.  00:62FE  37 1A 00            	db $37, $1A, $00
     145.  00:6301                      	; 
     146.  00:6301  17                  	db $17
     147.  00:6302  37 19 00            	db $37, $19, $00
     148.  00:6305                      	; 
     149.  00:6305  16                  	db $16
     150.  00:6306  16                  	db $16
     151.  00:6307                      	; 
     152.  00:6307  36 1A 00            	db $36, $1A, $00
     153.  00:630A  16                  	db $16
     154.  00:630B                      	; 
     155.  00:630B  36 19 00            	db $36, $19, $00
     156.  00:630E  15                  	db $15
     157.  00:630F                      	; 
     158.  00:630F  15                  	db $15
     159.  00:6310  35 1A 00            	db $35, $1A, $00
     160.  00:6313                      	; 
     161.  00:6313  15                  	db $15
     162.  00:6314  35 19 00            	db $35, $19, $00
     163.  00:6317                      	; 
     164.  00:6317  14                  	db $14
     165.  00:6318  14                  	db $14
     166.  00:6319                      	; 
     167.  00:6319  34 1A 00            	db $34, $1A, $00
     168.  00:631C  14                  	db $14
     169.  00:631D                      	; 
     170.  00:631D  34 19 00            	db $34, $19, $00
     171.  00:6320  13                  	db $13
     172.  00:6321                      	; 
     173.  00:6321  13                  	db $13
     174.  00:6322  33 1A 00            	db $33, $1A, $00
     175.  00:6325                      	; 
     176.  00:6325  13                  	db $13
     177.  00:6326  33 19 00            	db $33, $19, $00
     178.  00:6329                      	; 
     179.  00:6329  12                  	db $12
     180.  00:632A  12                  	db $12
     181.  00:632B                      	; 
     182.  00:632B  32 1A 00            	db $32, $1A, $00
     183.  00:632E  12                  	db $12
     184.  00:632F                      	; 
     185.  00:632F  32 19 00            	db $32, $19, $00
     186.  00:6332  11                  	db $11
     187.  00:6333                      	; 
     188.  00:6333  11                  	db $11
     189.  00:6334  31 1A 00            	db $31, $1A, $00
     190.  00:6337                      	; 
     191.  00:6337  11                  	db $11
     192.  00:6338  31 19 00            	db $31, $19, $00
     193.  00:633B                      	; 
     194.  00:633B  10                  	db $10
     195.  00:633C  10                  	db $10
     196.  00:633D  30 1A 00            	db $30, $1A, $00
     197.  00:6340  80                  	db 128		; End delimiter SCC
     198.  00:6341                       
     199.  00:6341                      
     136   00:6341                      	
     137   00:6341                      ;sfx_PSG_STREAMS:
     138   00:6341                      ;sfx_SCC_STREAMS:
     139   00:6341                      ;	dw	sfx1
     140   00:6341                      ;	dw	sfx2
     141   00:6341                      ;	dw	sfx3
     142   00:6341                      ;	dw	sfx4
     143   00:6341                      ;	dw	sfx5
     144   00:6341                      ;
     145   00:6341                      ;
     146   00:6341                      ;
     147   00:6341                      ;sfx1:
     148   00:6341                      ;	db	1,4*8
     149   00:6341                      ;	incbin	"..\ttsfxplay\sfx\menu1.afx"
     150   00:6341                      ;sfx2:
     151   00:6341                      ;	db	1,2*8
     152   00:6341                      ;	incbin	"..\ttsfxplay\sfx\menu2.afx"	
     153   00:6341                      ;sfx3:
     154   00:6341                      ;	db	1,3*8
     155   00:6341                      ;	incbin	"..\ttsfxplay\sfx\menu3.afx"
     156   00:6341                      ;sfx4:
     157   00:6341                      ;	db	1,5*8
     158   00:6341                      ;	incbin	"..\ttsfxplay\sfx\menu4.afx"
     159   00:6341                      ;sfx5:
     160   00:6341                      ;	db	1,6*8
     161   00:6341                      ;	incbin	"..\ttsfxplay\sfx\menu5.afx"
     162   00:6341                      ;
     163   00:6341                      	
     164   00:6341                      	
     165   00:6341  (C000)              	map	0xc000
     166   00:6341                      	include	"..\code\ttreplayRAM.asm"
       1.  00:6341                      ;================================
       2.  00:6341                      ; The new replayer.
       3.  00:6341                      ;
       4.  00:6341                      ; Persistent RAM unswappable
       5.  00:6341                      ;
       6.  00:6341                      ;================================
       7.  00:6341                      
       8.  00:6341  (00:FFFFFFEF)       TRACK_Instrument		equ 0-17
       9.  00:6341  (00:FFFFFFF0)       TRACK_Command			equ 1-17
      10.  00:6341  (00:FFFFFFF1)       TRACK_MacroPointer		equ 2-17
      11.  00:6341  (00:FFFFFFF3)       TRACK_MacroStart		equ 4-17
      12.  00:6341  (00:FFFFFFF5)       TRACK_MacroRestart 		equ 6-17		; no longer needed
      13.  00:6341  (00:FFFFFFF6)       TRACK_Note				equ 7-17
      14.  00:6341  (00:FFFFFFF7)       TRACK_Volume			equ 8-17
      15.  00:6341  (00:FFFFFFF8)       TRACK_Waveform			equ 9-17
      16.  00:6341  (00:FFFFFFF9)       TRACK_Flags				equ 10-17
      17.  00:6341                      	; 0 = note trigger
      18.  00:6341                      	; 1 = note active
      19.  00:6341                      	; 4 = morph active		;-< for SCC when 1 then waveform is following morph buffer
      20.  00:6341                      	; 3 = command trigger
      21.  00:6341                      	; 2 = envelope trigger
      22.  00:6341                      	; 5 = instrument trigger
      23.  00:6341                      	; 6 = waveform trigger
      24.  00:6341                      	; 7 = PSG/SCC
      25.  00:6341  (00:FFFFFFFA)       TRACK_empty			equ 11-17		; needed for pushing 0 at note start
      26.  00:6341  (00:FFFFFFFB)       TRACK_ToneAdd		equ 12-17		; reset after note set
      27.  00:6341  (00:FFFFFFFD)       TRACK_VolumeAdd		equ 14-17		; reset after note set
      28.  00:6341  (00:FFFFFFFE)       TRACK_Noise			equ 15-17		; reset after note set
      29.  00:6341  (00:FFFFFFFF)       TRACK_cmd_VolumeAdd	equ 16-17		; reset after note set
      30.  00:6341  (00:0000)           TRACK_cmd_ToneSlideAdd	equ 17-17		; reset after note set
      31.  00:6341  (00:0002)           TRACK_cmd_ToneAdd		equ 19-17		; reset after note set
      32.  00:6341                      
      33.  00:6341  (00:0004)           TRACK_cmd_detune		equ 21-17
      34.  00:6341  (00:0005)           TRACK_cmd_0			equ 22-17
      35.  00:6341  (00:0006)           TRACK_cmd_1			equ 23-17
      36.  00:6341  (00:0007)           TRACK_cmd_2			equ 24-17
      37.  00:6341  (00:0008)           TRACK_cmd_3			equ 25-17
      38.  00:6341  (00:0009)           TRACK_cmd_4_depth		equ 26-17
      39.  00:6341  (00:000A)           TRACK_cmd_4_step		equ 27-17
      40.  00:6341  (00:000B)           TRACK_cmd_NoteAdd		equ 28-17		;x reset after note set
      41.  00:6341  (00:000C)           TRACK_cmd_A			equ 29-17		
      42.  00:6341  (00:000D)           TRACK_cmd_B			equ 30-17		
      43.  00:6341  (00:000E)           TRACK_cmd_E			equ 31-17
      44.  00:6341  (00:000F)           TRACK_Timer			equ 32-17		; used for timing by all cmd's
      45.  00:6341  (00:0010)           TRACK_Step			equ 33-17		; only for VIBRATO???
      46.  00:6341  (00:0011)           TRACK_Delay			equ 34-17		; rows to wait till next data
      47.  00:6341  (00:0012)           TRACK_Retrig		equ 35-17		; rows to retrigger command
      48.  00:6341  (00:0013)           TRACK_prevDelay		equ 36-17
      49.  00:6341  (00:0014)           TRACK_cmd_A_add		equ 37-17	;<< Still in use???
      50.  00:6341                      
      51.  00:6341  (00:0026)           TRACK_REC_SIZE		equ 38
      52.  00:6341                      
      53.  00:6341                      
      54.  00:6341  (00:0000)           B_TRGNOT			equ 0			; note trigger
      55.  00:6341  (00:0001)           B_ACTNOT			equ 1			; note active
      56.  00:6341  (00:0002)           B_TRGENV			equ 2			; envelope trigger
      57.  00:6341  (00:0003)           B_TRGCMD			equ 3			; command active
      58.  00:6341  (00:0004)           B_ACTMOR			equ 4			; morph active
      59.  00:6341  (00:0005)           B_TRGINS			equ 5			; instrument trigger
      60.  00:6341  (00:0006)           B_TRGWAV			equ 6			; waveform trigger
      61.  00:6341  (00:0007)           B_PSGSCC			equ 7			; chip type (PSG or SCC)
      62.  00:6341                      
      63.  00:6341                      
      64.  00:6341  (00:C000)           _SP_Storage			#2			; to store the SP
      65.  00:6341                      
      66.  00:6341  (00:C002)           replay_trigger		#1			; trigger byte.
      67.  00:6341  (00:C003)           replay_mainPSGvol		#2			; volume mixer for PSG SCC balance
      68.  00:6341  (00:C005)           replay_mainSCCvol		#2			; volume mixer for PSG SCC balance
      69.  00:6341                      ;replay_songbase:		#2			; pointer to song data
      70.  00:6341  (00:C007)           replay_wavebase:		#2			; pointer to waveform data
      71.  00:6341  (00:C009)           replay_insbase:		#2			; pointer to instrument data
      72.  00:6341  (00:C00B)           replay_orderpointer:	#2			; pointer to the order track list pointers
      73.  00:6341                      
      74.  00:6341  (00:C00D)           replay_speed 		#1			; speed to replay (get from song)
      75.  00:6341  (00:C00E)           replay_speed_subtimer 	#1			; counter for finer speed
      76.  00:6341  (00:C00F)           replay_speed_timer 	#1 			; counter for speed
      77.  00:6341  (00:C010)           replay_mode 		#1			; Replayer status
      78.  00:6341                      ; mode 0  = no sound output
      79.  00:6341                      ; mode 1  = replay song 
      80.  00:6341  (00:C011)           replay_fade			#1			; Fade active (value = fade speed)
      81.  00:6341  (00:C012)           replay_fade_timer		#1			; Timer for fade
      82.  00:6341  (00:C013)           replay_fade_vol		#1			; fade volume to lower the channel volume.
      83.  00:6341                      
      84.  00:6341  (00:C014)           replay_previous_note	#1			; previous note played
      85.  00:6341  (00:C015)           replay_mainvol		#2			; the volume correction.
      86.  00:6341                      
      87.  00:6341  (00:C017)           replay_vib_table		#2			; pointer to the vibrato table
      88.  00:6341  (00:C019)           replay_Tonetable		#2			; ToneTable (affected by transpose);
      89.  00:6341                      
      90.  00:6341  (00:C01B)           replay_morph_active	#1			; flag to indicate morphing is active
      91.  00:6341                      ;replay_morph_update	#1			; flag to indicate a new waveform is ready
      92.  00:6341  (00:C01C)           replay_morph_timer	#1			; step timer between morphs
      93.  00:6341  (00:C01D)           replay_morph_speed	#1 
      94.  00:6341  (00:C01E)           replay_morph_counter	#1			; counter till end morph
      95.  00:6341  (00:C01F)           replay_morph_buffer	#64			; interleaved buffer with morphed waveform and morph delta values
      96.  00:6341  (00:C05F)           replay_morph_waveform	#1 			; waveform we are morphing to.
      97.  00:6341                      
      98.  00:6341  (00:C060)           equalization_freq:			#1	; vdp type for correct playback on 60hz 0=50Hx, >0=60Hz
      99.  00:6341  (00:C061)           equalization_cnt:			#1	; counter for correct playback on 60hz
     100.  00:6341  (00:C062)           equalization_flag:			#1	; flag indicating if only instruments need to be processed.
     101.  00:6341                      
     102.  00:6341                      
     103.  00:6341                      
     104.  00:6341  (00:C063)           TRACK_Chan1			#TRACK_REC_SIZE
     105.  00:6341  (00:C089)           TRACK_Chan2			#TRACK_REC_SIZE
     106.  00:6341  (00:C0AF)           TRACK_Chan3			#TRACK_REC_SIZE
     107.  00:6341  (00:C0D5)           TRACK_Chan4			#TRACK_REC_SIZE
     108.  00:6341  (00:C0FB)           TRACK_Chan5			#TRACK_REC_SIZE
     109.  00:6341  (00:C121)           TRACK_Chan6			#TRACK_REC_SIZE
     110.  00:6341  (00:C147)           TRACK_Chan7			#TRACK_REC_SIZE
     111.  00:6341  (00:C16D)           TRACK_Chan8			#TRACK_REC_SIZE
     112.  00:6341                      
     113.  00:6341  (00:C193)           TRACK_pointer1		#2
     114.  00:6341  (00:C195)           TRACK_pointer2		#2
     115.  00:6341  (00:C197)           TRACK_pointer3		#2
     116.  00:6341  (00:C199)           TRACK_pointer4		#2
     117.  00:6341  (00:C19B)           TRACK_pointer5		#2
     118.  00:6341  (00:C19D)           TRACK_pointer6		#2
     119.  00:6341  (00:C19F)           TRACK_pointer7		#2
     120.  00:6341  (00:C1A1)           TRACK_pointer8		#2
     121.  00:6341                      
     122.  00:6341                      
     123.  00:6341                      ;--- AY SPECIFIC
     124.  00:6341  (00:C1A3)           AY_registers		#0 
     125.  00:6341  (00:C1A3)           AY_regToneA 		#2	; Tone A freq low (8bit)
     126.  00:6341                      					; Tone A freq high (4bit)
     127.  00:6341  (00:C1A5)           AY_regToneB 		#2	; Tone B freq low
     128.  00:6341                      					; Tone B freq high
     129.  00:6341  (00:C1A7)           AY_regToneC 		#2	; Tone C freq low
     130.  00:6341                      					; Tone C freq high
     131.  00:6341  (00:C1A9)           AY_regNOISE 		#1	; Noise freq (5bit)
     132.  00:6341  (00:C1AA)           AY_regMIXER 		#1	;0x38	;x3f	; Mixer control (1 = off, 0 = on)
     133.  00:6341  (00:C1AB)           AY_regVOLA 			#1	; Chan A volume
     134.  00:6341  (00:C1AC)           AY_regVOLB 			#1	; Chan B volume
     135.  00:6341  (00:C1AD)           AY_regVOLC  		#1	; Chan C volume
     136.  00:6341  (00:C1AE)           AY_regEnvL 			#1	; Volume Env Freq low (8bit)	
     137.  00:6341  (00:C1AF)           AY_regEnvH 			#1	; Volume Env Freq high (4bit)
     138.  00:6341  (00:C1B0)           AY_regEnvShape 		#1	; Volume Env Shape (4bit)
     139.  00:6341                      
     140.  00:6341                      ;--- SCC SPECIFIC
     141.  00:6341                      
     142.  00:6341  (00:C1B1)           _0x9800:	#32			; Waveform data
     143.  00:6341  (00:C1D1)           _0x9820:	#32
     144.  00:6341  (00:C1F1)           _0x9840:	#32
     145.  00:6341  (00:C211)           _0x9860:	#32
     146.  00:6341  (00:C231)           SCC_registers 		#0
     147.  00:6341  (00:C231)           SCC_regToneA 		#2	; Tone A freq low (8bit)
     148.  00:6341                      					; Tone A freq high (4bit)
     149.  00:6341  (00:C233)           SCC_regToneB 		#2	; Tone B freq low
     150.  00:6341                      					; Tone B freq high
     151.  00:6341  (00:C235)           SCC_regToneC 		#2	; Tone C freq low
     152.  00:6341                      					; Tone C freq high
     153.  00:6341  (00:C237)           SCC_regToneD 		#2	; Tone D freq low
     154.  00:6341                      					; Tone D freq high
     155.  00:6341  (00:C239)           SCC_regToneE 		#2	; Tone E freq low
     156.  00:6341                      					; Tone E freq high
     157.  00:6341  (00:C23B)           SCC_regVOLA 		#1	; Chan A volume
     158.  00:6341  (00:C23C)           SCC_regVOLB 		#1	; Chan B volume
     159.  00:6341  (00:C23D)           SCC_regVOLC  		#1	; Chan C volume
     160.  00:6341  (00:C23E)           SCC_regVOLD 		#1	; Chan D volume
     161.  00:6341  (00:C23F)           SCC_regVOLE  		#1	; Chan E volume
     162.  00:6341  (00:C240)           SCC_regMIXER 		#1	; x3f	; Mixer control (1 = off, 0 = on)
     163.  00:6341                      
     164.  00:6341                      
     165.  00:6341                      ;/// see to remove this.
     166.  00:6341                      ;-- SCC registers
     167.  00:6341  (00:C241)           oldregs:	#(32*4)+(3*5)+1		; a way to int the SCC
     168.  00:6341                      
     169.  00:6341                      
     167   00:6341                      	include	"..\ttsfxplay\ttsfxplay_RAM.asm"
       1.  00:6341                      		; --- TT sfx player v0.1 ---
       2.  00:6341                      
       3.  00:6341                      		; --- THIS FILE MUST BE COMPILED IN RAM ---
       4.  00:6341                      
       5.  00:6341  (00:C2D1)           sfx_PSG_PRIORITY:		#1			; Current sfx_PSG stream priority
       6.  00:6341  (00:C2D2)           sfx_PSG_POINTER:		#2			; Pointer to the current sfx_PSG stream
       7.  00:6341  (00:C2D4)           sfx_PSG_TONE:	    	#2			; Current tone of the sfx_PSG stream
       8.  00:6341  (00:C2D6)           sfx_PSG_NOISE:	    	#1			; Current noise of the sfx_PSG stream
       9.  00:6341  (00:C2D7)           sfx_PSG_VOLUME:		#1			; Current volume of the sfx_PSG stream
      10.  00:6341  (00:C2D8)           sfx_PSG_BALANCE:		#2			; Pointer to the volume table
      11.  00:6341                      
      12.  00:6341  (00:C2DA)           sfx_SCC_PRIORITY:		#1			; Current sfx_SCC stream priority
      13.  00:6341  (00:C2DB)           sfx_SCC_POINTER:		#2			; Pointer to the current sfx_SCC stream
      14.  00:6341  (00:C2DD)           sfx_SCC_TONE:	    		#2			; Current tone of the sfx_SCC stream
      15.  00:6341  (00:C2DF)           sfx_SCC_WAVE:	    		#1			; Current waveform of the sfx_SCC stream
      16.  00:6341  (00:C2E0)           sfx_SCC_VOLUME:		#1			; Current volume of the sfx_SCC stream
      17.  00:6341  (00:C2E1)           sfx_SCC_BALANCE:		#2			; Pointer to the volume table
      18.  00:6341                      
      19.  00:6341                      
     168   00:6341  (00:C2E3)           pattern	#1

    LABELS
-------------------------------------------------
00:00004010   initmain
00:00004059   infinite
00:00004073   isr
00:0000407F   replay_init
00:00004097   replay_pause
00:000040AC   _replay_pause_r
00:000040B2 X replay_fade_out
00:000040BD X replay_transpose
00:000040C6   replay_set_SCC_balance
00:000040CD   replay_set_PSG_balance
00:000040D4   _getnewbalancebase
00:000040E2   replay_loadsong
00:000040F4   replay_loadsong.nwu
00:00004101   replay_loadsong.niu
00:000041A7   _replay_check_patternend
00:000041CB   _replay_check_patternend.no_restart
00:000041D9   replay_play
00:000041E4 X NTSC
00:000041F8   PAL
00:0000420F X replay_decodedata
00:0000421E   replay_decodedata.retrig_skip1
00:0000423F   replay_decodedata.decode2
00:0000424E   replay_decodedata.retrig_skip2
00:0000426F   replay_decodedata.decode3
00:0000427E   replay_decodedata.retrig_skip3
00:0000429F   replay_decodedata.decode4
00:000042AE   replay_decodedata.retrig_skip4
00:000042CF   replay_decodedata.decode5
00:000042DE   replay_decodedata.retrig_skip5
00:000042FF   replay_decodedata.decode6
00:0000430E   replay_decodedata.retrig_skip6
00:0000432F   replay_decodedata.decode7
00:0000433E   replay_decodedata.retrig_skip7
00:0000435F   replay_decodedata.decode8
00:0000436E   replay_decodedata.retrig_skip8
00:0000438F   replay_decodedata.decode_end
00:0000438F   replay_decodedata_NO
00:00004491   replay_decodedata_NO.cont_fadeing
00:00004497   replay_decodedata_NO.no_new_step
00:000044AB   replay_decodedata_NO.calc_vol
00:000044B1   replay_decodedata_NO.no_carry
00:000044B6   replay_decode_chan
00:000044C2   _rdn2
00:000044C7   _rdv2
00:000044CC   _rdi2
00:000044D4   _rdn
00:000044DC   _rdi
00:000044E4   _rdv
00:000044EC   _rdc
00:000044F6   _rd_delay
00:000044FD   _replay_decode_note
00:00004509   _replay_decode_rest
00:00004512   _replay_decode_ins
00:00004529   _replay_decode_ins.skip
00:00004546   _replay_decode_ins.skip_ins
00:0000454B   _replay_decode_vol
00:00004560   _replay_decode_delay
00:0000456D   _replay_decode_cmd
00:0000457C   _replay_decode_cmd.skip
00:00004583   DECODE_CMDLIST
00:000045D5   _CHIPcmd0_arpeggio
00:000045E5   _CHIPcmd1_port_up
00:000045F1   _CHIPcmd2_port_down
00:000045FD   _CHIPcmd3_RE_port_tone
00:00004603   _CHIPcmd3_port_tone
00:0000460E   _CHIPcmd3_port_tone_cont
00:00004625   _CHIPcmd3_port_tone_cont.skip
00:0000463D   _CHIPcmd3_port_tone_cont.skip2
00:00004651   _CHIPcmd4_vibrato
00:0000466F   _CHIPcmd5_vibrato_port_tone
00:0000466F   _CHIPcmd6_vibrato_vol
00:0000466F   _CHIPcmd7_vol_slide
00:0000467F   _CHIPcmd8_macro_offset
00:00004682   _CHIPcmd9_env_shape
00:0000468E   _CHIPcmdA_env_mul
00:000046A3   _CHIPcmdB_wave_res
00:000046AB   _CHIPcmdC_wave_duty
00:000046AB   _CHIPcmdD_wave_cut
00:000046AB   _CHIPcmdE_wave_compr
00:000046B5   _CHIPcmdF_wave_set
00:000046BF   _CHIPcmd10_morph_slave
00:000046C5   _CHIPcmd11_morph_start
00:000046DD   _CHIPcmd11_morph_start.loop
00:000046EB   _CHIPcmd12_morph_cont
00:00004702   _CHIPcmd13_short_arp
00:0000470E   _CHIPcmd14_fine_up
00:0000470E   _CHIPcmd15_fine_down
00:0000471A   _CHIPcmd16_vib_ctrl
00:00004725 X _cmd16_pulse
00:0000472E   _cmd16_tri
00:00004737   _cmd16_sine
00:00004740   _CHIPcmd17_track_detune
00:00004755   _CHIPcmd17_track_detune.pos
00:0000475F   _CHIPcmd18_transpose
00:00004773   _CHIPcmd18_transpose.skip1
00:00004779   _CHIPcmd18_transpose.pos
00:0000477F   _CHIPcmd18_transpose.skip2
00:00004785   _CHIPcmdXX_note_cut
00:0000478E   _CHIPcmd19_note_delay
00:000047AC   _CHIPcmd1A_trigger
00:000047B2   _CHIPcmd1B_speed
00:000047C5   _CHIPcmd1C_notelink
00:000047CB X _CHIPcmd1C_call
00:000047CB   _CHIPcmd1D_ret
00:000047CF   _CHIPcmd0_RE_arpeggio
00:000047D3   _CHIPcmd1_RE_port_up
00:000047D3   _CHIPcmd2_RE_port_down
00:000047D3   _CHIPcmd4_RE_vibrato
00:000047DB   _CHIPcmd5_RE_vibrato_port_tone
00:000047DB   _CHIPcmd6_RE_vibrato_vol
00:000047DB   _CHIPcmd7_RE_vol_slide
00:000047E7   _CHIPcmd8_RE_macro_offset
00:000047F3   _CHIPcmd9_RE_env_shape
00:000047FB   replay_process_chan_AY
00:00004819   replay_process_chan_AY.skip
00:0000481E   _pcAY_noCommand
00:0000481E   _pcAY_commandEND
00:00004823 X _pcAY_triggerNote
00:00004847   _pcAY_noNoteTrigger
00:0000486B   _vol_change
00:00004872 X _vol_rel
00:00004884   _vol_rel.skip
00:00004885   _vol_base
00:00004895   _noEnv
00:000048A0 X _noEnv.add_Vadd
00:000048AA   _noEnv.sub_Vadd
00:000048B6   _noEnv.skip2
00:000048B6   _Vadd
00:000048C0   _Vadd.skip
00:000048CA   _Vadd.skip2
00:000048CF   _noVolume
00:000048F0   _noVolume.skip
00:000048F6   _noNoise
00:00004903   _pcAY_noTone
00:00004919   _pcAY_noTone.skip
00:00004920   _pcAY_noToneAdd
00:00004929   _pcAY_noToneAdd.noend
00:00004939   _pcAY_noToneAdd.skip
00:0000494F   _pcAY_noNoteActive
00:00004954   _pcAY_cmdlist
00:0000498A   _pcAY_cmd0_arpeggio
00:000049A6   _pcAY_cmd0_arpeggio.step2
00:000049BA   _pcAY_cmd0_arpeggio.step3
00:000049C1   _pcAY_cmd1_port_up
00:000049D5   _pcAY_cmd2_port_down
00:000049E9   _pcAY_cmd3_port_tone
00:000049F7 X _pcAY_cmd3_add
00:00004A0A   _pcAY_cmd3_sub
00:00004A1D   _pcAY_cmd3_stop
00:00004A2A   _pcAY_cmd4_vibrato
00:00004A45   _pcAY_cmd4_vibrato.skip
00:00004A49   _pcAY_cmd4_vibrato.loop
00:00004A5C   _pcAY_cmd4pos
00:00004A62   _pcAY_cmd4pos.skip
00:00004A66   _pcAY_cmd4pos.loop
00:00004A6A   _pcAY_cmd4_zero
00:00004A74   _pcAY_cmd5_vibrato_port_tone
00:00004A7A   _pcAY_cmd6_vibrato_vol
00:00004A80   _pcAY_cmd7_vol_slide
00:00004A86   _pcAY_cmdasub
00:00004A9B X _pcAY_cmda_dec
00:00004AA4   _pcAY_cmda_inc
00:00004AAD   _pcAY_cmd8_macro_offset
00:00004AB8   _pcAY_cmdc_wave_duty
00:00004ACA   _pcAY_cmdc_wave_duty.skip
00:00004AD3   _wspw_loop_h
00:00004ADE   _wspw_loop_l
00:00004AE5   _pcAY_cmdd_wave_cut
00:00004AF9   _pcAY_cmdd_wave_cut.skip
00:00004B1F   _wsc_l
00:00004B26   _pcAY_cmde_wave_compr
00:00004B3A   _pcAY_cmde_wave_compr.skip
00:00004B5A   _wcomp_loop
00:00004B6C   _wcomp_loop.skip
00:00004B6E   _wcomp_loop.loop
00:00004B77   _pcAY_cmd13_short_arp
00:00004B88   _pcAY_cmd14_fine_up
00:00004BA2   _pcAY_cmd15_fine_down
00:00004BBC   _pcAY_cmdXX_note_cut
00:00004BC9   _pcAY_cmd19_note_delay
00:00004BDC   replay_route
00:00004BE3   _comp_loop
00:00004BFC   _ptAY_loop
00:00004C14   _ptAY_noEnv
00:00004C19 X _ptAY_noEnv.nosfx
00:00004C2C   _ptAY_noEnv.skip
00:00004C3F   _ptAY_noEnv.skip2
00:00004C52   _ptAY_noEnv.skip3
00:00004C65   _ptAY_noEnv.skip4
00:00004C65   scc_reg_update
00:00004C75   loop
00:00004C7C   loop.skip
00:00004C84   _write_SCC_wave
00:00004C8E X _write_SCC_wave.normalwave
00:00004C9E   _write_SCC_wave.ramwave
00:00004CAC   _write_SCC_wave.skip
00:00004CB2   _write_SCC_special
00:00004CB7   _wss_l
00:00004CBF   replay_process_morph
00:00004CCC   replay_process_morph.loop
00:00004CD3   replay_process_morph.skip
00:00004CF2   replay_process_morph.skip2
00:00004CF8   replay_process_morph.skip3
00:00004CFA   _rpm_loop
00:00004D07 X _rpm_larger
00:00004D15   _rpm_smaller
00:00004D25   _rpm_next_step
00:00004D3A   _rpm_next_step.skip
00:00004D40   _rpm_ns_loop
00:00004D46 X _rmp_ns_sub
00:00004D4D   _rmp_ns_sub.skip
00:00004D58   _rmp_ns_add
00:00004D5D   _rmp_ns_add.skip
00:00004DE6   _VOLUME_TABLE
00:00000D40   C_PER
00:00000C80   C1_PER
00:00000BC0   D_PER
00:00000B20   D1_PER
00:00000A80   E_PER
00:000009E0   F_PER
00:00000940   F1_PER
00:000008C0   G_PER
00:00000840   G1_PER
00:000007E0   A_PER
00:00000760   A1_PER
00:00000700   B_PER
00:00004EE6   TRACK_ToneTable
00:00004FA6   TRACK_Vibrato_sine
00:00004FC6   TRACK_Vibrato_triangle
00:00004FE6   TRACK_Vibrato_pulse
00:00005006   ttsfx_init
00:00005016   ttsfx_scc_balance
00:0000501D   ttsfx_psg_balance
00:00005024   _getsfxbalancebase
00:00005032   ttsfx_start
00:00005041   _ts_loop
00:00005049 X _ttsfx_scc_start
00:0000505F   _ttsfx_psg_start
00:00005075   ttsfx_nostart
00:0000507A   ttsfx_play
00:00005081 X _ttsfx_scc_play
00:000050A3   _sccCHECK_W
00:000050AD   _sccSETPOINTER
00:000050DE   _ttsfx_psg_play
00:000050F6   _ayCHECK_NN
00:00005100   _aySETPOINTER
00:0000512C   _aySETMASKS
00:00005144   _ttsfx_scc_end
00:0000514F   _ttsfx_psg_end
00:00005155 X _write_SFX_wave
00:00005169   demo_song
00:0000516E   demo_song.restart
00:000051D2   demo_song.waveform_start
00:00005372   demo_song.instrument_start
00:000053B0   demo_song.ins_1
00:000053B3   demo_song.rst_i1
00:000053B8   demo_song.ins_2
00:000053F0   demo_song.rst_i2
00:000053F5   demo_song.ins_3
00:000053FC   demo_song.rst_i3
00:00005401   demo_song.ins_4
00:0000540B   demo_song.rst_i4
00:00005410   demo_song.ins_5
00:00005410   demo_song.ins_6
00:00005419   demo_song.rst_i6
00:00005422   demo_song.ins_7
00:00005433   demo_song.rst_i7
00:0000543F   demo_song.ins_8
00:00005450   demo_song.rst_i8
00:00005454   demo_song.ins_9
00:0000547D   demo_song.rst_i9
00:000054A3   demo_song.ins_10
00:000054CA   demo_song.rst_i10
00:000054CE   demo_song.ins_11
00:000054F5   demo_song.rst_i11
00:000054F9   demo_song.ins_12
00:0000550A   demo_song.rst_i12
00:0000550E   demo_song.ins_13
00:00005527   demo_song.rst_i13
00:0000552B   demo_song.ins_14
00:0000553C   demo_song.rst_i14
00:00005540   demo_song.ins_15
00:00005567   demo_song.rst_i15
00:0000556B   demo_song.ins_16
00:0000557C   demo_song.rst_i16
00:00005580   demo_song.ins_17
00:00005580   demo_song.ins_18
00:00005593   demo_song.rst_i18
00:00005597   demo_song.ins_19
00:00005597   demo_song.ins_20
00:000055A8   demo_song.rst_i20
00:000055AC   demo_song.ins_21
00:000055B5   demo_song.rst_i21
00:000055BE   demo_song.ins_22
00:000055BE   demo_song.ins_23
00:000055BE   demo_song.ins_24
00:000055EB   demo_song.rst_i24
00:00005615   demo_song.ins_25
00:00005615   demo_song.ins_26
00:0000563C   demo_song.rst_i26
00:00005640   demo_song.ins_27
00:00005651   demo_song.rst_i27
00:00005655   demo_song.ins_28
00:00005655   demo_song.ins_29
00:00005655   demo_song.ins_30
00:00005655   demo_song.ins_31
00:00005662   demo_song.rst_i31
00:00005666   demo_song.track_0
00:000056C6   demo_song.track_1
00:000056FF   demo_song.track_2
00:0000572D   demo_song.track_3
00:0000575F   demo_song.track_4
00:0000579B   demo_song.track_5
00:000057DD   demo_song.track_6
00:00005837   demo_song.track_7
00:00005868   demo_song.track_8
00:000058C9   demo_song.track_9
00:000058FD   demo_song.track_10
00:00005926   demo_song.track_11
00:00005952   demo_song.track_12
00:00005989   demo_song.track_13
00:000059BC   demo_song.track_14
00:00005A1E   demo_song.track_15
00:00005A56   demo_song.track_16
00:00005AC2   demo_song.track_17
00:00005AFE   demo_song.track_18
00:00005B40   demo_song.track_19
00:00005B7C   demo_song.track_20
00:00005BC2   demo_song.track_21
00:00005BFC   demo_song.track_22
00:00005C57   demo_song.track_23
00:00005C9C   demo_song.track_24
00:00005CD1   demo_song.track_25
00:00005D0C   demo_song.track_26
00:00005D41   demo_song.track_27
00:00005D82   demo_song.track_28
00:00005DC1   demo_song.track_29
00:00005E28   demo_song.track_30
00:00005E60   demo_song.track_31
00:00005E8F   demo_song.track_32
00:00005EC0   demo_song.track_33
00:00005EEF   demo_song.track_34
00:00005F2B   demo_song.track_35
00:00005F6A   demo_song.track_36
00:00005FBC   demo_song.track_37
00:00005FF0   demo_song.track_38
00:0000604C   demo_song.track_39
00:00006083   demo_song.track_40
00:000060AA   demo_song.track_41
00:000060DE   demo_song.track_42
00:00006112   demo_song.track_43
00:00006156   demo_song.track_44
00:000061A4   demo_song.track_45
00:000061E2 X demo_song.track_46
00:000061E3   ttsfx_waveforms
00:00006243   sfxlist
00:00006249   sfx_0
00:0000624D   sfx_1
00:00006251   sfx_2
00:00006255   sfxtrack_0
00:000062BC   sfxtrack_8
00:000062D4   sfxtrack_19
00:FFFFFFEF   TRACK_Instrument
00:FFFFFFF0   TRACK_Command
00:FFFFFFF1   TRACK_MacroPointer
00:FFFFFFF3   TRACK_MacroStart
00:FFFFFFF5 X TRACK_MacroRestart
00:FFFFFFF6   TRACK_Note
00:FFFFFFF7   TRACK_Volume
00:FFFFFFF8   TRACK_Waveform
00:FFFFFFF9   TRACK_Flags
00:FFFFFFFA X TRACK_empty
00:FFFFFFFB   TRACK_ToneAdd
00:FFFFFFFD   TRACK_VolumeAdd
00:FFFFFFFE   TRACK_Noise
00:FFFFFFFF   TRACK_cmd_VolumeAdd
00:00000000   TRACK_cmd_ToneSlideAdd
00:00000002   TRACK_cmd_ToneAdd
00:00000004   TRACK_cmd_detune
00:00000005   TRACK_cmd_0
00:00000006   TRACK_cmd_1
00:00000007   TRACK_cmd_2
00:00000008   TRACK_cmd_3
00:00000009   TRACK_cmd_4_depth
00:0000000A   TRACK_cmd_4_step
00:0000000B   TRACK_cmd_NoteAdd
00:0000000C   TRACK_cmd_A
00:0000000D   TRACK_cmd_B
00:0000000E   TRACK_cmd_E
00:0000000F   TRACK_Timer
00:00000010   TRACK_Step
00:00000011   TRACK_Delay
00:00000012   TRACK_Retrig
00:00000013   TRACK_prevDelay
00:00000014 X TRACK_cmd_A_add
00:00000026   TRACK_REC_SIZE
00:00000000   B_TRGNOT
00:00000001   B_ACTNOT
00:00000002   B_TRGENV
00:00000003   B_TRGCMD
00:00000004   B_ACTMOR
00:00000005 X B_TRGINS
00:00000006   B_TRGWAV
00:00000007   B_PSGSCC
00:0000C000   _SP_Storage
00:0000C002   replay_trigger
00:0000C003   replay_mainPSGvol
00:0000C005   replay_mainSCCvol
00:0000C007   replay_wavebase
00:0000C009   replay_insbase
00:0000C00B   replay_orderpointer
00:0000C00D   replay_speed
00:0000C00E   replay_speed_subtimer
00:0000C00F   replay_speed_timer
00:0000C010   replay_mode
00:0000C011   replay_fade
00:0000C012   replay_fade_timer
00:0000C013   replay_fade_vol
00:0000C014   replay_previous_note
00:0000C015   replay_mainvol
00:0000C017   replay_vib_table
00:0000C019   replay_Tonetable
00:0000C01B   replay_morph_active
00:0000C01C   replay_morph_timer
00:0000C01D   replay_morph_speed
00:0000C01E   replay_morph_counter
00:0000C01F   replay_morph_buffer
00:0000C05F   replay_morph_waveform
00:0000C060   equalization_freq
00:0000C061   equalization_cnt
00:0000C062   equalization_flag
00:0000C063   TRACK_Chan1
00:0000C089   TRACK_Chan2
00:0000C0AF   TRACK_Chan3
00:0000C0D5   TRACK_Chan4
00:0000C0FB   TRACK_Chan5
00:0000C121   TRACK_Chan6
00:0000C147   TRACK_Chan7
00:0000C16D   TRACK_Chan8
00:0000C193   TRACK_pointer1
00:0000C195   TRACK_pointer2
00:0000C197   TRACK_pointer3
00:0000C199   TRACK_pointer4
00:0000C19B   TRACK_pointer5
00:0000C19D   TRACK_pointer6
00:0000C19F   TRACK_pointer7
00:0000C1A1   TRACK_pointer8
00:0000C1A3   AY_registers
00:0000C1A3   AY_regToneA
00:0000C1A5   AY_regToneB
00:0000C1A7   AY_regToneC
00:0000C1A9   AY_regNOISE
00:0000C1AA   AY_regMIXER
00:0000C1AB   AY_regVOLA
00:0000C1AC   AY_regVOLB
00:0000C1AD   AY_regVOLC
00:0000C1AE   AY_regEnvL
00:0000C1AF   AY_regEnvH
00:0000C1B0   AY_regEnvShape
00:0000C1B1   _0x9800
00:0000C1D1 X _0x9820
00:0000C1F1 X _0x9840
00:0000C211 X _0x9860
00:0000C231   SCC_registers
00:0000C231   SCC_regToneA
00:0000C233   SCC_regToneB
00:0000C235   SCC_regToneC
00:0000C237   SCC_regToneD
00:0000C239   SCC_regToneE
00:0000C23B   SCC_regVOLA
00:0000C23C   SCC_regVOLB
00:0000C23D   SCC_regVOLC
00:0000C23E   SCC_regVOLD
00:0000C23F   SCC_regVOLE
00:0000C240   SCC_regMIXER
00:0000C241   oldregs
00:0000C2D1   sfx_PSG_PRIORITY
00:0000C2D2   sfx_PSG_POINTER
00:0000C2D4   sfx_PSG_TONE
00:0000C2D6   sfx_PSG_NOISE
00:0000C2D7   sfx_PSG_VOLUME
00:0000C2D8   sfx_PSG_BALANCE
00:0000C2DA   sfx_SCC_PRIORITY
00:0000C2DB   sfx_SCC_POINTER
00:0000C2DD   sfx_SCC_TONE
00:0000C2DF   sfx_SCC_WAVE
00:0000C2E0   sfx_SCC_VOLUME
00:0000C2E1   sfx_SCC_BALANCE
00:0000C2E3   pattern


 Output: main{SCC}.rom
-------------------------------------------------

 Page: 00
  Org: 00004000  Size: 00008000  Used: 00002341

   Address   Length Align   Label
   00004000    9025         initmain
   00006341   23743       <empty>
