Sjasm Z80 Assembler v0.42b8 - www.xl2s.tk             [2020.04.02 - 20:12:42]

main.asm
Errors: 0

       1   00:0000                      	defpage	0,0x4000, 0x8000		; page 0 contains main code + far call routines
       2   00:0000                      
       3   00:0000                      ; -----------------------------
       4   00:0000                      ; TT-replayer example
       5   00:0000                      ; 
       6   00:0000                      ; This example plays compiled PSG+SCC songs
       7   00:0000                      ; ------------------------------
       8   00:0000                      
       9   00:0000                      ;	include	".\code\variables.asm"
      10   00:0000                      
      11   00:0000  (00)                	page 0
      12   00:4000                      	code page 0
      13   00:4000                      	
      14   00:4000                      	org	04000h
      15   00:4000  41 42               	db	041h,042h
      16   00:4002  10 40               	dw	initmain
      17   00:4004                      	dz 	'TTDEMO'
      17   00:4004  54 54 44 45 4D 4F 00 
      18   00:400B  00 (5)              	ds	5
      19   00:4010                      		
      20   00:4010                      initmain:
      21   00:4010                      
      22   00:4010  FB                  	ei
      23   00:4011  76                  	halt
      24   00:4012  F3                  	di
      25   00:4013                      		
      26   00:4013                      ;; set pages and subslot
      27   00:4013                      ;;
      28   00:4013  CD 38 01            	call    0x138
      29   00:4016  0F                  	rrca
      30   00:4017  0F                  	rrca
      31   00:4018  E6 03               	and     0x03
      32   00:401A  4F                  	ld      c,a
      33   00:401B  06 00               	ld      b,0
      34   00:401D  21 C1 FC            	ld      hl,0xfcc1
      35   00:4020  09                  	add     hl,bc
      36   00:4021  B6                  	or      (hl)
      37   00:4022  47                  	ld      b,a
      38   00:4023  23                  	inc     hl
      39   00:4024  23                  	inc     hl
      40   00:4025  23                  	inc     hl
      41   00:4026  23                  	inc     hl
      42   00:4027  7E                  	ld      a,(hl)
      43   00:4028  E6 0C               	and     0x0c
      44   00:402A  B0                  	or      b
      45   00:402B                          
      46   00:402B  26 80               	ld      h,0x80
      47   00:402D  CD 24 00            	call    0x24        
      48   00:4030                      	
      49   00:4030                      	;clear RAM (first kb only)
      50   00:4030  01 00 04            	ld	bc,1024
      51   00:4033  21 00 C0            	ld	hl,0xc000
      52   00:4036  11 01 C0            	ld	de,0xc001
      53   00:4039                      
      54   00:4039  36 00               	ld	(hl),0
      55   00:403B  ED B0               	ldir	
      56   00:403D                      
      57   00:403D                      	;--- place replayer on hook
      58   00:403D  3E C3               	ld	a,0xc3
      59   00:403F  21 6D 40            	ld	hl,isr
      60   00:4042  32 9A FD            	ld	(0xFD9A),a
      61   00:4045  22 9B FD            	ld	(0xFD9B),hl	
      62   00:4048                      	
      63   00:4048                      	;--- initialise replayer
      64   00:4048  CD 76 40            	call	replay_init
      65   00:404B                      ;	call	ttsfx_init
      66   00:404B                      	
      67   00:404B                      	;--- initialise demo song
      68   00:404B  21 E6 4E            	ld	hl,demo_song
      69   00:404E  CD DC 40            	call	replay_loadsong
      70   00:4051                      	
      71   00:4051                      	;--- initialise sfx pointers
      72   00:4051                      	
      73   00:4051                      	
      74   00:4051                      	
      75   00:4051  FB                  	ei
      76   00:4052                      	
      77   00:4052  AF                  	xor	a
      78   00:4053  32 E5 C2            	ld	(pattern),a
      79   00:4056                      
      80   00:4056                      ;	call	replay_pause
      81   00:4056                      ;	ld	bc,$0001
      82   00:4056                      ;	call	ttsfx_start
      83   00:4056                      	
      84   00:4056                      infinite:
      85   00:4056  76                  	halt
      86   00:4057                      	;--- display debug info
      87   00:4057                      	
      88   00:4057                      	
      89   00:4057                      	
      90   00:4057                      	
      91   00:4057                      	
      92   00:4057                      	;---- Test for space
      93   00:4057  AF                  	xor	a
      94   00:4058  CD D8 00            	call	$00D8
      95   00:405B  A7                  	and	a
      96   00:405C  CA 56 40            	jp	z,infinite
      97   00:405F                      
      98   00:405F                      ;	call	replay_pause
      99   00:405F  01 01 00            	ld	bc,$0001
     100   00:4062                      ;	call	ttsfx_start
     101   00:4062                      ;	ld	a,0
     102   00:4062                      ;	call	replay_set_SCC_balance
     103   00:4062                      ;	ld	de,-2
     104   00:4062                      ;	call	replay_transpose	
     105   00:4062                      ;	ld	a,32
     106   00:4062                      ;	call	replay_fade_out
     107   00:4062                      ;	call	replay_pause
     108   00:4062                      	; wait_key_release
     109   00:4062                      99:	
     110   00:4062  AF                  	xor	a
     111   00:4063  CD D8 00            	call	$00D8
     112   00:4066  A7                  	and	a
     113   00:4067  C2 62 40            	jp	nz,99b
     114   00:406A                      	
     115   00:406A  C3 56 40            	jp	infinite
     116   00:406D                      
     117   00:406D                      	
     118   00:406D                      	
     119   00:406D                      isr:
     120   00:406D  DB 99               	in	a,(0x99)
     121   00:406F  CD 75 4B            	call	replay_route		; first outout data
     122   00:4072  CD F4 41            	call	replay_play			; calculate next output
     123   00:4075                      ;	call	ttsfx_play
     124   00:4075  C9                  	ret
     125   00:4076                      	
     126   00:4076                      	
     127   00:4076                      	
     128   00:4076                      	include	"..\code\ttreplay.asm"
       1.  00:4076                      ;=================================
       2.  00:4076                      ; TriloTracker FM-Play v0.3.1
       3.  00:4076                      ;
       4.  00:4076                      ; 
       5.  00:4076                      ; 
       6.  00:4076                      ;================================
       7.  00:4076                      	
       8.  00:4076                      ;===============================
       9.  00:4076                      ; todo:
      10.  00:4076                      ; - FM find + enable
      11.  00:4076                      ; - Everything
      12.  00:4076                      	
      13.  00:4076                      	
      14.  00:4076                      ;define EXTERNAL_SCC 
      15.  00:4076                      ;define INTERNAL_SCC	
      16.  00:4076                      	
      17.  00:4076                      
      18.  00:4076                      	
      19.  00:4076                      	
      20.  00:4076                      	
      21.  00:4076                      ;===========================================================
      22.  00:4076                      ; ---	replay_init
      23.  00:4076                      ; Initialize replayer data
      24.  00:4076                      ; Only call this on start-up
      25.  00:4076                      ; Input: none
      26.  00:4076                      ;===========================================================
      27.  00:4076                      replay_init:
      28.  00:4076  3E 08               	ld	a,8
      29.  00:4078  CD C0 40            	call	replay_set_SCC_balance
      30.  00:407B  3E 08               	ld	a,8
      31.  00:407D  CD C7 40            	call	replay_set_PSG_balance
      32.  00:4080                      
      33.  00:4080  AF                  	xor	a
      34.  00:4081  32 12 C0            	ld	(replay_mode),a	
      35.  00:4084  32 64 C0            	ld	(equalization_cnt),a
      36.  00:4087  32 65 C0            	ld	(equalization_flag),a	
      37.  00:408A  32 63 C0            	ld	(equalization_freq),a
      38.  00:408D  32 13 C0            	ld	(replay_chan_setup),a	
      39.  00:4090                      	
      40.  00:4090  C9                  	ret
      41.  00:4091                      
      42.  00:4091                      ;===========================================================
      43.  00:4091                      ; ---	replay_pause
      44.  00:4091                      ; Stop/Restart music playback
      45.  00:4091                      ; 
      46.  00:4091                      ; Input: none
      47.  00:4091                      ;===========================================================
      48.  00:4091                      replay_pause:
      49.  00:4091  3A 12 C0            	ld	a,(replay_mode)
      50.  00:4094  A7                  	and	a
      51.  00:4095  CA A6 40            	jp	z,_replay_pause_r
      52.  00:4098                      	;-- stop decding and processing music data
      53.  00:4098  AF                  	xor	a
      54.  00:4099  32 12 C0            	ld	(replay_mode),a
      55.  00:409C                      	;-- set mixers to silence.
      56.  00:409C  3E 3F               	ld 	a,0x3F
      57.  00:409E  32 AD C1            	ld	(AY_regMIXER),a 
      58.  00:40A1  AF                  	xor	a
      59.  00:40A2  32 54 C2            	ld	(FM_regMIXER),a
      60.  00:40A5  C9                  	ret
      61.  00:40A6                      _replay_pause_r:	
      62.  00:40A6                      	;-- enable music decoding and processing
      63.  00:40A6  3E 01               	ld	a,1
      64.  00:40A8  32 12 C0            	ld	(replay_mode),a
      65.  00:40AB  C9                  	ret
      66.  00:40AC                      
      67.  00:40AC                      	
      68.  00:40AC                      ;===========================================================
      69.  00:40AC                      ; ---	replay_fade_out
      70.  00:40AC                      ; Fade out the music. 
      71.  00:40AC                      ; Once the sound is silence the replayer is paused.
      72.  00:40AC                      ;
      73.  00:40AC                      ; in: [A] fade speed (1 - 255)
      74.  00:40AC                      ;===========================================================	
      75.  00:40AC                      replay_fade_out:
      76.  00:40AC  32 14 C0            	ld	(replay_fade),a
      77.  00:40AF  32 15 C0            	ld	(replay_fade_timer),a
      78.  00:40B2  AF                  	xor	a
      79.  00:40B3  32 16 C0            	ld	(replay_fade_vol),a
      80.  00:40B6  C9                  	ret
      81.  00:40B7                      
      82.  00:40B7                      
      83.  00:40B7                      ;===========================================================
      84.  00:40B7                      ; ---	replay_transpose
      85.  00:40B7                      ; Transposes the whole song. 
      86.  00:40B7                      ; TT effect command 'E8y - Global transpose' will undo 
      87.  00:40B7                      ; this effect.
      88.  00:40B7                      ;
      89.  00:40B7                      ; in: [DE] number of halve tones (pos or neg) to transpose. 
      90.  00:40B7                      ;===========================================================
      91.  00:40B7                      replay_transpose:
      92.  00:40B7  21 C6 4D            	ld	hl,TRACK_ToneTable;(replay_Tonetable)
      93.  00:40BA  19                  	add	hl,de	
      94.  00:40BB  19                  	add	hl,de
      95.  00:40BC  22 1C C0            	ld	(replay_Tonetable),hl	
      96.  00:40BF  C9                  	ret
      97.  00:40C0                      	
      98.  00:40C0                      ;===========================================================
      99.  00:40C0                      ; ---	replay_set_SCC_balance
     100.  00:40C0                      ; Set the main volume for the SCC chip. This enables for
     101.  00:40C0                      ; setting the balance between SCC en PSG as some MSX models 
     102.  00:40C0                      ; default balance differs. 
     103.  00:40C0                      ;
     104.  00:40C0                      ; in: [A] master volume (0-7) 0=halve volume, 7=full volume. 
     105.  00:40C0                      ;===========================================================	
     106.  00:40C0                      replay_set_SCC_balance:
     107.  00:40C0  CD CE 40            	call	_getnewbalancebase
     108.  00:40C3  22 05 C0            	ld	(replay_mainSCCvol),hl	
     109.  00:40C6  C9                  	ret
     110.  00:40C7                      	
     111.  00:40C7                      ;===========================================================
     112.  00:40C7                      ; ---	replay_set_PSG_balance
     113.  00:40C7                      ; Set the main volume for the PSG chip. This enables for
     114.  00:40C7                      ; setting the balance between SCC en PSG as some MSX models 
     115.  00:40C7                      ; default balance differs. 
     116.  00:40C7                      ;
     117.  00:40C7                      ; in: [A] master volume (0-7) 0=halve volume, 7=full volume. 
     118.  00:40C7                      ;===========================================================	
     119.  00:40C7                      replay_set_PSG_balance:
     120.  00:40C7  CD CE 40            	call	_getnewbalancebase
     121.  00:40CA  22 03 C0            	ld	(replay_mainPSGvol),hl	
     122.  00:40CD  C9                  	ret
     123.  00:40CE                      	
     124.  00:40CE                      _getnewbalancebase:
     125.  00:40CE  07                  	rlca
     126.  00:40CF  07                  	rlca
     127.  00:40D0  07                  	rlca
     128.  00:40D1  07                  	rlca
     129.  00:40D2  21 46 4C            	ld	hl,_VOLUME_TABLE-128
     130.  00:40D5  E6 F0               	and	$f0
     131.  00:40D7  85                  	add	a,l
     132.  00:40D8  6F                  	ld	l,a
     133.  00:40D9  D0                  	ret 	nc
     134.  00:40DA  24                  	inc	h
     135.  00:40DB  C9                  	ret
     136.  00:40DC                      	
     137.  00:40DC                      	
     138.  00:40DC                      	
     139.  00:40DC                      	
     140.  00:40DC                      	
     141.  00:40DC                      	
     142.  00:40DC                      ;===========================================================
     143.  00:40DC                      ; ---	replay_loadsong
     144.  00:40DC                      ; Initialize a song for playback
     145.  00:40DC                      ; 
     146.  00:40DC                      ; Input [HL] points to start song
     147.  00:40DC                      ;===========================================================
     148.  00:40DC                      replay_loadsong:
     149.  00:40DC                      	;--- Get the start speed.
     150.  00:40DC  7E                  	ld	a,(hl)	
     151.  00:40DD  23                  	inc	hl
     152.  00:40DE  32 0F C0            	ld	(replay_speed),a
     153.  00:40E1                      
     154.  00:40E1                      	;--- Set custom voice start
     155.  00:40E1  5E                  	ld	e,(hl)
     156.  00:40E2  23                  	inc	hl
     157.  00:40E3  56                  	ld 	d,(hl)
     158.  00:40E4  23                  	inc	hl
     159.  00:40E5  ED 53 07 C0         	ld	(replay_voicebase),de
     160.  00:40E9                      
     161.  00:40E9                      	;--- Set drum macro start
     162.  00:40E9  5E                  	ld	e,(hl)
     163.  00:40EA  23                  	inc	hl
     164.  00:40EB  56                  	ld 	d,(hl)
     165.  00:40EC  23                  	inc	hl
     166.  00:40ED  ED 53 09 C0         	ld	(replay_drumbase),de	
     167.  00:40F1                      
     168.  00:40F1                      	;--- Set the instrument start
     169.  00:40F1  5E                  	ld	e,(hl)
     170.  00:40F2  23                  	inc	hl
     171.  00:40F3  56                  	ld 	d,(hl)
     172.  00:40F4  23                  	inc	hl
     173.  00:40F5  ED 53 0B C0         	ld	(replay_insbase),de
     174.  00:40F9                      	
     175.  00:40F9                      
     176.  00:40F9                      	;--- Set track pointers to start
     177.  00:40F9  11 96 C1            	ld	de,TRACK_pointer1
     178.  00:40FC  01 10 00            	ld	bc,16
     179.  00:40FF  ED B0               	ldir
     180.  00:4101  22 0D C0            	ld	(replay_orderpointer),hl		; store pointer for next set
     181.  00:4104                      								; of track pointers
     182.  00:4104                      	;--- Initialize replayer variables.
     183.  00:4104  AF                  	xor	a
     184.  00:4105  32 10 C0            	ld	(replay_speed_subtimer),a
     185.  00:4108                      ;	ld	(replay_morph_active),a
     186.  00:4108                      ;	ld	(replay_morph_waveform),a
     187.  00:4108                      	
     188.  00:4108                      	;--- Erase channel data	in RAM
     189.  00:4108  01 2F 01            	ld	bc,TRACK_REC_SIZE*8-1
     190.  00:410B  21 66 C0            	ld	hl,TRACK_Chan1
     191.  00:410E  11 67 C0            	ld	de,TRACK_Chan1+1
     192.  00:4111  77                  	ld	(hl),a
     193.  00:4112  ED B0               	ldir
     194.  00:4114                      	
     195.  00:4114                      	;--- Silence the chips
     196.  00:4114  32 40 C2            	ld	(FM_regVOLA),a
     197.  00:4117  32 41 C2            	ld	(FM_regVOLB),a
     198.  00:411A  32 42 C2            	ld	(FM_regVOLC),a
     199.  00:411D  32 43 C2            	ld	(FM_regVOLD),a
     200.  00:4120  32 44 C2            	ld	(FM_regVOLE),a
     201.  00:4123  32 45 C2            	ld	(FM_regVOLF),a
     202.  00:4126                      	
     203.  00:4126  32 51 C2            	ld	(FM_DRUM_LEN),a
     204.  00:4129  32 46 C2            	ld	(FM_DRUM),a	
     205.  00:412C                      		
     206.  00:412C                      ;	ld	(FM_regMIXER),a
     207.  00:412C  32 AE C1            	ld	(AY_regVOLA),a
     208.  00:412F  32 AF C1            	ld	(AY_regVOLB),a	
     209.  00:4132  32 B0 C1            	ld	(AY_regVOLC),a
     210.  00:4135  32 AC C1            	ld	(AY_regNOISE),a
     211.  00:4138  3E 3F               	ld	a,0x3f
     212.  00:413A  32 AD C1            	ld	(AY_regMIXER),a
     213.  00:413D                      	
     214.  00:413D                      	;--- Set vibrato table
     215.  00:413D  21 86 4E            	ld	hl,TRACK_Vibrato_sine
     216.  00:4140  22 1A C0            	ld	(replay_vib_table),hl
     217.  00:4143                      	
     218.  00:4143                      	;--- Set the tone table base
     219.  00:4143  21 C6 4D            	ld	hl,TRACK_ToneTable
     220.  00:4146  22 1C C0            	ld	(replay_Tonetable),hl
     221.  00:4149                      
     222.  00:4149  3E 01               	ld	a,1
     223.  00:414B  32 11 C0            	ld	(replay_speed_timer),a
     224.  00:414E  32 1F C0            	ld	(replay_morph_timer),a
     225.  00:4151  32 20 C0            	ld	(replay_morph_speed),a
     226.  00:4154  32 88 C0            	ld	(TRACK_Chan1+17+TRACK_Delay),a	
     227.  00:4157  32 AE C0            	ld	(TRACK_Chan2+17+TRACK_Delay),a		
     228.  00:415A  32 D4 C0            	ld	(TRACK_Chan3+17+TRACK_Delay),a	
     229.  00:415D  32 FA C0            	ld	(TRACK_Chan4+17+TRACK_Delay),a	
     230.  00:4160  32 20 C1            	ld	(TRACK_Chan5+17+TRACK_Delay),a		
     231.  00:4163  32 46 C1            	ld	(TRACK_Chan6+17+TRACK_Delay),a		
     232.  00:4166  32 6C C1            	ld	(TRACK_Chan7+17+TRACK_Delay),a		
     233.  00:4169  32 92 C1            	ld	(TRACK_Chan8+17+TRACK_Delay),a	
     234.  00:416C                      	
     235.  00:416C  3E FE               	ld	a,254
     236.  00:416E  32 66 C0            	ld	(TRACK_Chan1+17+TRACK_Instrument),a	
     237.  00:4171  32 8C C0            	ld	(TRACK_Chan2+17+TRACK_Instrument),a		
     238.  00:4174  32 B2 C0            	ld	(TRACK_Chan3+17+TRACK_Instrument),a	
     239.  00:4177  32 D8 C0            	ld	(TRACK_Chan4+17+TRACK_Instrument),a	
     240.  00:417A  32 FE C0            	ld	(TRACK_Chan5+17+TRACK_Instrument),a		
     241.  00:417D  32 24 C1            	ld	(TRACK_Chan6+17+TRACK_Instrument),a		
     242.  00:4180  32 4A C1            	ld	(TRACK_Chan7+17+TRACK_Instrument),a		
     243.  00:4183  32 70 C1            	ld	(TRACK_Chan8+17+TRACK_Instrument),a	
     244.  00:4186                      
     245.  00:4186  3E 01               	ld	a,1
     246.  00:4188  32 BB C0            	ld	(TRACK_Chan3+17+TRACK_Voice),a
     247.  00:418B  32 E1 C0            	ld	(TRACK_Chan4+17+TRACK_Voice),a
     248.  00:418E  32 07 C1            	ld	(TRACK_Chan5+17+TRACK_Voice),a
     249.  00:4191  32 2D C1            	ld	(TRACK_Chan6+17+TRACK_Voice),a	
     250.  00:4194  32 53 C1            	ld	(TRACK_Chan7+17+TRACK_Voice),a	
     251.  00:4197  32 79 C1            	ld	(TRACK_Chan8+17+TRACK_Voice),a
     252.  00:419A  3E 80               	ld	a,128
     253.  00:419C  32 BC C0            	ld	(TRACK_Chan3+17+TRACK_Flags),a
     254.  00:419F  32 E2 C0            	ld	(TRACK_Chan4+17+TRACK_Flags),a
     255.  00:41A2  32 08 C1            	ld	(TRACK_Chan5+17+TRACK_Flags),a
     256.  00:41A5  32 2E C1            	ld	(TRACK_Chan6+17+TRACK_Flags),a	
     257.  00:41A8  32 54 C1            	ld	(TRACK_Chan7+17+TRACK_Flags),a
     258.  00:41AB  32 7A C1            	ld	(TRACK_Chan8+17+TRACK_Flags),a	
     259.  00:41AE                      	
     260.  00:41AE                      	;--- Check if there are 3 psg chans.
     261.  00:41AE  3A 13 C0            	ld	a,(replay_chan_setup)
     262.  00:41B1  A7                  	and	a
     263.  00:41B2  CA B9 41            	jp	z,99f
     264.  00:41B5  AF                  	xor 	a
     265.  00:41B6  32 AB C0            	ld	(TRACK_Chan3+TRACK_Flags),a	
     266.  00:41B9                      99:	
     267.  00:41B9                      	
     268.  00:41B9                      ;	call FM_reg_update
     269.  00:41B9  CD 75 4B            	call	replay_route
     270.  00:41BC                      	
     271.  00:41BC                      	; end	is here
     272.  00:41BC  3E 01               	ld	a,1
     273.  00:41BE  32 12 C0            	ld	(replay_mode),a	
     274.  00:41C1  C9                  	ret
     275.  00:41C2                      
     276.  00:41C2                      
     277.  00:41C2                      
     278.  00:41C2                      _replay_check_patternend:
     279.  00:41C2  3A 88 C0            	ld 	a,(TRACK_Chan1+17+TRACK_Delay)
     280.  00:41C5  3D                  	dec	a
     281.  00:41C6  C2 AA 43            	jp	nz,replay_decodedata_NO
     282.  00:41C9                      	
     283.  00:41C9  2A 96 C1            	ld	hl,(TRACK_pointer1)
     284.  00:41CC  7E                  	ld	a,(hl)
     285.  00:41CD                      	
     286.  00:41CD                      	;--- check for end of pattern
     287.  00:41CD  FE BF               	cp	191	
     288.  00:41CF  C2 AA 43            	jp	nz,replay_decodedata_NO
     289.  00:41D2                      
     290.  00:41D2                      	;--- Set track pointers to start
     291.  00:41D2  2A 0D C0            	ld	hl,(replay_orderpointer)
     292.  00:41D5  AF                  	xor	a
     293.  00:41D6  BE                  	cp	(hl)
     294.  00:41D7  C2 E6 41            	jp	nz,.no_restart
     295.  00:41DA  23                  	inc	hl
     296.  00:41DB  BE                  	cp	(hl)
     297.  00:41DC  2B                  	dec	hl
     298.  00:41DD  C2 E6 41            	jp	nz,.no_restart
     299.  00:41E0                      	;--- next is restart order
     300.  00:41E0  23                  	inc	hl
     301.  00:41E1  23                  	inc	hl
     302.  00:41E2  7E                  	ld	a,(hl)
     303.  00:41E3  23                  	inc	hl
     304.  00:41E4  66                  	ld	h,(hl)
     305.  00:41E5  6F                  	ld	l,a
     306.  00:41E6                      .no_restart:	
     307.  00:41E6  11 96 C1            	ld	de,TRACK_pointer1
     308.  00:41E9  01 10 00            	ld	bc,16
     309.  00:41EC  ED B0               	ldir
     310.  00:41EE  22 0D C0            	ld	(replay_orderpointer),hl		; store pointer for next set
     311.  00:41F1                      								; of strack pointers
     312.  00:41F1  C3 AA 43            	jp	replay_decodedata_NO
     313.  00:41F4                      
     314.  00:41F4                      
     315.  00:41F4                      ;===========================================================
     316.  00:41F4                      ; ---	replay_play
     317.  00:41F4                      ; Decode music data and process instruments and effects. 
     318.  00:41F4                      ; Music chip registers will be prepared for replay_route 
     319.  00:41F4                      ;
     320.  00:41F4                      ; Input none
     321.  00:41F4                      ;===========================================================	
     322.  00:41F4                      replay_play:
     323.  00:41F4  3A 12 C0            	ld	a,(replay_mode)
     324.  00:41F7  A7                  	and	a
     325.  00:41F8  C8                  	ret	z		; replay mode = 0	; halted
     326.  00:41F9                      				
     327.  00:41F9                      				; replay mode = 1	; active
     328.  00:41F9                      	
     329.  00:41F9                      	;---- SPEED EQUALIZATION 
     330.  00:41F9  3A 63 C0            	ld	a,(equalization_freq)		; 0 = 50Hz, otherwise 60Hz
     331.  00:41FC  A7                  	and	a
     332.  00:41FD  28 14                   jr.	z,PAL               		; if PAL process at any interrupt;
     333.  00:41FF                      
     334.  00:41FF                      NTSC:
     335.  00:41FF  21 64 C0                ld	hl,equalization_cnt  		; if NTSC call 5 times out of 6
     336.  00:4202  35                      dec	(hl)
     337.  00:4203  20 0E                   jr.	nz,PAL               		; skip music data processing one tic out of 6
     338.  00:4205                      
     339.  00:4205                      	;--- Reset timer and raise equalization flag
     340.  00:4205  3E 06               	ld	a,6
     341.  00:4207  77                  	ld	(hl),a						
     342.  00:4208  32 65 C0             	ld	(equalization_flag),a		
     343.  00:420B                      
     344.  00:420B  CD AA 43            	call	replay_decodedata_NO	
     345.  00:420E  AF                  	xor	a
     346.  00:420F  32 65 C0            	ld	(equalization_flag),a
     347.  00:4212  C9                  	ret
     348.  00:4213                      PAL:                             ; execute the PSG and ayFX core	
     349.  00:4213                      	;---- END SPEED EQUALIZATION	
     350.  00:4213                      
     351.  00:4213                      		
     352.  00:4213                      	;--- The speed timer
     353.  00:4213  21 11 C0            	ld	hl,replay_speed_timer
     354.  00:4216  35                  	dec	(hl)
     355.  00:4217                      
     356.  00:4217  C2 C2 41            	jp	nz,_replay_check_patternend	
     357.  00:421A                      	
     358.  00:421A                      	;--- Re-init Timer == 0
     359.  00:421A  AF                  	xor	a
     360.  00:421B  ED 4B 0F C0         	ld	bc,(replay_speed)		; [b]	subtimer [c] speed
     361.  00:421F  CB 39               	srl	c				; bit	0 is halve speedstep
     362.  00:4221  8F                  	adc	a,a
     363.  00:4222  A8                  	xor	b				; alternate	speed	to have halve speed.
     364.  00:4223  32 10 C0            	ld	(replay_speed_subtimer),a
     365.  00:4226  81                  	add	c
     366.  00:4227  32 11 C0            	ld	(replay_speed_timer),a
     367.  00:422A                      ;===========================================================
     368.  00:422A                      ; ---	replay_decodedata
     369.  00:422A                      ; Process the patterndata 
     370.  00:422A                      ;===========================================================
     371.  00:422A                      replay_decodedata:
     372.  00:422A                      	;--- process the channels (tracks)
     373.  00:422A  21 89 C0            	ld 	hl,TRACK_Chan1+17+TRACK_Retrig
     374.  00:422D  35                  	dec	(hl)				;Check if retrig has ended
     375.  00:422E  C2 39 42            	jp	nz,.retrig_skip1
     376.  00:4231  3A 70 C0            	ld	a,(TRACK_Chan1+17+TRACK_Flags)
     377.  00:4234  CB 9F               	res	B_TRGCMD,a
     378.  00:4236  32 70 C0            	ld	(TRACK_Chan1+17+TRACK_Flags),a
     379.  00:4239                      	
     380.  00:4239                      .retrig_skip1:	
     381.  00:4239  2B                  	dec	hl
     382.  00:423A                      ;	ld 	hl,TRACK_Chan1+17+TRACK_Delay
     383.  00:423A  35                  	dec	(hl)
     384.  00:423B  C2 5A 42            	jp	nz,.decode2
     385.  00:423E                      
     386.  00:423E  3A 70 C0            	ld	a,(TRACK_Chan1+17+TRACK_Flags)
     387.  00:4241  E6 FB               	and	11111011b		; reset B_TRGENV
     388.  00:4243  57                  	ld	d,a
     389.  00:4244  3A 6D C0            	ld	a,(TRACK_Chan1+17+TRACK_Note)	
     390.  00:4247  DD 21 77 C0         	ld	ix,TRACK_Chan1+17
     391.  00:424B  ED 4B 96 C1         	ld	bc,(TRACK_pointer1)
     392.  00:424F  CD E2 44            	call	replay_decode_chan
     393.  00:4252  ED 43 96 C1         	ld	(TRACK_pointer1),bc
     394.  00:4256  7A                  	ld	a,d
     395.  00:4257  32 70 C0            	ld	(TRACK_Chan1+17+TRACK_Flags),a	
     396.  00:425A                      
     397.  00:425A                      .decode2:	
     398.  00:425A  21 AF C0            	ld 	hl,TRACK_Chan2+17+TRACK_Retrig
     399.  00:425D  35                  	dec	(hl)				;Check if retrig has ended
     400.  00:425E  C2 69 42            	jp	nz,.retrig_skip2
     401.  00:4261  3A 96 C0            	ld	a,(TRACK_Chan2+17+TRACK_Flags)
     402.  00:4264  CB 9F               	res	B_TRGCMD,a
     403.  00:4266  32 96 C0            	ld	(TRACK_Chan2+17+TRACK_Flags),a
     404.  00:4269                      	
     405.  00:4269                      .retrig_skip2:	
     406.  00:4269  2B                  	dec	hl
     407.  00:426A                      ;	ld 	hl,TRACK_Chan2+17+TRACK_Delay
     408.  00:426A  35                  	dec	(hl)
     409.  00:426B  C2 8A 42            	jp	nz,.decode3
     410.  00:426E                      
     411.  00:426E  3A 96 C0            	ld	a,(TRACK_Chan2+17+TRACK_Flags)
     412.  00:4271  E6 FB               	and	11111011b		; reset B_TRGENV
     413.  00:4273  57                  	ld	d,a
     414.  00:4274  3A 93 C0            	ld	a,(TRACK_Chan2+17+TRACK_Note)	
     415.  00:4277  DD 21 9D C0         	ld	ix,TRACK_Chan2+17
     416.  00:427B  ED 4B 98 C1         	ld	bc,(TRACK_pointer2)
     417.  00:427F  CD E2 44            	call	replay_decode_chan
     418.  00:4282  ED 43 98 C1         	ld	(TRACK_pointer2),bc
     419.  00:4286  7A                  	ld	a,d				;'
     420.  00:4287  32 96 C0            	ld	(TRACK_Chan2+17+TRACK_Flags),a	
     421.  00:428A                      
     422.  00:428A                      .decode3:
     423.  00:428A  21 D5 C0            	ld 	hl,TRACK_Chan3+17+TRACK_Retrig
     424.  00:428D  35                  	dec	(hl)				;Check if retrig has ended
     425.  00:428E  C2 99 42            	jp	nz,.retrig_skip3
     426.  00:4291  3A BC C0            	ld	a,(TRACK_Chan3+17+TRACK_Flags)
     427.  00:4294  CB 9F               	res	B_TRGCMD,a
     428.  00:4296  32 BC C0            	ld	(TRACK_Chan3+17+TRACK_Flags),a
     429.  00:4299                      	
     430.  00:4299                      .retrig_skip3:	
     431.  00:4299  2B                  	dec	hl
     432.  00:429A                      ;	ld 	hl,TRACK_Chan3+17+TRACK_Delay
     433.  00:429A  35                  	dec	(hl)
     434.  00:429B  C2 BA 42            	jp	nz,.decode4
     435.  00:429E                      
     436.  00:429E  3A BC C0            	ld	a,(TRACK_Chan3+17+TRACK_Flags)
     437.  00:42A1  E6 FB               	and	11111011b		; reset B_TRGENV
     438.  00:42A3  57                  	ld	d,a		;'
     439.  00:42A4  3A B9 C0            	ld	a,(TRACK_Chan3+17+TRACK_Note)	
     440.  00:42A7  DD 21 C3 C0         	ld	ix,TRACK_Chan3+17
     441.  00:42AB  ED 4B 9A C1         	ld	bc,(TRACK_pointer3)
     442.  00:42AF  CD E2 44            	call	replay_decode_chan
     443.  00:42B2  ED 43 9A C1         	ld	(TRACK_pointer3),bc
     444.  00:42B6  7A                  	ld	a,d				;'
     445.  00:42B7  32 BC C0            	ld	(TRACK_Chan3+17+TRACK_Flags),a	
     446.  00:42BA                      
     447.  00:42BA                      .decode4:
     448.  00:42BA  21 FB C0            	ld 	hl,TRACK_Chan4+17+TRACK_Retrig
     449.  00:42BD  35                  	dec	(hl)				;Check if retrig has ended
     450.  00:42BE  C2 C9 42            	jp	nz,.retrig_skip4
     451.  00:42C1  3A E2 C0            	ld	a,(TRACK_Chan4+17+TRACK_Flags)
     452.  00:42C4  CB 9F               	res	B_TRGCMD,a
     453.  00:42C6  32 E2 C0            	ld	(TRACK_Chan4+17+TRACK_Flags),a
     454.  00:42C9                      	
     455.  00:42C9                      .retrig_skip4:	
     456.  00:42C9  2B                  	dec	hl
     457.  00:42CA                      ;	ld 	hl,TRACK_Chan4+17+TRACK_Delay
     458.  00:42CA  35                  	dec	(hl)
     459.  00:42CB  C2 EA 42            	jp	nz,.decode5
     460.  00:42CE                      
     461.  00:42CE  3A E2 C0            	ld	a,(TRACK_Chan4+17+TRACK_Flags)
     462.  00:42D1  E6 FB               	and	11111011b		; reset B_TRGENV
     463.  00:42D3  57                  	ld 	d,a		;'
     464.  00:42D4  3A DF C0            	ld	a,(TRACK_Chan4+17+TRACK_Note)	
     465.  00:42D7  DD 21 E9 C0         	ld	ix,TRACK_Chan4+17
     466.  00:42DB  ED 4B 9C C1         	ld	bc,(TRACK_pointer4)
     467.  00:42DF  CD E2 44            	call	replay_decode_chan
     468.  00:42E2  ED 43 9C C1         	ld	(TRACK_pointer4),bc
     469.  00:42E6  7A                  	ld	a,d			;'
     470.  00:42E7  32 E2 C0            	ld	(TRACK_Chan4+17+TRACK_Flags),a	
     471.  00:42EA                      
     472.  00:42EA                      
     473.  00:42EA                      .decode5:
     474.  00:42EA  21 21 C1            	ld 	hl,TRACK_Chan5+17+TRACK_Retrig
     475.  00:42ED  35                  	dec	(hl)				;Check if retrig has ended
     476.  00:42EE  C2 F9 42            	jp	nz,.retrig_skip5
     477.  00:42F1  3A 08 C1            	ld	a,(TRACK_Chan5+17+TRACK_Flags)
     478.  00:42F4  CB 9F               	res	B_TRGCMD,a
     479.  00:42F6  32 08 C1            	ld	(TRACK_Chan5+17+TRACK_Flags),a
     480.  00:42F9                      	
     481.  00:42F9                      .retrig_skip5:	
     482.  00:42F9  2B                  	dec	hl
     483.  00:42FA                      ;	ld 	hl,TRACK_Chan5+17+TRACK_Delay
     484.  00:42FA  35                  	dec	(hl)
     485.  00:42FB  C2 1A 43            	jp	nz,.decode6
     486.  00:42FE                      
     487.  00:42FE  3A 08 C1            	ld	a,(TRACK_Chan5+17+TRACK_Flags)
     488.  00:4301  E6 FB               	and	11111011b		; reset B_TRGENV
     489.  00:4303  57                  	ld	d,a		;'
     490.  00:4304  3A 05 C1            	ld	a,(TRACK_Chan5+17+TRACK_Note)	
     491.  00:4307  DD 21 0F C1         	ld	ix,TRACK_Chan5+17
     492.  00:430B  ED 4B 9E C1         	ld	bc,(TRACK_pointer5)
     493.  00:430F  CD E2 44            	call	replay_decode_chan
     494.  00:4312  ED 43 9E C1         	ld	(TRACK_pointer5),bc
     495.  00:4316  7A                  	ld	a,d			;'
     496.  00:4317  32 08 C1            	ld	(TRACK_Chan5+17+TRACK_Flags),a	
     497.  00:431A                      
     498.  00:431A                      
     499.  00:431A                      .decode6:
     500.  00:431A  21 47 C1            	ld 	hl,TRACK_Chan6+17+TRACK_Retrig
     501.  00:431D  35                  	dec	(hl)				;Check if retrig has ended
     502.  00:431E  C2 29 43            	jp	nz,.retrig_skip6
     503.  00:4321  3A 2E C1            	ld	a,(TRACK_Chan6+17+TRACK_Flags)
     504.  00:4324  CB 9F               	res	B_TRGCMD,a
     505.  00:4326  32 2E C1            	ld	(TRACK_Chan6+17+TRACK_Flags),a	
     506.  00:4329                      .retrig_skip6:	
     507.  00:4329  2B                  	dec	hl
     508.  00:432A                      ;	ld 	hl,TRACK_Chan6+17+TRACK_Delay
     509.  00:432A  35                  	dec	(hl)
     510.  00:432B  C2 4A 43            	jp	nz,.decode7
     511.  00:432E                      
     512.  00:432E  3A 2E C1            	ld	a,(TRACK_Chan6+17+TRACK_Flags)
     513.  00:4331  E6 FB               	and	11111011b		; reset B_TRGENV
     514.  00:4333  57                  	ld	d,a		;'
     515.  00:4334  3A 2B C1            	ld	a,(TRACK_Chan6+17+TRACK_Note)	
     516.  00:4337  DD 21 35 C1         	ld	ix,TRACK_Chan6+17
     517.  00:433B  ED 4B A0 C1         	ld	bc,(TRACK_pointer6)
     518.  00:433F  CD E2 44            	call	replay_decode_chan
     519.  00:4342  ED 43 A0 C1         	ld	(TRACK_pointer6),bc
     520.  00:4346  7A                  	ld	a,d				;'
     521.  00:4347  32 2E C1            	ld	(TRACK_Chan6+17+TRACK_Flags),a	
     522.  00:434A                      
     523.  00:434A                      
     524.  00:434A                      .decode7:
     525.  00:434A  21 6D C1            	ld 	hl,TRACK_Chan7+17+TRACK_Retrig
     526.  00:434D  35                  	dec	(hl)				;Check if retrig has ended
     527.  00:434E  C2 59 43            	jp	nz,.retrig_skip7
     528.  00:4351  3A 54 C1            	ld	a,(TRACK_Chan7+17+TRACK_Flags)
     529.  00:4354  CB 9F               	res	B_TRGCMD,a
     530.  00:4356  32 54 C1            	ld	(TRACK_Chan7+17+TRACK_Flags),a
     531.  00:4359                      	
     532.  00:4359                      .retrig_skip7:	
     533.  00:4359  2B                  	dec	hl
     534.  00:435A                      ;	ld 	hl,TRACK_Chan7+17+TRACK_Delay
     535.  00:435A  35                  	dec	(hl)
     536.  00:435B  C2 7A 43            	jp	nz,.decode8
     537.  00:435E                      
     538.  00:435E  3A 54 C1            	ld	a,(TRACK_Chan7+17+TRACK_Flags)
     539.  00:4361  E6 FB               	and	11111011b		; reset B_TRGENV
     540.  00:4363  57                  	ld	d,a		;'
     541.  00:4364  3A 51 C1            	ld	a,(TRACK_Chan7+17+TRACK_Note)	
     542.  00:4367  DD 21 5B C1         	ld	ix,TRACK_Chan7+17
     543.  00:436B  ED 4B A2 C1         	ld	bc,(TRACK_pointer7)
     544.  00:436F  CD E2 44            	call	replay_decode_chan
     545.  00:4372  ED 43 A2 C1         	ld	(TRACK_pointer7),bc
     546.  00:4376  7A                  	ld	a,d				;'
     547.  00:4377  32 54 C1            	ld	(TRACK_Chan7+17+TRACK_Flags),a	
     548.  00:437A                      
     549.  00:437A                      
     550.  00:437A                      .decode8:
     551.  00:437A  21 93 C1            	ld 	hl,TRACK_Chan8+17+TRACK_Retrig
     552.  00:437D  35                  	dec	(hl)				;Check if retrig has ended
     553.  00:437E  C2 89 43            	jp	nz,.retrig_skip8
     554.  00:4381  3A 7A C1            	ld	a,(TRACK_Chan8+17+TRACK_Flags)
     555.  00:4384  CB 9F               	res	B_TRGCMD,a
     556.  00:4386  32 7A C1            	ld	(TRACK_Chan8+17+TRACK_Flags),a
     557.  00:4389                      	
     558.  00:4389                      .retrig_skip8:	
     559.  00:4389  2B                  	dec	hl
     560.  00:438A                      ;	ld 	hl,TRACK_Chan8+17+TRACK_Delay
     561.  00:438A  35                  	dec	(hl)
     562.  00:438B  C2 AA 43            	jp	nz,.decode_end
     563.  00:438E                      
     564.  00:438E  3A 7A C1            	ld	a,(TRACK_Chan8+17+TRACK_Flags)
     565.  00:4391  E6 FB               	and	11111011b		; reset B_TRGENV
     566.  00:4393  57                  	ld	d,a		;'
     567.  00:4394  3A 77 C1            	ld	a,(TRACK_Chan8+17+TRACK_Note)	
     568.  00:4397  DD 21 81 C1         	ld	ix,TRACK_Chan8+17
     569.  00:439B  ED 4B A4 C1         	ld	bc,(TRACK_pointer8)
     570.  00:439F  CD E2 44            	call	replay_decode_chan
     571.  00:43A2  ED 43 A4 C1         	ld	(TRACK_pointer8),bc
     572.  00:43A6  7A                  	ld	a,d				;'
     573.  00:43A7  32 7A C1            	ld	(TRACK_Chan8+17+TRACK_Flags),a
     574.  00:43AA                      		
     575.  00:43AA                      .decode_end:
     576.  00:43AA                      	; continue to process data
     577.  00:43AA                      ;===========================================================
     578.  00:43AA                      ; ---	replay_decodedata_NO
     579.  00:43AA                      ; Process changes.
     580.  00:43AA                      ; 
     581.  00:43AA                      ; 
     582.  00:43AA                      ;===========================================================
     583.  00:43AA                      replay_decodedata_NO:
     584.  00:43AA                      	;--- Initialize PSG Mixer and volume
     585.  00:43AA  AF                  	xor	a
     586.  00:43AB  32 54 C2            	ld	(FM_regMIXER),a
     587.  00:43AE                      
     588.  00:43AE                      	;--- PSG balance
     589.  00:43AE  2A 03 C0            	ld	hl,(replay_mainPSGvol)
     590.  00:43B1  22 18 C0            	ld	(replay_mainvol),hl
     591.  00:43B4                      
     592.  00:43B4                      	;--- Process track 1
     593.  00:43B4  DD 21 77 C0         	ld	ix,TRACK_Chan1+17
     594.  00:43B8  3A 70 C0            	ld	a,(TRACK_Chan1+17+TRACK_Flags)
     595.  00:43BB  57                  	ld	d,a
     596.  00:43BC  CD F3 47            	call	replay_process_chan_AY
     597.  00:43BF  22 A6 C1            	ld	(AY_regToneA),hl
     598.  00:43C2  7A                  	ld	a,d
     599.  00:43C3  32 70 C0            	ld	(TRACK_Chan1+17+TRACK_Flags),a	
     600.  00:43C6  3A 45 C2            	ld	a,(FM_regVOLF)
     601.  00:43C9  32 AE C1            	ld	(AY_regVOLA),a	
     602.  00:43CC                      
     603.  00:43CC                      	;--- Process track 2
     604.  00:43CC  DD 21 9D C0         	ld	ix,TRACK_Chan2+17
     605.  00:43D0  3A 96 C0            	ld	a,(TRACK_Chan2+17+TRACK_Flags)
     606.  00:43D3  57                  	ld	d,a
     607.  00:43D4  CD F3 47            	call	replay_process_chan_AY
     608.  00:43D7  22 A8 C1            	ld	(AY_regToneB),hl
     609.  00:43DA  7A                  	ld	a,d
     610.  00:43DB  32 96 C0            	ld	(TRACK_Chan2+17+TRACK_Flags),a	
     611.  00:43DE  3A 45 C2            	ld	a,(FM_regVOLF)
     612.  00:43E1  32 AF C1            	ld	(AY_regVOLB),a	
     613.  00:43E4                      
     614.  00:43E4  3A 13 C0            	ld	a,(replay_chan_setup)
     615.  00:43E7  A7                  	and	a
     616.  00:43E8  CA 03 44            	jp	z,_rdd_2psg_6fm
     617.  00:43EB                      
     618.  00:43EB                      _rdd_3psg_5fm:
     619.  00:43EB                      	;--- Process track 3	
     620.  00:43EB  DD 21 C3 C0         	ld	ix,TRACK_Chan3+17
     621.  00:43EF  3A BC C0            	ld	a,(TRACK_Chan3+17+TRACK_Flags)
     622.  00:43F2  57                  	ld	d,a
     623.  00:43F3  CD F3 47            	call	replay_process_chan_AY
     624.  00:43F6  22 AA C1            	ld	(AY_regToneC),hl
     625.  00:43F9  7A                  	ld	a,d
     626.  00:43FA  32 BC C0            	ld	(TRACK_Chan3+17+TRACK_Flags),a	
     627.  00:43FD  3A 45 C2            	ld	a,(FM_regVOLF)
     628.  00:4400  32 B0 C1            	ld	(AY_regVOLC),a
     629.  00:4403                      	
     630.  00:4403                      	
     631.  00:4403                      	
     632.  00:4403                      	
     633.  00:4403                      	;--- To disable track 3 just comment above lines (9 lines) and enable below 2 lines.
     634.  00:4403                      	;    This can be done for all tracks.
     635.  00:4403                      ;	ld	hl,FM_regMIXER   
     636.  00:4403                      ;	srl	(hl)
     637.  00:4403                      
     638.  00:4403                      	
     639.  00:4403                      _rdd_2psg_6fm:
     640.  00:4403                      	;-- Convert mixer to AY
     641.  00:4403  3A 54 C2            	ld	a,(FM_regMIXER)		
     642.  00:4406  CB 3F               	srl	a
     643.  00:4408  CB 3F               	srl	a
     644.  00:440A  CB 3F               	srl	a
     645.  00:440C  EE 3F               	xor	0x3f
     646.  00:440E  32 AD C1            	ld	(AY_regMIXER),a
     647.  00:4411                      
     648.  00:4411                      
     649.  00:4411                      	;--- set SCC balance
     650.  00:4411  2A 05 C0            	ld	hl,(replay_mainSCCvol)
     651.  00:4414  22 18 C0            	ld	(replay_mainvol),hl
     652.  00:4417                      
     653.  00:4417                      	
     654.  00:4417                      ;	ld	iyh,0			; iyh stores the SCC chan#
     655.  00:4417                      ;
     656.  00:4417                      					; used for waveform updates
     657.  00:4417                      	;--- Process track 3
     658.  00:4417  DD 21 C3 C0         	ld	ix,TRACK_Chan3+17
     659.  00:441B  3A BC C0            	ld	a,(TRACK_Chan3+17+TRACK_Flags)
     660.  00:441E  57                  	ld	d,a
     661.  00:441F  CD F3 47            	call	replay_process_chan_AY
     662.  00:4422  22 34 C2            	ld	(FM_regToneA),hl
     663.  00:4425  7A                  	ld	a,d
     664.  00:4426  32 E2 C0            	ld	(TRACK_Chan4+17+TRACK_Flags),a	
     665.  00:4429  3A 45 C2            	ld	a,(FM_regVOLF)
     666.  00:442C  32 40 C2            	ld	(FM_regVOLA),a	
     667.  00:442F                      
     668.  00:442F                      
     669.  00:442F                      _rdd_cont:
     670.  00:442F                      	;--- Process track 4
     671.  00:442F  DD 21 E9 C0         	ld	ix,TRACK_Chan4+17
     672.  00:4433  3A E2 C0            	ld	a,(TRACK_Chan4+17+TRACK_Flags)
     673.  00:4436  57                  	ld	d,a
     674.  00:4437  CD F3 47            	call	replay_process_chan_AY
     675.  00:443A  22 36 C2            	ld	(FM_regToneB),hl
     676.  00:443D  7A                  	ld	a,d
     677.  00:443E  32 E2 C0            	ld	(TRACK_Chan4+17+TRACK_Flags),a	
     678.  00:4441  3A 45 C2            	ld	a,(FM_regVOLF)
     679.  00:4444  32 41 C2            	ld	(FM_regVOLB),a	
     680.  00:4447                      
     681.  00:4447                      
     682.  00:4447                      	;--- Process track 5
     683.  00:4447                      ;	inc	iyh
     684.  00:4447                      	
     685.  00:4447  DD 21 0F C1         	ld	ix,TRACK_Chan5+17
     686.  00:444B  3A 08 C1            	ld	a,(TRACK_Chan5+17+TRACK_Flags)
     687.  00:444E  57                  	ld	d,a
     688.  00:444F  CD F3 47            	call	replay_process_chan_AY
     689.  00:4452  22 38 C2            	ld	(FM_regToneC),hl
     690.  00:4455  7A                  	ld	a,d
     691.  00:4456  32 08 C1            	ld	(TRACK_Chan5+17+TRACK_Flags),a	
     692.  00:4459  3A 45 C2            	ld	a,(FM_regVOLF)
     693.  00:445C  32 42 C2            	ld	(FM_regVOLC),a	
     694.  00:445F                      
     695.  00:445F                      	;--- Process track 6
     696.  00:445F                      ;	inc	iyh
     697.  00:445F                      		
     698.  00:445F  DD 21 35 C1         	ld	ix,TRACK_Chan6+17
     699.  00:4463  3A 2E C1            	ld	a,(TRACK_Chan6+17+TRACK_Flags)
     700.  00:4466  57                  	ld	d,a
     701.  00:4467  CD F3 47            	call	replay_process_chan_AY
     702.  00:446A  22 3A C2            	ld	(FM_regToneD),hl
     703.  00:446D  7A                  	ld	a,d
     704.  00:446E  32 2E C1            	ld	(TRACK_Chan6+17+TRACK_Flags),a	
     705.  00:4471  3A 45 C2            	ld	a,(FM_regVOLF)
     706.  00:4474  32 43 C2            	ld	(FM_regVOLD),a	
     707.  00:4477                      
     708.  00:4477                      	;--- Process track 7
     709.  00:4477                      ;	inc	iyh
     710.  00:4477                      		
     711.  00:4477  DD 21 5B C1         	ld	ix,TRACK_Chan7+17
     712.  00:447B  3A 54 C1            	ld	a,(TRACK_Chan7+17+TRACK_Flags)
     713.  00:447E  57                  	ld	d,a
     714.  00:447F  CD F3 47            	call	replay_process_chan_AY
     715.  00:4482  22 3C C2            	ld	(FM_regToneE),hl
     716.  00:4485  7A                  	ld	a,d
     717.  00:4486  32 54 C1            	ld	(TRACK_Chan7+17+TRACK_Flags),a	
     718.  00:4489  3A 45 C2            	ld	a,(FM_regVOLF)
     719.  00:448C  32 44 C2            	ld	(FM_regVOLE),a		
     720.  00:448F                      
     721.  00:448F                      	;--- Process track 8
     722.  00:448F                      ;	inc	iyh			; no waveform for SCC channel 5
     723.  00:448F                      		
     724.  00:448F  DD 21 81 C1         	ld	ix,TRACK_Chan8+17
     725.  00:4493  3A 7A C1            	ld	a,(TRACK_Chan8+17+TRACK_Flags)
     726.  00:4496  57                  	ld	d,a
     727.  00:4497  CD F3 47            	call	replay_process_chan_AY
     728.  00:449A  22 3E C2            	ld	(FM_regToneF),hl
     729.  00:449D  7A                  	ld	a,d
     730.  00:449E  32 7A C1            	ld	(TRACK_Chan8+17+TRACK_Flags),a	
     731.  00:44A1                      
     732.  00:44A1                      	;-- Fade out processing
     733.  00:44A1  3A 14 C0            	ld	a,(replay_fade)
     734.  00:44A4  A7                  	and	a
     735.  00:44A5  C8                  	ret	z	; if replay fade = 0 then no fade active
     736.  00:44A6                      	
     737.  00:44A6                      	; decrease fade timer
     738.  00:44A6  3A 15 C0            	ld	a,(replay_fade_timer)
     739.  00:44A9  3D                  	dec	a
     740.  00:44AA  C2 C3 44            	jp	nz,.no_new_step
     741.  00:44AD                      
     742.  00:44AD  3A 16 C0            	ld	a,(replay_fade_vol)
     743.  00:44B0  3C                  	inc	a
     744.  00:44B1  FE 10               	cp	16
     745.  00:44B3  DA BD 44            	jp	c,.cont_fadeing
     746.  00:44B6  AF                  	xor	a
     747.  00:44B7  32 14 C0            	ld	(replay_fade),a
     748.  00:44BA  C3 91 40            	jp	replay_pause
     749.  00:44BD                      .cont_fadeing:	
     750.  00:44BD  32 16 C0            	ld	(replay_fade_vol),a
     751.  00:44C0  3A 14 C0            	ld	a,(replay_fade)
     752.  00:44C3                      .no_new_step:
     753.  00:44C3  32 15 C0            	ld	(replay_fade_timer),a
     754.  00:44C6                      
     755.  00:44C6  3A 16 C0            	ld	a,(replay_fade_vol)
     756.  00:44C9  4F                  	ld	c,a
     757.  00:44CA  06 03               	ld	b,3
     758.  00:44CC  21 AE C1            	ld	hl,AY_regVOLA
     759.  00:44CF  CD D7 44            	call	.calc_vol
     760.  00:44D2  06 06               	ld	b,6
     761.  00:44D4  21 40 C2            	ld	hl,FM_regVOLA
     762.  00:44D7                      
     763.  00:44D7                      .calc_vol:	
     764.  00:44D7  7E                  	ld	a,(hl)
     765.  00:44D8  91                  	sub	c
     766.  00:44D9  D2 DD 44            	jp	nc,.no_carry
     767.  00:44DC  AF                  	xor	a
     768.  00:44DD                      .no_carry:	
     769.  00:44DD  77                  	ld	(hl),a
     770.  00:44DE  23                  	inc	hl
     771.  00:44DF  10 F6               	djnz	.calc_vol
     772.  00:44E1  C9                  	ret
     773.  00:44E2                      
     774.  00:44E2                      
     775.  00:44E2                      	
     776.  00:44E2                      replay_decode_chan:
     777.  00:44E2                      	;--- initialize data
     778.  00:44E2                      ;	ld	a,(ix+TRACK_Note)
     779.  00:44E2  32 17 C0            	ld	(replay_previous_note),a
     780.  00:44E5                      
     781.  00:44E5                      ;	;--- Check if retrig has ended
     782.  00:44E5                      ;	dec	(ix+TRACK_Retrig)
     783.  00:44E5                      ;	jp	nz,.skip_retrig_reset
     784.  00:44E5                      ;	res 	B_TRGCMD,(ix+TRACK_Flags)
     785.  00:44E5                      ;
     786.  00:44E5                      ;.skip_retrig_reset:
     787.  00:44E5                      	;=============
     788.  00:44E5                      	; Note 
     789.  00:44E5                      	;=============
     790.  00:44E5  0A                  	ld	a,(bc)
     791.  00:44E6  FE 60               	cp	96
     792.  00:44E8                      
     793.  00:44E8  DA 29 45            	jp	c,_replay_decode_note
     794.  00:44EB  CA 35 45            	jp	z,_replay_decode_rest
     795.  00:44EE  FE 70               _rdn2:cp	112;128
     796.  00:44F0  DA 75 45            	jp	c,_replay_decode_vol
     797.  00:44F3  FE 8F               _rdv2:cp	143
     798.  00:44F5  DA 3E 45            	jp	c,_replay_decode_ins
     799.  00:44F8                      _rdi2:
     800.  00:44F8  FE BF               	cp	191
     801.  00:44FA  D2 8A 45            	jp	nc,_replay_decode_delay
     802.  00:44FD  DA 97 45            	jp	c,_replay_decode_cmd
     803.  00:4500                      
     804.  00:4500                      _rdn:
     805.  00:4500  FE 61               	cp	97
     806.  00:4502  DA 22 45            	jp	c,_rd_delay
     807.  00:4505  C3 EE 44            	jp	_rdn2
     808.  00:4508                      
     809.  00:4508                      _rdi:
     810.  00:4508  FE 8F               	cp	143
     811.  00:450A  DA 22 45            	jp	c,_rd_delay
     812.  00:450D  C3 F8 44            	jp	_rdi2
     813.  00:4510                      
     814.  00:4510                      _rdv:
     815.  00:4510  FE 70               	cp	112
     816.  00:4512  DA 22 45            	jp	c,_rd_delay
     817.  00:4515  C3 F3 44            	jp	_rdv2
     818.  00:4518                      _rdc:
     819.  00:4518  03                  	inc	bc
     820.  00:4519  0A                  	ld	a,(bc)
     821.  00:451A  FE BF               	cp	191
     822.  00:451C  DA 22 45            	jp	c,_rd_delay
     823.  00:451F  C3 8A 45            	jp	_replay_decode_delay
     824.  00:4522                      
     825.  00:4522                      	;--- re-init previous delay
     826.  00:4522                      _rd_delay:
     827.  00:4522  DD 7E 13            	ld	a,(ix+TRACK_prevDelay)
     828.  00:4525  DD 77 11            	ld	(ix+TRACK_Delay),a
     829.  00:4528                      
     830.  00:4528  C9                  	ret
     831.  00:4529                      
     832.  00:4529                      
     833.  00:4529                      
     834.  00:4529                      _replay_decode_note:
     835.  00:4529  DD 77 F6            	ld	(ix+TRACK_Note),a
     836.  00:452C  CB C2               	set 	B_TRGNOT,d
     837.  00:452E  CB E2               	set 	B_KEYON,d
     838.  00:4530                      ;	res	B_ACTMOR,d
     839.  00:4530                      
     840.  00:4530  03                  	inc	bc
     841.  00:4531  0A                  	ld	a,(bc)
     842.  00:4532  C3 00 45            	jp	_rdn
     843.  00:4535                      	
     844.  00:4535                      _replay_decode_rest:
     845.  00:4535  CB 8A               	res	B_ACTNOT,d				; reset note bit to	0
     846.  00:4537  CB AA               	res	B_SUST,d				; rest sustain
     847.  00:4539                      ;	res	B_ACTMOR,d				; reset morph slave mode
     848.  00:4539                      
     849.  00:4539  03                  	inc	bc
     850.  00:453A  0A                  	ld	a,(bc)
     851.  00:453B  C3 00 45            	jp	_rdn
     852.  00:453E                      
     853.  00:453E                      _replay_decode_ins:
     854.  00:453E                      ;	res	B_ACTMOR,d				; reset morph slave mode
     855.  00:453E  D6 70               	sub	112;97
     856.  00:4540  DD BE EF            	cp	(ix+TRACK_Instrument)
     857.  00:4543  CA 70 45            	jp	z,.skip_ins
     858.  00:4546                      	
     859.  00:4546  DD 77 EF            	ld	(ix+TRACK_Instrument),a
     860.  00:4549                      
     861.  00:4549                      	;--- set instrument pointer
     862.  00:4549  87                  	add	a
     863.  00:454A  2A 0B C0            	ld	hl,(replay_insbase)
     864.  00:454D  85                  	add	a,l
     865.  00:454E  6F                  	ld	l,a
     866.  00:454F  D2 53 45            	jp	nc,.skip
     867.  00:4552  24                  	inc	h
     868.  00:4553                      .skip:
     869.  00:4553  7E                  	ld	a,(hl)
     870.  00:4554  23                  	inc	hl
     871.  00:4555  66                  	ld	h,(hl)
     872.  00:4556  6F                  	ld	l,a
     873.  00:4557                      
     874.  00:4557                      	;-- get voice
     875.  00:4557  7E                  	ld	a,(hl)
     876.  00:4558  23                  	inc	hl
     877.  00:4559                      	
     878.  00:4559                      ;	ld	e,(hl)
     879.  00:4559                      ;	inc	hl
     880.  00:4559                      
     881.  00:4559                      	;---- Store the restart offset
     882.  00:4559                      ;	ld	(ix+TRACK_MacroRestart),e
     883.  00:4559                      	;--- Store the macro start
     884.  00:4559  DD 75 F1            	ld	(ix+TRACK_MacroPointer),l
     885.  00:455C  DD 74 F2            	ld	(ix+TRACK_MacroPointer+1),h	
     886.  00:455F                      	;--- Store the macro re-start
     887.  00:455F  DD 75 F3            	ld	(ix+TRACK_MacroStart),l
     888.  00:4562  DD 74 F4            	ld	(ix+TRACK_MacroStart+1),h		
     889.  00:4565                      	;--- Set the voiceform  (if needed)
     890.  00:4565  DD BE F8            	cp	(ix+TRACK_Voice)
     891.  00:4568  CA 70 45            	jp	z,.skip_ins
     892.  00:456B                      	
     893.  00:456B                      	;--- this is a new waveform
     894.  00:456B  DD 77 F8            	ld	(ix+TRACK_Voice),a
     895.  00:456E  CB F2               	set	B_TRGVOI,d
     896.  00:4570                      ;	set	B_TRGWAV,d
     897.  00:4570                      	
     898.  00:4570                      .skip_ins:	
     899.  00:4570  03                  	inc	bc
     900.  00:4571  0A                  	ld	a,(bc)
     901.  00:4572  C3 08 45            	jp	_rdi
     902.  00:4575                      
     903.  00:4575                      _replay_decode_vol:
     904.  00:4575  D6 60               	sub	96;127
     905.  00:4577  87                  	add	a
     906.  00:4578  87                  	add	a
     907.  00:4579  87                  	add	a
     908.  00:457A  87                  	add	a
     909.  00:457B                      	
     910.  00:457B                      	;--- Set new base	volume (high byte) but keep relative offset (low byte)
     911.  00:457B  5F                  	ld	e,a
     912.  00:457C  DD 7E F7            	ld	a,(ix+TRACK_Volume)
     913.  00:457F  E6 0F               	and	0xf
     914.  00:4581  B3                  	or	e
     915.  00:4582  DD 77 F7            	ld	(ix+TRACK_Volume),a
     916.  00:4585                      
     917.  00:4585  03                  	inc	bc
     918.  00:4586  0A                  	ld	a,(bc)
     919.  00:4587  C3 10 45            	jp	_rdv
     920.  00:458A                      
     921.  00:458A                      
     922.  00:458A                      _replay_decode_delay:
     923.  00:458A  D6 BF               	sub	191
     924.  00:458C  CA 22 45            	jp	z,_rd_delay		; EOT found
     925.  00:458F  DD 77 11            	ld	(ix+TRACK_Delay),a
     926.  00:4592  DD 77 13            	ld	(ix+TRACK_prevDelay),a
     927.  00:4595                      
     928.  00:4595  03                  	inc	bc
     929.  00:4596  C9                  	ret
     930.  00:4597                      
     931.  00:4597                      
     932.  00:4597                      _replay_decode_cmd:
     933.  00:4597                      
     934.  00:4597  D6 8E               	sub	142
     935.  00:4599  DD 77 F0            	ld	(ix+TRACK_Command),a
     936.  00:459C  21 AD 45            	ld	hl,DECODE_CMDLIST
     937.  00:459F  87                  	add	a,a
     938.  00:45A0  85                  	add	a,l
     939.  00:45A1  6F                  	ld	l,a
     940.  00:45A2  D2 A6 45            	jp	nc,.skip
     941.  00:45A5  24                  	inc	h
     942.  00:45A6                      .skip:
     943.  00:45A6  7E                  	ld	a,(hl)
     944.  00:45A7  23                  	inc	hl
     945.  00:45A8  66                  	ld	h,(hl)
     946.  00:45A9  6F                  	ld	l,a
     947.  00:45AA                      	
     948.  00:45AA  03                  	inc	bc
     949.  00:45AB  0A                  	ld	a,(bc)
     950.  00:45AC  E9                  	jp	(hl)
     951.  00:45AD                      
     952.  00:45AD                      DECODE_CMDLIST:
     953.  00:45AD                      	; These effects are only processed 1 once in decoding
     954.  00:45AD  B6 46               	dw	_CHIPcmdA_env_mul			;0
     955.  00:45AF  00 00               	dw	0					;1	CHAN 3-5
     956.  00:45B1  00 00               	dw	0					;2	CHAN 2-6
     957.  00:45B3  D7 46               	dw	_CHIPcmdCd_drum			;3	FM DRUM
     958.  00:45B5  CB 46               	dw	_CHIPcmd11_sustain_on		;4	SUSTAIN ON	
     959.  00:45B7  D1 46               	dw	_CHIPcmd12_sustain_off		;5	SUSTAIN OFF
     960.  00:45B9  14 47               	dw	_CHIPcmd16_vib_ctrl		;6
     961.  00:45BB  3A 47               	dw	_CHIPcmd17_track_detune		;7
     962.  00:45BD  59 47               	dw	_CHIPcmd18_transpose		;8
     963.  00:45BF  A6 47               	dw	_CHIPcmd1A_trigger		;9
     964.  00:45C1  AC 47               	dw	_CHIPcmd1B_speed			;a
     965.  00:45C3  BF 47               	dw	_CHIPcmd1C_notelink		;b
     966.  00:45C5                      ;	dw	_CHIPcmd1C_call			;b	
     967.  00:45C5  C5 47               	dw	_CHIPcmd1D_ret			;c
     968.  00:45C7                      	
     969.  00:45C7                      	; These effects are also processed in the processing
     970.  00:45C7  00 00               	dw	0					;d	DELETE
     971.  00:45C9  00 00               	dw	0					;e	DELETE
     972.  00:45CB  00 00               	dw	0					;f	DELETE
     973.  00:45CD  FC 46               	dw	_CHIPcmd13_short_arp		;10
     974.  00:45CF  08 47               	dw	_CHIPcmd14_fine_up		;11
     975.  00:45D1  08 47               	dw	_CHIPcmd15_fine_down		;12
     976.  00:45D3  88 47               	dw	_CHIPcmd19_note_delay		;13
     977.  00:45D5  7F 47               	dw	_CHIPcmdXX_note_cut		;14
     978.  00:45D7                      
     979.  00:45D7                      	; These effects can be retriggered
     980.  00:45D7  FF 45               	dw	_CHIPcmd0_arpeggio		;15
     981.  00:45D9  0F 46               	dw	_CHIPcmd1_port_up			;16
     982.  00:45DB  1B 46               	dw	_CHIPcmd2_port_down		;17
     983.  00:45DD  2D 46               	dw	_CHIPcmd3_port_tone		;18
     984.  00:45DF  7B 46               	dw	_CHIPcmd4_vibrato			;19
     985.  00:45E1  99 46               	dw	_CHIPcmd5_vibrato_port_tone	;1a
     986.  00:45E3  99 46               	dw	_CHIPcmd6_vibrato_vol		;1b
     987.  00:45E5  99 46               	dw	_CHIPcmd7_vol_slide		;1c
     988.  00:45E7  A9 46               	dw	_CHIPcmd8_macro_offset		;1d
     989.  00:45E9  AC 46               	dw	_CHIPcmd9_env_shape		;1e
     990.  00:45EB                      
     991.  00:45EB  C9 47               	dw	_CHIPcmd0_RE_arpeggio		;1f
     992.  00:45ED  CD 47               	dw	_CHIPcmd1_RE_port_up		;20
     993.  00:45EF  CD 47               	dw	_CHIPcmd2_RE_port_down		;21
     994.  00:45F1  27 46               	dw	_CHIPcmd3_RE_port_tone		;22
     995.  00:45F3  CD 47               	dw	_CHIPcmd4_RE_vibrato		;23
     996.  00:45F5  D5 47               	dw	_CHIPcmd5_RE_vibrato_port_tone ;24
     997.  00:45F7  D5 47               	dw	_CHIPcmd6_RE_vibrato_vol	;25
     998.  00:45F9  D5 47               	dw	_CHIPcmd7_RE_vol_slide		;26
     999.  00:45FB  E1 47               	dw	_CHIPcmd8_RE_macro_offset	;27
    1000.  00:45FD  ED 47               	dw	_CHIPcmd9_RE_env_shape		;28
    1001.  00:45FF                      
    1002.  00:45FF                      
    1003.  00:45FF                      
    1004.  00:45FF                      _CHIPcmd0_arpeggio:
    1005.  00:45FF                      	; in:	[A] contains the paramvalue
    1006.  00:45FF                      	; 
    1007.  00:45FF                      	; ! do not change	[BC] this is the data pointer
    1008.  00:45FF                      	;--------------------------------------------------
    1009.  00:45FF                      	; Cycles between note, note+x	halftones, note+y
    1010.  00:45FF                      	; halftones. 
    1011.  00:45FF                      	; Ex:	(MOD/XM: C-4 01 .. 037)	This will play 
    1012.  00:45FF                      	; C-4, C-4+3 semitones andC-4+7 semitones. 
    1013.  00:45FF  DD 77 05            	ld	(ix+TRACK_cmd_0),a
    1014.  00:4602  CB DA               	set	B_TRGCMD,d
    1015.  00:4604  DD 36 0F 00         	ld	(ix+TRACK_Timer),0
    1016.  00:4608  DD 36 12 01         	ld	(ix+TRACK_Retrig),1
    1017.  00:460C  C3 18 45            	jp	_rdc
    1018.  00:460F                      	
    1019.  00:460F                      _CHIPcmd1_port_up:
    1020.  00:460F                      	; in:	[A] contains the paramvalue
    1021.  00:460F                      	; 
    1022.  00:460F                      	; ! do not change	[BC] this is the data pointer
    1023.  00:460F                      	;--------------------------------------------------
    1024.  00:460F                      	; This will	slide	up the pitch of the current note
    1025.  00:460F                      	; being played by	the given speed. 
    1026.  00:460F  DD 77 06            	ld	(ix+TRACK_cmd_1),a
    1027.  00:4612  CB DA               	set	B_TRGCMD,d
    1028.  00:4614  DD 36 12 01         	ld	(ix+TRACK_Retrig),1
    1029.  00:4618  C3 18 45            	jp	_rdc
    1030.  00:461B                      	
    1031.  00:461B                      	
    1032.  00:461B                      	 
    1033.  00:461B                      _CHIPcmd2_port_down:
    1034.  00:461B                      	; in:	[A] contains the paramvalue
    1035.  00:461B                      	; 
    1036.  00:461B                      	; ! do not change	[BC] this is the data pointer
    1037.  00:461B                      	;--------------------------------------------------
    1038.  00:461B                      	; This will	slide	down the pitch of	the current	note
    1039.  00:461B                      	; being played by	the given speed.	
    1040.  00:461B  DD 77 07            	ld	(ix+TRACK_cmd_2),a
    1041.  00:461E  CB DA               	set	B_TRGCMD,d
    1042.  00:4620  DD 36 12 01         	ld	(ix+TRACK_Retrig),1
    1043.  00:4624  C3 18 45            	jp	_rdc
    1044.  00:4627                      	
    1045.  00:4627                      
    1046.  00:4627                      _CHIPcmd3_RE_port_tone:
    1047.  00:4627  DD 77 12            	ld	(ix+TRACK_Retrig),a
    1048.  00:462A  C3 38 46            	jp	_CHIPcmd3_port_tone_cont	
    1049.  00:462D                      _CHIPcmd3_port_tone:
    1050.  00:462D                      	; in:	[A] contains the paramvalue
    1051.  00:462D                      	; 
    1052.  00:462D                      	; ! do not change	[BC] this is the data pointer
    1053.  00:462D                      	;--------------------------------------------------
    1054.  00:462D                      	; This command is	used together with a note, and 
    1055.  00:462D                      	; will bend	the current	pitch	at the given speed
    1056.  00:462D                      	; towards the specified	note.	Example:
    1057.  00:462D                      	;	C-4 1....
    1058.  00:462D                      	;	F-4 ..305 (bend the note up towards	F-4)
    1059.  00:462D                      	;	... ..300 (continue to slide up, until F-4
    1060.  00:462D                      	;						  is reached
    1061.  00:462D                      
    1062.  00:462D                      
    1063.  00:462D  DD 77 08            	ld	(ix+TRACK_cmd_3),a
    1064.  00:4630  DD 36 0F 02         	ld	(ix+TRACK_Timer),2
    1065.  00:4634  DD 36 12 01         	ld	(ix+TRACK_Retrig),1
    1066.  00:4638                      _CHIPcmd3_port_tone_cont:
    1067.  00:4638  CB DA               	set	B_TRGCMD,d
    1068.  00:463A  CB CA               	set	B_ACTNOT,d
    1069.  00:463C                      	;--- Check if we have a	note on the	same event
    1070.  00:463C  CB 42               	bit	B_TRGNOT,d
    1071.  00:463E  CA 18 45            	jp	z,_rdc
    1072.  00:4641                      
    1073.  00:4641                      	;-- get the	previous note freq
    1074.  00:4641  3A 17 C0            	ld	a,(replay_previous_note)
    1075.  00:4644  87                  	add	a
    1076.  00:4645                      
    1077.  00:4645  D9                  	exx
    1078.  00:4646  2A 1C C0            	ld	hl,(replay_Tonetable)	;TRACK_ToneTable
    1079.  00:4649  85                  	add	a,l
    1080.  00:464A  6F                  	ld	l,a
    1081.  00:464B  D2 4F 46            	jp	nc,.skip
    1082.  00:464E  24                  	inc	h
    1083.  00:464F                      .skip:
    1084.  00:464F  5E                  	ld	e,(hl)
    1085.  00:4650  23                  	inc	hl
    1086.  00:4651  56                  	ld	d,(hl)
    1087.  00:4652                      
    1088.  00:4652                      	; add	the toneadd
    1089.  00:4652  DD 6E 00            	ld	l,(ix+TRACK_cmd_ToneSlideAdd)
    1090.  00:4655  DD 66 01            	ld	h,(ix+TRACK_cmd_ToneSlideAdd+1)
    1091.  00:4658                      
    1092.  00:4658  19                  	add	hl,de	
    1093.  00:4659  EB                  	ex	de,hl				; store current freq in	[de]
    1094.  00:465A                      
    1095.  00:465A                      	;--- get the current note freq
    1096.  00:465A  DD 7E F6            	ld	a,(ix+TRACK_Note)
    1097.  00:465D  87                  	add	a
    1098.  00:465E  2A 1C C0            	ld	hl,(replay_Tonetable)	;TRACK_ToneTable
    1099.  00:4661  85                  	add	a,l
    1100.  00:4662  6F                  	ld	l,a
    1101.  00:4663  D2 67 46            	jp	nc,.skip2
    1102.  00:4666  24                  	inc	h
    1103.  00:4667                      .skip2:
    1104.  00:4667  7E                  	ld	a,(hl)
    1105.  00:4668  23                  	inc	hl
    1106.  00:4669  66                  	ld	h,(hl)
    1107.  00:466A  6F                  	ld	l,a				; destination freq in [hl]
    1108.  00:466B                      	
    1109.  00:466B                      	;--- Calculate the delta
    1110.  00:466B  AF                  	xor	a
    1111.  00:466C  EB                  	ex	de,hl
    1112.  00:466D  ED 52               	sbc	hl,de				; results in pos/neg delta
    1113.  00:466F                      	
    1114.  00:466F  DD 75 00            	ld	(ix+TRACK_cmd_ToneSlideAdd),l
    1115.  00:4672  DD 74 01            	ld	(ix+TRACK_cmd_ToneSlideAdd+1),h	
    1116.  00:4675  D9                  	exx
    1117.  00:4676                      	
    1118.  00:4676  CB 82               	res	B_TRGNOT,d
    1119.  00:4678                      
    1120.  00:4678  C3 18 45            	jp	_rdc	
    1121.  00:467B                      
    1122.  00:467B                      	
    1123.  00:467B                      _CHIPcmd4_vibrato:
    1124.  00:467B                      	; in:	[A] contains the paramvalue
    1125.  00:467B                      	; 
    1126.  00:467B                      	; ! do not change	[BC] this is the data pointer
    1127.  00:467B                      	;--------------------------------------------------
    1128.  00:467B                      	; Vibrato with speed x and depth y.	This command 
    1129.  00:467B                      	; will oscillate the frequency of the current note
    1130.  00:467B                      	; with a sine wave. (You can change	the vibrato
    1131.  00:467B                      	; waveform to a triangle wave, a square wave, or a
    1132.  00:467B                      	; random table by	using	the E4x command).
    1133.  00:467B                      	;--- Init values
    1134.  00:467B  5F                  	ld	e,a
    1135.  00:467C  E6 07               	and	$07
    1136.  00:467E                      
    1137.  00:467E  DD 77 09            	ld	(ix+TRACK_cmd_4_depth),a
    1138.  00:4681  7B                  	ld	a,e
    1139.  00:4682  1F                  	rra
    1140.  00:4683  1F                  	rra
    1141.  00:4684  1F                  	rra
    1142.  00:4685  1F                  	rra
    1143.  00:4686  E6 0F               	and	$0f
    1144.  00:4688  DD 77 0A            	ld	(ix+TRACK_cmd_4_step),a
    1145.  00:468B  ED 44               	neg	
    1146.  00:468D  DD 77 10            	ld	(ix+TRACK_Step),a
    1147.  00:4690                      	
    1148.  00:4690  CB DA               	set	B_TRGCMD,d
    1149.  00:4692  DD 36 12 01         	ld	(ix+TRACK_Retrig),1
    1150.  00:4696  C3 18 45            	jp	_rdc	
    1151.  00:4699                      
    1152.  00:4699                      
    1153.  00:4699                      _CHIPcmd5_vibrato_port_tone:
    1154.  00:4699                      	; in:	[A] contains the paramvalue
    1155.  00:4699                      	; 
    1156.  00:4699                      	; ! do not change	[BC] this is the data pointer
    1157.  00:4699                      	;--------------------------------------------------
    1158.  00:4699                      	; portTone	+ volumeslide
    1159.  00:4699                      	;--- Init values
    1160.  00:4699                      _CHIPcmd6_vibrato_vol:
    1161.  00:4699                      	; in:	[A] contains the paramvalue
    1162.  00:4699                      	; 
    1163.  00:4699                      	; ! do not change	[BC] this is the data pointer
    1164.  00:4699                      	;--------------------------------------------------
    1165.  00:4699                      _CHIPcmd7_vol_slide:
    1166.  00:4699                      	; in:	[A] contains the paramvalue
    1167.  00:4699                      	; 
    1168.  00:4699                      	; ! do not change	[BC] this is the data pointer
    1169.  00:4699                      	;--------------------------------------------------
    1170.  00:4699                      	; slide the	volume up or down	1 step.
    1171.  00:4699                      	; The	x or y param  set	the delay*2	(x=up,y=down)
    1172.  00:4699                      	; With A00 the previous	value	is used.
    1173.  00:4699                      	
    1174.  00:4699  DD 77 0C            	ld	(ix+TRACK_cmd_A),a
    1175.  00:469C  CB DA               	set	B_TRGCMD,d
    1176.  00:469E  DD 36 0F 01         	ld	(ix+TRACK_Timer),1
    1177.  00:46A2  DD 36 12 01         	ld	(ix+TRACK_Retrig),1
    1178.  00:46A6  C3 18 45            	jp	_rdc
    1179.  00:46A9                      
    1180.  00:46A9                      
    1181.  00:46A9                      
    1182.  00:46A9                      _CHIPcmd8_macro_offset:
    1183.  00:46A9                      	; in:	[A] contains the paramvalue
    1184.  00:46A9                      	; 
    1185.  00:46A9                      	; ! do not change	[BC] this is the data pointer
    1186.  00:46A9                      	;--------------------------------------------------
    1187.  00:46A9                      	; This command, when used together with a	note,	
    1188.  00:46A9                      	; will start playing the sample at the position	xx 
    1189.  00:46A9                      	; (instead of position 0). If	xx is	00 (900), the 
    1190.  00:46A9                      	; previous value will be used.
    1191.  00:46A9                      
    1192.  00:46A9                      	;--- Init values
    1193.  00:46A9                      	; NOT SUPPORTED ANYMORE
    1194.  00:46A9  C3 18 45            	jp	_rdc
    1195.  00:46AC                      
    1196.  00:46AC                      
    1197.  00:46AC                      
    1198.  00:46AC                      
    1199.  00:46AC                      _CHIPcmd9_env_shape:
    1200.  00:46AC                      ;	set	B_TRGENV,d
    1201.  00:46AC  32 B3 C1            	ld	(AY_regEnvShape),a
    1202.  00:46AF  DD 36 12 01         	ld	(ix+TRACK_Retrig),1
    1203.  00:46B3  C3 18 45            	jp	_rdc
    1204.  00:46B6                      
    1205.  00:46B6                      
    1206.  00:46B6                      	; in:	[A] contains the paramvalue
    1207.  00:46B6                      	; 
    1208.  00:46B6                      	; ! do not change	[BC] this is the data pointer
    1209.  00:46B6                      	;--------------------------------------------------
    1210.  00:46B6                      	; This command set the envelope frequency using a
    1211.  00:46B6                      	; multiplier value (00-ff)
    1212.  00:46B6                      _CHIPcmdA_env_mul:
    1213.  00:46B6  57                  	ld	d,a
    1214.  00:46B7  AF                  	xor	a
    1215.  00:46B8  CB 3A               	srl	d
    1216.  00:46BA  1F                  	rra	
    1217.  00:46BB  CB 3A               	srl	d
    1218.  00:46BD  1F                  	rra		
    1219.  00:46BE  CB 3A               	srl	d
    1220.  00:46C0  1F                  	rra	
    1221.  00:46C1  32 B1 C1            	ld	(AY_regEnvL),a
    1222.  00:46C4  7A                  	ld	a,d
    1223.  00:46C5  32 B2 C1            	ld	(AY_regEnvH),a
    1224.  00:46C8                      	
    1225.  00:46C8  C3 18 45            	jp	_rdc	
    1226.  00:46CB                      
    1227.  00:46CB                      _CHIPcmd11_sustain_on:
    1228.  00:46CB  CB EA               	set	B_SUST,d
    1229.  00:46CD  0B                  	dec	bc
    1230.  00:46CE  C3 18 45            	jp	_rdc	
    1231.  00:46D1                      	
    1232.  00:46D1                      _CHIPcmd12_sustain_off:
    1233.  00:46D1  CB AA               	res	B_SUST,d
    1234.  00:46D3  0B                  	dec	bc
    1235.  00:46D4  C3 18 45            	jp	_rdc	
    1236.  00:46D7                      	
    1237.  00:46D7                      	
    1238.  00:46D7                      
    1239.  00:46D7                      _CHIPcmdCd_drum:
    1240.  00:46D7  A7                  	and 	a		; drum reset not supported
    1241.  00:46D8  28 1E               	jr 	z,0f
    1242.  00:46DA                      	
    1243.  00:46DA                      	; Get the base addres of the drum list
    1244.  00:46DA  87                  	add 	a 
    1245.  00:46DB  2A 09 C0            	ld	hl,(replay_drumbase)
    1246.  00:46DE  85                  	add	a,l 
    1247.  00:46DF  D2 E3 46            	jp	nc,99f
    1248.  00:46E2  24                  	inc	h 
    1249.  00:46E3                      99:
    1250.  00:46E3  6F                  	ld	l,a
    1251.  00:46E4                      	; Get the start of the drum macro
    1252.  00:46E4  7E                  	ld	a,(hl)
    1253.  00:46E5  23                  	inc	hl
    1254.  00:46E6  66                  	ld	h,(hl)
    1255.  00:46E7  6F                  	ld	l,a
    1256.  00:46E8                      	
    1257.  00:46E8                      	; Store the length
    1258.  00:46E8  7E                  	ld	a,(hl)
    1259.  00:46E9  32 51 C2            	ld	(FM_DRUM_LEN),a
    1260.  00:46EC  23                  	inc	hl
    1261.  00:46ED                      	; Store the address
    1262.  00:46ED  7D                  	ld	a,l
    1263.  00:46EE  32 52 C2            	ld 	(FM_DRUM_MACRO),a
    1264.  00:46F1  7C                  	ld	a,h
    1265.  00:46F2  32 53 C2            	ld	(FM_DRUM_MACRO+1),a
    1266.  00:46F5  C3 18 45            	jp	_rdc		
    1267.  00:46F8                      0:
    1268.  00:46F8  0B                  	dec	bc
    1269.  00:46F9  C3 18 45            	jp	_rdc		
    1270.  00:46FC                      	
    1271.  00:46FC                      
    1272.  00:46FC                      _CHIPcmd13_short_arp:
    1273.  00:46FC  DD 77 0E            	ld	(ix+TRACK_cmd_E),a		; store the halve not to add
    1274.  00:46FF  DD 36 0F 00         	ld	(ix+TRACK_Timer),0
    1275.  00:4703                      
    1276.  00:4703  CB DA               	set	B_TRGCMD,d		; command active
    1277.  00:4705  C3 18 45            	jp	_rdc	
    1278.  00:4708                      	
    1279.  00:4708                      	
    1280.  00:4708                      _CHIPcmd14_fine_up:
    1281.  00:4708                      _CHIPcmd15_fine_down:
    1282.  00:4708  DD 77 0E            	ld	(ix+TRACK_cmd_E),a
    1283.  00:470B  DD 36 0F 02         	ld	(ix+TRACK_Timer),2
    1284.  00:470F  CB DA               	set	B_TRGCMD,d		; command active
    1285.  00:4711                      
    1286.  00:4711  C3 18 45            	jp	_rdc	
    1287.  00:4714                      
    1288.  00:4714                      
    1289.  00:4714                      _CHIPcmd16_vib_ctrl:
    1290.  00:4714  21 86 4E            	ld	hl,TRACK_Vibrato_sine
    1291.  00:4717  FE 01               	cp	1
    1292.  00:4719  DA 31 47            	jp	c,_cmd16_sine
    1293.  00:471C  CA 28 47            	jp	z,_cmd16_tri
    1294.  00:471F                      _cmd16_pulse:
    1295.  00:471F  21 C6 4E            	ld	hl,TRACK_Vibrato_pulse
    1296.  00:4722  22 1A C0            	ld	(replay_vib_table),hl
    1297.  00:4725  C3 18 45            	jp	_rdc
    1298.  00:4728                      _cmd16_tri:
    1299.  00:4728  21 A6 4E            	ld	hl,TRACK_Vibrato_triangle
    1300.  00:472B  22 1A C0            	ld	(replay_vib_table),hl
    1301.  00:472E  C3 18 45            	jp	_rdc	
    1302.  00:4731                      
    1303.  00:4731                      _cmd16_sine:
    1304.  00:4731  21 86 4E            	ld	hl,TRACK_Vibrato_sine
    1305.  00:4734  22 1A C0            	ld	(replay_vib_table),hl
    1306.  00:4737  C3 18 45            	jp	_rdc
    1307.  00:473A                      
    1308.  00:473A                      
    1309.  00:473A                      
    1310.  00:473A                      _CHIPcmd17_track_detune:
    1311.  00:473A                      	; This command sets the	detune of the track.
    1312.  00:473A  5F                  	ld	e,a
    1313.  00:473B  E6 07               	and	0x07		; low	4 bits is value
    1314.  00:473D  CB 5B               	bit	3,e		; Center around 8
    1315.  00:473F  CA 4F 47            	jp	z,.pos
    1316.  00:4742  3C                  	inc	a
    1317.  00:4743  ED 44               	neg			; make correct value
    1318.  00:4745  DD 77 04            	ld	(ix+TRACK_cmd_detune),a
    1319.  00:4748  DD 36 05 FF         	ld	(ix+TRACK_cmd_detune+1),0xff
    1320.  00:474C                      
    1321.  00:474C  C3 18 45            	jp	_rdc	
    1322.  00:474F                      
    1323.  00:474F                      .pos:
    1324.  00:474F  DD 77 04            	ld	(ix+TRACK_cmd_detune),a
    1325.  00:4752  DD 36 05 00         	ld	(ix+TRACK_cmd_detune+1),0x00	
    1326.  00:4756                      
    1327.  00:4756  C3 18 45            	jp	_rdc	
    1328.  00:4759                      
    1329.  00:4759                      
    1330.  00:4759                      ; This command sets the	detune of the track.	
    1331.  00:4759                      _CHIPcmd18_transpose:
    1332.  00:4759  5F                  	ld	e,a
    1333.  00:475A  87                  	add	a
    1334.  00:475B  21 C6 4D            	ld	hl,TRACK_ToneTable		;(replay_Tonetable)
    1335.  00:475E  E6 0F               	and	15		; low	4 bits is value
    1336.  00:4760  CB 5B               	bit	3,e		; Center around 8
    1337.  00:4762  CA 73 47            	jp	z,.pos
    1338.  00:4765                      
    1339.  00:4765                      	;neg	
    1340.  00:4765  ED 44               	neg	
    1341.  00:4767  85                  	add	a,l
    1342.  00:4768  6F                  	ld	l,a
    1343.  00:4769  D2 6D 47            	jp	nc,.skip1
    1344.  00:476C  25                  	dec	h
    1345.  00:476D                      .skip1:
    1346.  00:476D  22 1C C0            	ld	(replay_Tonetable),hl
    1347.  00:4770  C3 18 45            	jp	_rdc
    1348.  00:4773                      ; pos
    1349.  00:4773                      .pos:	
    1350.  00:4773  85                  	add	a,l
    1351.  00:4774  6F                  	ld	l,a
    1352.  00:4775  D2 79 47            	jp	nc,.skip2
    1353.  00:4778  24                  	inc	h
    1354.  00:4779                      .skip2:
    1355.  00:4779  22 1C C0            	ld	(replay_Tonetable),hl
    1356.  00:477C  C3 18 45            	jp	_rdc
    1357.  00:477F                      
    1358.  00:477F                      _CHIPcmdXX_note_cut:
    1359.  00:477F  CB DA               	set	B_TRGCMD,d
    1360.  00:4781  3C                  	inc	a
    1361.  00:4782  DD 77 0F            	ld	(ix+TRACK_Timer),a		; set	the timer to param y
    1362.  00:4785  C3 18 45            	jp 	_rdc
    1363.  00:4788                      
    1364.  00:4788                      
    1365.  00:4788                      _CHIPcmd19_note_delay:
    1366.  00:4788  CB 42               	bit	B_TRGNOT,d		; is there a note	in this eventstep?
    1367.  00:478A  CA 18 45            	jp	z,_rdc
    1368.  00:478D                      
    1369.  00:478D  CB DA               	set	B_TRGCMD,d					; command active
    1370.  00:478F  3C                  	inc	a
    1371.  00:4790  DD 77 0F            	ld	(ix+TRACK_Timer),a			; set	the timer to param y
    1372.  00:4793  DD 7E F6            	ld	a,(ix+TRACK_Note)
    1373.  00:4796  DD 77 0E            	ld	(ix+TRACK_cmd_E),a			; store the	new note
    1374.  00:4799  3A 17 C0            	ld	a,(replay_previous_note)
    1375.  00:479C  DD 77 F6            	ld	(ix+TRACK_Note),a				; restore the old	note
    1376.  00:479F  DD CB F9 86         	res	B_TRGNOT,(ix+TRACK_Flags)		; reset any	triggernote
    1377.  00:47A3                      
    1378.  00:47A3  C3 18 45            	jp	_rdc	
    1379.  00:47A6                      
    1380.  00:47A6                      
    1381.  00:47A6                      
    1382.  00:47A6                      _CHIPcmd1A_trigger:
    1383.  00:47A6  32 02 C0            	ld	(replay_trigger),a
    1384.  00:47A9  C3 18 45            	jp	_rdc		
    1385.  00:47AC                      
    1386.  00:47AC                      
    1387.  00:47AC                      _CHIPcmd1B_speed:
    1388.  00:47AC  32 0F C0            	ld	(replay_speed),a
    1389.  00:47AF                      	;--- Reset Timer == 0
    1390.  00:47AF  CB 3F               	srl	a				; divide speed with 2
    1391.  00:47B1  5F                  	ld	e,a
    1392.  00:47B2  3E 00               	ld	a,0				
    1393.  00:47B4  8F                  	adc	a				; store carry of shift as subtimer
    1394.  00:47B5  32 10 C0            	ld	(replay_speed_subtimer),a
    1395.  00:47B8  83                  	add	a,e
    1396.  00:47B9  32 11 C0            	ld	(replay_speed_timer),a
    1397.  00:47BC                      
    1398.  00:47BC  C3 18 45            	jp	_rdc	
    1399.  00:47BF                      	
    1400.  00:47BF                      _CHIPcmd1C_notelink:
    1401.  00:47BF  CB 82               	res	B_TRGNOT,d
    1402.  00:47C1  0B                  	dec 	bc
    1403.  00:47C2  C3 18 45            	jp	_rdc	
    1404.  00:47C5                      _CHIPcmd1C_call:
    1405.  00:47C5                      _CHIPcmd1D_ret:
    1406.  00:47C5                      	;< not implemented yet>
    1407.  00:47C5  0B                  	dec 	bc
    1408.  00:47C6  C3 18 45            	jp	_rdc	
    1409.  00:47C9                      
    1410.  00:47C9                      
    1411.  00:47C9                      
    1412.  00:47C9                      
    1413.  00:47C9                      _CHIPcmd0_RE_arpeggio:
    1414.  00:47C9  DD 36 0F 00         	ld	(ix+TRACK_Timer),0
    1415.  00:47CD                      	
    1416.  00:47CD                      _CHIPcmd1_RE_port_up:	
    1417.  00:47CD                      _CHIPcmd2_RE_port_down:
    1418.  00:47CD                      _CHIPcmd4_RE_vibrato:
    1419.  00:47CD  CB DA               	set	B_TRGCMD,d
    1420.  00:47CF  DD 77 12            	ld	(ix+TRACK_Retrig),a
    1421.  00:47D2  C3 18 45            	jp	_rdc		
    1422.  00:47D5                      	
    1423.  00:47D5                      _CHIPcmd5_RE_vibrato_port_tone:
    1424.  00:47D5                      _CHIPcmd6_RE_vibrato_vol:
    1425.  00:47D5                      _CHIPcmd7_RE_vol_slide:
    1426.  00:47D5  CB DA               	set	B_TRGCMD,d
    1427.  00:47D7  DD 36 0F 01         	ld	(ix+TRACK_Timer),1
    1428.  00:47DB  DD 77 12            	ld	(ix+TRACK_Retrig),a
    1429.  00:47DE  C3 18 45            	jp	_rdc
    1430.  00:47E1                      		
    1431.  00:47E1                      _CHIPcmd8_RE_macro_offset:	
    1432.  00:47E1  CB DA               	set	B_TRGCMD,d
    1433.  00:47E3  DD 36 0F 02         	ld	(ix+TRACK_Timer),2
    1434.  00:47E7  DD 77 12            	ld	(ix+TRACK_Retrig),a
    1435.  00:47EA  C3 18 45            	jp	_rdc			
    1436.  00:47ED                      
    1437.  00:47ED                      _CHIPcmd9_RE_env_shape:
    1438.  00:47ED                      ;	set	B_TRGENV,d
    1439.  00:47ED  DD 77 12            	ld	(ix+TRACK_Retrig),a
    1440.  00:47F0  C3 18 45            	jp	_rdc	
    1441.  00:47F3                      
    1442.  00:47F3                      
    1443.  00:47F3                      
    1444.  00:47F3                      ;===========================================================
    1445.  00:47F3                      ; ---replay_route
    1446.  00:47F3                      ; Output the data	to the CHIP	registers
    1447.  00:47F3                      ; 
    1448.  00:47F3                      ; in HL is the current tone freq
    1449.  00:47F3                      ; in D is TRACK_FLAGS  
    1450.  00:47F3                      ;===========================================================
    1451.  00:47F3                      replay_process_chan_AY:
    1452.  00:47F3                      
    1453.  00:47F3                      	;-- set the	mixer	right
    1454.  00:47F3  21 54 C2            	ld	hl,FM_regMIXER   
    1455.  00:47F6  CB 0E               	rrc	(hl)
    1456.  00:47F8                      
    1457.  00:47F8                      	;===== 
    1458.  00:47F8                      	; Speed equalization check
    1459.  00:47F8                      	;=====
    1460.  00:47F8  3A 65 C0            	ld	a,(equalization_flag)			; check for speed equalization
    1461.  00:47FB  A7                  	and	a
    1462.  00:47FC  C2 3F 48            	jp	nz,_pcAY_noNoteTrigger			; Only process instruments
    1463.  00:47FF                      	
    1464.  00:47FF                      	
    1465.  00:47FF                      	;=====
    1466.  00:47FF                      	; COMMAND
    1467.  00:47FF                      	;=====
    1468.  00:47FF  CB 5A               	bit	B_TRGCMD,d	;(ix+TRACK_Flags)
    1469.  00:4801  CA 16 48            	jp	z,_pcAY_noCommand
    1470.  00:4804                      	
    1471.  00:4804  21 92 49            	ld	hl,_pcAY_cmdlist-26
    1472.  00:4807  DD 7E F0            	ld	a,(ix+TRACK_Command)
    1473.  00:480A  87                  	add	a
    1474.  00:480B  85                  	add	a,l
    1475.  00:480C  6F                  	ld	l,a
    1476.  00:480D  D2 11 48            	jp	nc,.skip
    1477.  00:4810  24                  	inc	h
    1478.  00:4811                      .skip:
    1479.  00:4811  7E                  	ld	a,(hl)
    1480.  00:4812  23                  	inc	hl
    1481.  00:4813  66                  	ld	h,(hl)
    1482.  00:4814  6F                  	ld	l,a	
    1483.  00:4815  E9                  	jp	(hl)
    1484.  00:4816                      	
    1485.  00:4816                      _pcAY_noCommand:	
    1486.  00:4816                      _pcAY_commandEND:
    1487.  00:4816                      
    1488.  00:4816                      	;=====
    1489.  00:4816                      	; NOTE
    1490.  00:4816                      	;=====
    1491.  00:4816                      	;--- Check if we need to trigger a new note
    1492.  00:4816  CB 42               	bit	B_TRGNOT,d	;(ix+TRACK_Flags)
    1493.  00:4818  CA 3F 48            	jp	z,_pcAY_noNoteTrigger
    1494.  00:481B                      	
    1495.  00:481B                      
    1496.  00:481B                      _pcAY_triggerNote:	
    1497.  00:481B                      	;--- get new Note
    1498.  00:481B  CB 82               	res	B_TRGNOT,d		;(ix+TRACK_Flags)		; reset trigger note flag
    1499.  00:481D  CB CA               	set	B_ACTNOT,d		;(ix+TRACK_Flags)		; set	note active	flag
    1500.  00:481F                      
    1501.  00:481F  DD 6E F3            	ld	l,(ix+TRACK_MacroStart)
    1502.  00:4822  DD 66 F4            	ld	h,(ix+TRACK_MacroStart+1)
    1503.  00:4825                      	;--- Store the macro start	
    1504.  00:4825  DD 75 F1            	ld	(ix+TRACK_MacroPointer),l
    1505.  00:4828  DD 74 F2            	ld	(ix+TRACK_MacroPointer+1),h	
    1506.  00:482B                      
    1507.  00:482B  21 00 00            	ld	hl,0
    1508.  00:482E  ED 73 00 C0         	ld	(_SP_Storage),sp
    1509.  00:4832  DD F9               	ld	sp,ix
    1510.  00:4834  F1                  	pop	af
    1511.  00:4835  F1                  	pop	af
    1512.  00:4836  E5                  	push	hl
    1513.  00:4837  E5                  	push	hl		
    1514.  00:4838  E5                  	push	hl
    1515.  00:4839  E5                  	push	hl
    1516.  00:483A  E5                  	push	hl
    1517.  00:483B  ED 7B 00 C0         	ld	sp,(_SP_Storage)
    1518.  00:483F                      
    1519.  00:483F                      ;	ld	(ix+TRACK_ToneAdd),0
    1520.  00:483F                      ;	ld	(ix+TRACK_ToneAdd+1),0
    1521.  00:483F                      ;	ld	(ix+TRACK_VolumeAdd),0	
    1522.  00:483F                      ;	ld	(ix+TRACK_cmd_ToneAdd),0
    1523.  00:483F                      ;	ld	(ix+TRACK_cmd_ToneAdd+1),0
    1524.  00:483F                      ;	ld	(ix+TRACK_cmd_VolumeAdd),0
    1525.  00:483F                      ;	ld	(ix+TRACK_Noise),0
    1526.  00:483F                      ;	ld	(ix+TRACK_cmd_ToneSlideAdd),0
    1527.  00:483F                      ;	ld	(ix+TRACK_cmd_ToneSlideAdd+1),0
    1528.  00:483F                      
    1529.  00:483F                      _pcAY_noNoteTrigger:
    1530.  00:483F                      	;Get note freq
    1531.  00:483F  DD 7E F6            	ld	a,(ix+TRACK_Note)
    1532.  00:4842  DD 86 0B            	add	a,(ix+TRACK_cmd_NoteAdd)
    1533.  00:4845  87                  	add	a
    1534.  00:4846  08                  	ex	af,af'			;'store the	note offset
    1535.  00:4847  DD 36 0B 00         	ld	(ix+TRACK_cmd_NoteAdd),0	
    1536.  00:484B                      	
    1537.  00:484B                      
    1538.  00:484B                      	;==============
    1539.  00:484B                      	; Macro instrument
    1540.  00:484B                      	;==============
    1541.  00:484B  CB 4A               	bit	B_ACTNOT,d			;(ix+TRACK_Flags)
    1542.  00:484D  CA A7 49            	jp	z,_pcAY_noNoteActive
    1543.  00:4850                      	
    1544.  00:4850                      	;--- Get the macro len and loop
    1545.  00:4850  DD 6E F1            	ld	l,(ix+TRACK_MacroPointer)
    1546.  00:4853  DD 66 F2            	ld	h,(ix+TRACK_MacroPointer+1)
    1547.  00:4856                      
    1548.  00:4856  5E                  	ld	e,(hl)				; info byte
    1549.  00:4857  23                  	inc	hl
    1550.  00:4858  CB 43               	bit	0,e					; Volume change
    1551.  00:485A  C2 63 48            	jp	nz,_vol_change
    1552.  00:485D  DD 7E FD            	ld	a,(ix+TRACK_VolumeAdd)
    1553.  00:4860  C3 8B 48            	jp	_noEnv
    1554.  00:4863                      	
    1555.  00:4863                      	;--- Volume change
    1556.  00:4863                      _vol_change:
    1557.  00:4863  7E                  	ld	a,(hl)
    1558.  00:4864  23                  	inc	hl
    1559.  00:4865                      	
    1560.  00:4865  CB 4B               	bit	1,e
    1561.  00:4867  CA 7D 48            	jp	z,_vol_base
    1562.  00:486A                      _vol_rel:
    1563.  00:486A  DD 86 FD            	add	 (ix+TRACK_VolumeAdd)
    1564.  00:486D  FE 10               	cp	16
    1565.  00:486F  DA 7D 48            	jp	c,_vol_base
    1566.  00:4872  FE 80               	cp	128
    1567.  00:4874  D2 7C 48            	jp	nc,.skip
    1568.  00:4877  3E 0F               	ld	a,$0f
    1569.  00:4879  C3 7D 48            	jp	_vol_base
    1570.  00:487C                      .skip:	
    1571.  00:487C  AF                  	xor	a
    1572.  00:487D                      	
    1573.  00:487D                      _vol_base:
    1574.  00:487D  DD 77 FD            	ld	(ix+TRACK_VolumeAdd),a
    1575.  00:4880                      
    1576.  00:4880                      	;---- envelope check
    1577.  00:4880                      	; is done here to be able to continue
    1578.  00:4880                      	; macro volume values.
    1579.  00:4880                      ;	bit	B_TRGENV,d		;'(IX+TRACK_Flags)
    1580.  00:4880  CA 8B 48            	jp	z,_noEnv		; if not set then normal volume calculation
    1581.  00:4883  3E 10               	ld	a,16			; set volume to 16 == envelope
    1582.  00:4885  32 45 C2            	ld	(FM_regVOLF),a
    1583.  00:4888  C3 C5 48            	jp	_noVolume	
    1584.  00:488B                      	
    1585.  00:488B                      _noEnv:
    1586.  00:488B  DD B6 F7            	or	(ix+TRACK_Volume)
    1587.  00:488E  4F                  	ld	c,a			; store volume add
    1588.  00:488F                      
    1589.  00:488F  DD 7E FF            	ld 	a,(ix+TRACK_cmd_VolumeAdd)
    1590.  00:4892  17                  	rla				; shift to detect shift
    1591.  00:4893  DA A0 48            	jp 	c,.sub_Vadd		
    1592.  00:4896                      .add_Vadd:  
    1593.  00:4896  81                  	add	a,c
    1594.  00:4897  D2 AC 48            	jp	nc,_Vadd
    1595.  00:489A  79                  	ld	a,c
    1596.  00:489B  F6 F0               	or	0xf0
    1597.  00:489D  C3 AC 48            	jp	_Vadd	
    1598.  00:48A0                      .sub_Vadd:	
    1599.  00:48A0  47                  	ld	b,a
    1600.  00:48A1  AF                  	xor	a
    1601.  00:48A2  90                  	sub 	b
    1602.  00:48A3  47                  	ld	b,a
    1603.  00:48A4  79                  	ld	a,c
    1604.  00:48A5  90                  	sub	a,b
    1605.  00:48A6  D2 AC 48            	jp 	nc,.skip2
    1606.  00:48A9  79                  	ld	a,c
    1607.  00:48AA  E6 0F                	and	0x0f
    1608.  00:48AC                      .skip2:
    1609.  00:48AC                      
    1610.  00:48AC                      	
    1611.  00:48AC                      	;-- next is _Vadd
    1612.  00:48AC                      _Vadd:
    1613.  00:48AC                      	;--- apply main volume balance
    1614.  00:48AC  ED 4B 18 C0         	ld	bc,(replay_mainvol)
    1615.  00:48B0  81                  	add	a,c
    1616.  00:48B1  4F                  	ld	c,a
    1617.  00:48B2  D2 B6 48            	jp	nc,.skip
    1618.  00:48B5  04                  	inc	b
    1619.  00:48B6                      .skip:
    1620.  00:48B6  0A                  	ld	a,(bc)	
    1621.  00:48B7                      	; Test which CHIP.
    1622.  00:48B7  CB 7A               	bit	B_PSGFM,d		;(ix+TRACK_Flags)
    1623.  00:48B9  C2 C0 48            	jp	nz,.skip2
    1624.  00:48BC  1F                  	rra
    1625.  00:48BD  1F                  	rra
    1626.  00:48BE  1F                  	rra
    1627.  00:48BF  1F                  	rra
    1628.  00:48C0                      .skip2:
    1629.  00:48C0  E6 0F               	and	0x0f
    1630.  00:48C2  32 45 C2            	ld	(FM_regVOLF),a
    1631.  00:48C5                      
    1632.  00:48C5                      _noVolume:
    1633.  00:48C5                      	;-------------------------------
    1634.  00:48C5                      	;
    1635.  00:48C5                      	; NOISE
    1636.  00:48C5                      	;
    1637.  00:48C5                      	;-------------------------------
    1638.  00:48C5  CB 7B               	bit 	7,e			; test if noise
    1639.  00:48C7  CA EF 48            	jp	z,_noNoise
    1640.  00:48CA                      	
    1641.  00:48CA                      	;--- prevent FM and noise
    1642.  00:48CA  CB 7A               	bit	B_PSGFM,d		;(ix+TRACK_Flags)
    1643.  00:48CC  C2 00 49            	jp	nz,_noLink		; Noise and Link not at the same time
    1644.  00:48CF                      
    1645.  00:48CF                      	;--- Set the mixer for noise
    1646.  00:48CF  3A 54 C2            	ld	a,(FM_regMIXER)
    1647.  00:48D2  F6 80               	or	128
    1648.  00:48D4  32 54 C2            	ld	(FM_regMIXER),a
    1649.  00:48D7                      
    1650.  00:48D7  CB 6B               	bit	5,e
    1651.  00:48D9  CA 00 49            	jp	z,_noLink
    1652.  00:48DC  7E                  	ld	a,(hl)	; get the deviation	
    1653.  00:48DD  23                  	inc	hl
    1654.  00:48DE  CB 73               	bit	6,e
    1655.  00:48E0  CA E6 48            	jp	z,.skip
    1656.  00:48E3  DD 86 FE            	add	(ix+TRACK_Noise)
    1657.  00:48E6                      .skip:	
    1658.  00:48E6  DD 77 FE            	ld	(ix+TRACK_Noise),a
    1659.  00:48E9  32 AC C1            	ld	(AY_regNOISE),a
    1660.  00:48EC  C3 00 49            	jp	_noLink
    1661.  00:48EF                      	
    1662.  00:48EF                      _noNoise:
    1663.  00:48EF                      	;-------------------------------
    1664.  00:48EF                      	;
    1665.  00:48EF                      	; VoiceLink
    1666.  00:48EF                      	;
    1667.  00:48EF                      	;-------------------------------
    1668.  00:48EF  3E 60               	ld	a,$60		; Mask only the noise bits
    1669.  00:48F1  A2                  	and	d
    1670.  00:48F2  FE 40               	cp	$40		; 0100 000 is link value
    1671.  00:48F4  C2 00 49            	jp	nz,_noLink
    1672.  00:48F7                      
    1673.  00:48F7  7E                  	ld	a,(hl)				; get the new hw voice	
    1674.  00:48F8  23                  	inc	hl	
    1675.  00:48F9  DD CB F9 F6         	set 	B_TRGVOI,(ix+TRACK_Flags)
    1676.  00:48FD  DD 77 F8            	ld	(ix+TRACK_Voice),a			; set new voice to be loaded
    1677.  00:4900                      
    1678.  00:4900                      _noLink
    1679.  00:4900                      	;-------------------------------
    1680.  00:4900                      	;
    1681.  00:4900                      	; TONE
    1682.  00:4900                      	;
    1683.  00:4900                      	;-------------------------------
    1684.  00:4900  CB 63               	bit	4,e		; do we have tone?
    1685.  00:4902  CA 0D 49            	jp	z,_pcAY_noTone
    1686.  00:4905                      
    1687.  00:4905                      	;-- enable tone output
    1688.  00:4905  3A 54 C2            	ld	a,(FM_regMIXER)
    1689.  00:4908  F6 10               	or	16
    1690.  00:490A  32 54 C2            	ld	(FM_regMIXER),a
    1691.  00:490D                      _pcAY_noTone:
    1692.  00:490D  DD 46 FB            	ld	b,(ix+TRACK_ToneAdd)	; get	the current	deviation	
    1693.  00:4910  DD 4E FC            	ld	c,(ix+TRACK_ToneAdd+1)
    1694.  00:4913                      
    1695.  00:4913  CB 53               	bit	2,e
    1696.  00:4915  CA 2A 49            	jp	z,_pcAY_noToneAdd
    1697.  00:4918  7E                  	ld	a,(hl)
    1698.  00:4919  23                  	inc	hl
    1699.  00:491A  81                  	add	c
    1700.  00:491B  4F                  	ld	c,a
    1701.  00:491C  DD 71 FC            	ld	(ix+TRACK_ToneAdd+1),c
    1702.  00:491F  D2 23 49            	jp	nc,.skip
    1703.  00:4922  04                  	inc	b
    1704.  00:4923                      .skip:
    1705.  00:4923  7E                  	ld	a,(hl)
    1706.  00:4924  23                  	inc	hl
    1707.  00:4925  80                  	add	b
    1708.  00:4926  47                  	ld	b,a
    1709.  00:4927  DD 70 FB            	ld	(ix+TRACK_ToneAdd),b
    1710.  00:492A                      _pcAY_noToneAdd:	
    1711.  00:492A                      	;---- check for macro end
    1712.  00:492A  CB 5B               	bit	3,e		
    1713.  00:492C  CA 33 49            	jp	z,.noend
    1714.  00:492F                      	
    1715.  00:492F  7E                  	ld	a,(hl)
    1716.  00:4930  23                  	inc	hl
    1717.  00:4931  66                  	ld	h,(hl)
    1718.  00:4932  6F                  	ld	l,a
    1719.  00:4933                      	
    1720.  00:4933                      
    1721.  00:4933                      .noend:
    1722.  00:4933  DD 75 F1            	ld	(ix+TRACK_MacroPointer),l	;--- store pointer for next time
    1723.  00:4936  DD 74 F2            	ld	(ix+TRACK_MacroPointer+1),h	
    1724.  00:4939                      
    1725.  00:4939  08                  	ex	af,af'			;';restore note offset
    1726.  00:493A  2A 1C C0            	ld	hl,(replay_Tonetable)
    1727.  00:493D  85                  	add	a,l
    1728.  00:493E  6F                  	ld	l,a
    1729.  00:493F  D2 43 49            	jp	nc,.skip
    1730.  00:4942  24                  	inc	h
    1731.  00:4943                      .skip:
    1732.  00:4943  7E                  	ld	a,(hl)	;--- Store the note tone value in hl
    1733.  00:4944  23                  	inc	hl
    1734.  00:4945  66                  	ld	h,(hl)
    1735.  00:4946  6F                  	ld	l,a
    1736.  00:4947                      		
    1737.  00:4947  09                  	add	hl,bc		;--- Store tone deviation		
    1738.  00:4948                      
    1739.  00:4948                      	; set	the detune.
    1740.  00:4948  ED 73 00 C0         	ld	(_SP_Storage),sp
    1741.  00:494C  DD F9               	ld	sp,ix
    1742.  00:494E  C1                  	pop	bc		; cmd detume
    1743.  00:494F  09                  	add	hl,bc
    1744.  00:4950  C1                  	pop	bc		; cmd toneadd
    1745.  00:4951  09                  	add	hl,bc
    1746.  00:4952  C1                  	pop	bc		; cmd tone slide add
    1747.  00:4953  09                  	add	hl,bc
    1748.  00:4954  ED 7B 00 C0         	ld	sp,(_SP_Storage)
    1749.  00:4958                      
    1750.  00:4958                      	;-----------------
    1751.  00:4958                      	; FM Octave wrapper
    1752.  00:4958                      	; enable slides over multiple octaves.
    1753.  00:4958                      	; [BC] still contains tone slide add.
    1754.  00:4958                      	;-----------------
    1755.  00:4958  CB 7A               	bit	B_PSGFM,d			;(ix+TRACK_Flags)
    1756.  00:495A  C8                  	ret	z				; skip wrapper for PSG
    1757.  00:495B                      	
    1758.  00:495B  CB 44               	bit	0,h
    1759.  00:495D  CA 89 49            	jp	z,_wrap_lowcheck
    1760.  00:4960                      _wrap_highcheck:
    1761.  00:4960  7D                  	ld	a,l
    1762.  00:4961  FE 60               	cp	$60				; $46 is the strict limit
    1763.  00:4963  D8                  	ret	c				; stop if smaller	
    1764.  00:4964                      	
    1765.  00:4964  E5                  	push	hl
    1766.  00:4965                      	;--- Set 12 notes (1 octave) higher
    1767.  00:4965  DD 7E F6            	ld	a,(ix+TRACK_Note)
    1768.  00:4968  C6 0C               	add	12
    1769.  00:496A  FE 60               	cp	96
    1770.  00:496C  38 02               	jr.	c,99f
    1771.  00:496E  C6 A0               	add	160		; wrap notes
    1772.  00:4970                      99:
    1773.  00:4970  DD 77 F6            	ld	(ix+TRACK_Note),a
    1774.  00:4973                      	;--- Set new ToneSlide Add
    1775.  00:4973  CB 1C               	rr	h
    1776.  00:4975  CB 1D               	rr	l			
    1777.  00:4977  26 00               	ld	h,0
    1778.  00:4979  AF                  	xor	a
    1779.  00:497A                      	;--- shuffle regs
    1780.  00:497A  4A                  	ld	c,d		; store flags
    1781.  00:497B  50                  	ld	d,b		; load DE with BC
    1782.  00:497C  59                  	ld	e,c
    1783.  00:497D  EB                  	ex	de,hl
    1784.  00:497E  ED 52               	sbc	hl,de				; subtract new wraped base tone - note tone to get delta slide add.
    1785.  00:4980  DD 75 00            	ld	(ix+TRACK_cmd_ToneSlideAdd),l
    1786.  00:4983  DD 74 01            	ld	(ix+TRACK_cmd_ToneSlideAdd+1),h	
    1787.  00:4986  E1                  	pop	hl	
    1788.  00:4987                      	;-- restore flags
    1789.  00:4987  51                  	ld	d,c
    1790.  00:4988  C9                  	ret
    1791.  00:4989                      	
    1792.  00:4989                      _wrap_lowcheck:
    1793.  00:4989  7D                  	ld	a,l
    1794.  00:498A  FE 90               	cp	$90				; $ad is the strict limit
    1795.  00:498C  D0                  	ret	nc				; stop if smaller	
    1796.  00:498D  E5                  	push	hl
    1797.  00:498E                      	;--- Set 12 notes (1 octave) lower
    1798.  00:498E  DD 7E F6            	ld	a,(ix+TRACK_Note)
    1799.  00:4991  D6 0C               	sub	12
    1800.  00:4993  FE 60               	cp	96
    1801.  00:4995  38 02               	jr.	c,99f
    1802.  00:4997  D6 A0               	sub	160				; wrap notes
    1803.  00:4999                      99:
    1804.  00:4999  DD 77 F6            	ld	(ix+TRACK_Note),a
    1805.  00:499C                      	;--- Set new ToneSlide Add	
    1806.  00:499C  26 00               	ld	h,0
    1807.  00:499E  09                  	add	hl,bc	
    1808.  00:499F                      	
    1809.  00:499F  DD 75 00            	ld	(ix+TRACK_cmd_ToneSlideAdd),l
    1810.  00:49A2  DD 74 01            	ld	(ix+TRACK_cmd_ToneSlideAdd+1),h	
    1811.  00:49A5  E1                  	pop	hl	
    1812.  00:49A6  C9                  	ret
    1813.  00:49A7                      
    1814.  00:49A7                      	
    1815.  00:49A7                      _pcAY_noNoteActive:
    1816.  00:49A7  AF                  	xor	a
    1817.  00:49A8  32 44 C2            	ld	(FM_regVOLE),a
    1818.  00:49AB  C9                  	ret	
    1819.  00:49AC                      
    1820.  00:49AC                      ;---- This is for debugging only	
    1821.  00:49AC                      ;stop_debug:
    1822.  00:49AC                      ;	halt
    1823.  00:49AC                      ;	jp	stop_debug	
    1824.  00:49AC                      ;	
    1825.  00:49AC                      ;PROCESS_CMDLIST:	
    1826.  00:49AC                      ;[13]	dw 	stop_debug
    1827.  00:49AC                      
    1828.  00:49AC                      _pcAY_cmdlist:
    1829.  00:49AC  00 00               	dw	0					;d
    1830.  00:49AE  00 00               	dw	0					;e
    1831.  00:49B0  00 00               	dw	0					;f
    1832.  00:49B2  10 4B               	dw	_pcAY_cmd13_short_arp		;10
    1833.  00:49B4  21 4B               	dw	_pcAY_cmd14_fine_up		;11
    1834.  00:49B6  3B 4B               	dw	_pcAY_cmd15_fine_down		;12
    1835.  00:49B8  62 4B               	dw	_pcAY_cmd19_note_delay		;13
    1836.  00:49BA  55 4B               	dw	_pcAY_cmdXX_note_cut		;14
    1837.  00:49BC                      	
    1838.  00:49BC  E2 49               	dw	_pcAY_cmd0_arpeggio		;15
    1839.  00:49BE  19 4A               	dw	_pcAY_cmd1_port_up		;16
    1840.  00:49C0  2D 4A               	dw	_pcAY_cmd2_port_down		;17
    1841.  00:49C2  41 4A               	dw	_pcAY_cmd3_port_tone		;18
    1842.  00:49C4  82 4A               	dw	_pcAY_cmd4_vibrato		;19
    1843.  00:49C6  CC 4A               	dw	_pcAY_cmd5_vibrato_port_tone	;1a
    1844.  00:49C8  D2 4A               	dw	_pcAY_cmd6_vibrato_vol		;1b
    1845.  00:49CA  D8 4A               	dw	_pcAY_cmd7_vol_slide		;1c
    1846.  00:49CC  05 4B               	dw	_pcAY_cmd8_macro_offset		;1d
    1847.  00:49CE  00 00               	dw	0	;env shape
    1848.  00:49D0                      
    1849.  00:49D0  E2 49               	dw	_pcAY_cmd0_arpeggio		;1e
    1850.  00:49D2  19 4A               	dw	_pcAY_cmd1_port_up		;1f
    1851.  00:49D4  2D 4A               	dw	_pcAY_cmd2_port_down		;20
    1852.  00:49D6  41 4A               	dw	_pcAY_cmd3_port_tone		;21
    1853.  00:49D8  82 4A               	dw	_pcAY_cmd4_vibrato
    1854.  00:49DA  CC 4A               	dw	_pcAY_cmd5_vibrato_port_tone
    1855.  00:49DC  D2 4A               	dw	_pcAY_cmd6_vibrato_vol
    1856.  00:49DE  D8 4A               	dw	_pcAY_cmd7_vol_slide
    1857.  00:49E0  05 4B               	dw	_pcAY_cmd8_macro_offset
    1858.  00:49E2                      
    1859.  00:49E2                      			
    1860.  00:49E2                      _pcAY_cmd0_arpeggio:
    1861.  00:49E2  DD 7E 0F            	ld	a,(ix+TRACK_Timer)
    1862.  00:49E5  CB 47               	bit	0,a
    1863.  00:49E7  CA FE 49            	jp	z,.step2
    1864.  00:49EA                      
    1865.  00:49EA                      	;--- set x
    1866.  00:49EA  DD 36 0F 02         	ld	(ix+TRACK_Timer),2
    1867.  00:49EE  AF                  	xor	a
    1868.  00:49EF  DD 7E 05            	ld	a,(ix+TRACK_cmd_0)
    1869.  00:49F2  E6 F0               	and	0xf0
    1870.  00:49F4  1F                  	rra
    1871.  00:49F5  1F                  	rra
    1872.  00:49F6  1F                  	rra
    1873.  00:49F7  1F                  	rra
    1874.  00:49F8  DD 77 0B            	ld	(ix+TRACK_cmd_NoteAdd),a		
    1875.  00:49FB  C3 16 48            	jp	_pcAY_commandEND
    1876.  00:49FE                      
    1877.  00:49FE                      	
    1878.  00:49FE                      .step2:
    1879.  00:49FE  CB 4F               	bit	1,a
    1880.  00:4A00  CA 12 4A            	jp	z,.step3
    1881.  00:4A03                      
    1882.  00:4A03                      	;--- set y
    1883.  00:4A03  DD 36 0F 00         	ld	(ix+TRACK_Timer),0
    1884.  00:4A07  DD 7E 05            	ld	a,(ix+TRACK_cmd_0)
    1885.  00:4A0A  E6 0F               	and	0x0f
    1886.  00:4A0C  DD 77 0B            	ld	(ix+TRACK_cmd_NoteAdd),a		
    1887.  00:4A0F  C3 16 48            	jp	_pcAY_commandEND
    1888.  00:4A12                      	
    1889.  00:4A12                      .step3:
    1890.  00:4A12                      	;--- set none
    1891.  00:4A12  DD 36 0F 01         	ld	(ix+TRACK_Timer),1
    1892.  00:4A16  C3 16 48            	jp	_pcAY_commandEND
    1893.  00:4A19                      	
    1894.  00:4A19                      	
    1895.  00:4A19                      _pcAY_cmd1_port_up:
    1896.  00:4A19  DD 7E 06            	ld	a,(ix+TRACK_cmd_1)
    1897.  00:4A1C  47                  	ld	b,a
    1898.  00:4A1D  DD 7E 00            	ld	a,(ix+TRACK_cmd_ToneSlideAdd)
    1899.  00:4A20  90                  	sub	b
    1900.  00:4A21  DD 77 00            	ld	(ix+TRACK_cmd_ToneSlideAdd),a
    1901.  00:4A24  D2 16 48            	jp	nc,_pcAY_commandEND
    1902.  00:4A27  DD 35 01            	dec	(ix+TRACK_cmd_ToneSlideAdd+1)
    1903.  00:4A2A  C3 16 48            	jp	_pcAY_commandEND
    1904.  00:4A2D                      	
    1905.  00:4A2D                      _pcAY_cmd2_port_down:
    1906.  00:4A2D  DD 7E 07            	ld	a,(ix+TRACK_cmd_2)
    1907.  00:4A30  47                  	ld	b,a
    1908.  00:4A31  DD 7E 00            	ld	a,(ix+TRACK_cmd_ToneSlideAdd)
    1909.  00:4A34  80                  	add	b
    1910.  00:4A35  DD 77 00            	ld	(ix+TRACK_cmd_ToneSlideAdd),a
    1911.  00:4A38  D2 16 48            	jp	nc,_pcAY_commandEND
    1912.  00:4A3B  DD 34 01            	inc	(ix+TRACK_cmd_ToneSlideAdd+1)
    1913.  00:4A3E  C3 16 48            	jp	_pcAY_commandEND
    1914.  00:4A41                      
    1915.  00:4A41                      
    1916.  00:4A41                      _pcAY_cmd3_port_tone:
    1917.  00:4A41  DD 7E 08            	ld	a,(ix+TRACK_cmd_3)
    1918.  00:4A44  DD 6E 00            	ld	l,(ix+TRACK_cmd_ToneSlideAdd)
    1919.  00:4A47  DD 66 01            	ld	h,(ix+TRACK_cmd_ToneSlideAdd+1)
    1920.  00:4A4A  CB 7C               	bit	7,h
    1921.  00:4A4C  CA 62 4A            	jp	z,_pcAY_cmd3_sub
    1922.  00:4A4F                      _pcAY_cmd3_add:
    1923.  00:4A4F                      	;pos slide
    1924.  00:4A4F  85                  	add	a,l
    1925.  00:4A50  DD 77 00            	ld	(ix+TRACK_cmd_ToneSlideAdd),a
    1926.  00:4A53  D2 16 48            	jp	nc,_pcAY_commandEND
    1927.  00:4A56  24                  	inc	h					
    1928.  00:4A57  CB 7C               	bit	7,h
    1929.  00:4A59  CA 75 4A            	jp	z,_pcAY_cmd3_stop			; delta turned pos ?
    1930.  00:4A5C  DD 74 01            	ld	(ix+TRACK_cmd_ToneSlideAdd+1),h
    1931.  00:4A5F  C3 16 48            	jp	_pcAY_commandEND
    1932.  00:4A62                      _pcAY_cmd3_sub:
    1933.  00:4A62                      	;negative slide	
    1934.  00:4A62  4F                  	ld	c,a
    1935.  00:4A63  AF                  	xor	a
    1936.  00:4A64  47                  	ld	b,a
    1937.  00:4A65  ED 42               	sbc	hl,bc
    1938.  00:4A67  CB 7C               	bit	7,h
    1939.  00:4A69  C2 75 4A            	jp	nz,_pcAY_cmd3_stop			; delta turned neg ?
    1940.  00:4A6C  DD 75 00            	ld	(ix+TRACK_cmd_ToneSlideAdd),l
    1941.  00:4A6F  DD 74 01            	ld	(ix+TRACK_cmd_ToneSlideAdd+1),h
    1942.  00:4A72  C3 16 48            	jp	_pcAY_commandEND
    1943.  00:4A75                      _pcAY_cmd3_stop:	
    1944.  00:4A75  CB 9A               	res	B_TRGCMD,d		;(ix+TRACK_Flags)
    1945.  00:4A77  DD 36 00 00         	ld	(ix+TRACK_cmd_ToneSlideAdd),0
    1946.  00:4A7B  DD 36 01 00         	ld	(ix+TRACK_cmd_ToneSlideAdd+1),0	
    1947.  00:4A7F  C3 16 48            	jp	_pcAY_commandEND
    1948.  00:4A82                      
    1949.  00:4A82                      
    1950.  00:4A82                      	;-- vibrato	
    1951.  00:4A82                      _pcAY_cmd4_vibrato:
    1952.  00:4A82  2A 1A C0            	ld	hl,(replay_vib_table)
    1953.  00:4A85                      	;--- Get next step
    1954.  00:4A85  DD 7E 10            	ld	a,(IX+TRACK_Step)
    1955.  00:4A88  DD 86 0A            	add	(ix+TRACK_cmd_4_step)
    1956.  00:4A8B  E6 3F               	and	$3F			; max	32
    1957.  00:4A8D  DD 77 10            	ld	(ix+TRACK_Step),a
    1958.  00:4A90                      	
    1959.  00:4A90  CB 6F               	bit	5,a			; step 32-63 the neg	
    1960.  00:4A92  CA B4 4A            	jp	z,_pcAY_cmd4pos
    1961.  00:4A95                      
    1962.  00:4A95                      ; neg	
    1963.  00:4A95  E6 1F               	and	$1f
    1964.  00:4A97  85                  	add	l
    1965.  00:4A98  6F                  	ld	l,a
    1966.  00:4A99  D2 9D 4A            	jp	nc,.skip
    1967.  00:4A9C  24                  	inc	h
    1968.  00:4A9D                      .skip:
    1969.  00:4A9D  7E                  	ld	a,(hl)
    1970.  00:4A9E                      	;apply depth
    1971.  00:4A9E  DD 46 09            	ld	b,(ix+TRACK_cmd_4_depth)
    1972.  00:4AA1                      .loop:
    1973.  00:4AA1  CB 3F               	srl	a
    1974.  00:4AA3  10 FC               	djnz	.loop
    1975.  00:4AA5                      ;	and	$0f
    1976.  00:4AA5                      
    1977.  00:4AA5  ED 44               	neg
    1978.  00:4AA7  CA C2 4A            	jp	z,_pcAY_cmd4_zero			; $ff00 gives strange result ;)	
    1979.  00:4AAA  DD 77 02            	ld	(ix+TRACK_cmd_ToneAdd),a
    1980.  00:4AAD  DD 36 03 FF         	ld	(ix+TRACK_cmd_ToneAdd+1),0xff
    1981.  00:4AB1  C3 16 48            	jp	_pcAY_commandEND
    1982.  00:4AB4                      
    1983.  00:4AB4                      _pcAY_cmd4pos:	
    1984.  00:4AB4                      ;	and	$1f
    1985.  00:4AB4  85                  	add	l
    1986.  00:4AB5  6F                  	ld	l,a
    1987.  00:4AB6  D2 BA 4A            	jp	nc,.skip
    1988.  00:4AB9  24                  	inc	h
    1989.  00:4ABA                      .skip:
    1990.  00:4ABA  7E                  	ld	a,(hl)
    1991.  00:4ABB                      	;apply depth
    1992.  00:4ABB  DD 46 09            	ld	b,(ix+TRACK_cmd_4_depth)
    1993.  00:4ABE                      .loop:
    1994.  00:4ABE  CB 3F               	srl	a
    1995.  00:4AC0  10 FC               	djnz	.loop
    1996.  00:4AC2                      _pcAY_cmd4_zero:
    1997.  00:4AC2  DD 77 02            	ld	(ix+TRACK_cmd_ToneAdd),a
    1998.  00:4AC5  DD 36 03 00         	ld	(ix+TRACK_cmd_ToneAdd+1),0
    1999.  00:4AC9  C3 16 48            	jp	_pcAY_commandEND
    2000.  00:4ACC                      		
    2001.  00:4ACC                      	
    2002.  00:4ACC                      
    2003.  00:4ACC                      _pcAY_cmd5_vibrato_port_tone:
    2004.  00:4ACC  CD DE 4A            	call	_pcAY_cmdasub
    2005.  00:4ACF  C3 41 4A            	jp	_pcAY_cmd3_port_tone
    2006.  00:4AD2                      	
    2007.  00:4AD2                      _pcAY_cmd6_vibrato_vol:
    2008.  00:4AD2  CD DE 4A            	call	_pcAY_cmdasub
    2009.  00:4AD5  C3 82 4A            	jp	_pcAY_cmd4_vibrato	
    2010.  00:4AD8                      
    2011.  00:4AD8                      _pcAY_cmd7_vol_slide:
    2012.  00:4AD8  CD DE 4A            	call	_pcAY_cmdasub
    2013.  00:4ADB  C3 16 48            	jp	_pcAY_commandEND
    2014.  00:4ADE                      
    2015.  00:4ADE                      _pcAY_cmdasub:
    2016.  00:4ADE  DD 35 0F            	dec	(ix+TRACK_Timer)
    2017.  00:4AE1  C0                  	ret	nz
    2018.  00:4AE2                      		
    2019.  00:4AE2                      	; vol	slide
    2020.  00:4AE2  DD 7E 0C            	ld	a,(ix+TRACK_cmd_A)
    2021.  00:4AE5  4F                  	ld	c,a
    2022.  00:4AE6  E6 7F               	and	$7f
    2023.  00:4AE8  DD 77 0F            	ld	(ix+TRACK_Timer),a
    2024.  00:4AEB                      
    2025.  00:4AEB  DD 7E FF            	ld	a,(IX+TRACK_cmd_VolumeAdd)
    2026.  00:4AEE  CB 79               	bit	7,c
    2027.  00:4AF0  CA FC 4A            	jp	z,_pcAY_cmda_inc
    2028.  00:4AF3                      _pcAY_cmda_dec:
    2029.  00:4AF3  FE 88               	cp	0x88
    2030.  00:4AF5  C8                  	ret	z
    2031.  00:4AF6  D6 08               	sub	8
    2032.  00:4AF8  DD 77 FF            	ld	(ix+TRACK_cmd_VolumeAdd),a
    2033.  00:4AFB  C9                  	ret
    2034.  00:4AFC                      _pcAY_cmda_inc:
    2035.  00:4AFC  FE 78               	cp	0x78
    2036.  00:4AFE  C8                  	ret	z
    2037.  00:4AFF  C6 08               	add	8	
    2038.  00:4B01  DD 77 FF            	ld	(ix+TRACK_cmd_VolumeAdd),a
    2039.  00:4B04  C9                  	ret
    2040.  00:4B05                      	
    2041.  00:4B05                      _pcAY_cmd8_macro_offset:
    2042.  00:4B05  DD 35 0F            	dec	(ix+TRACK_Timer)
    2043.  00:4B08  C2 16 48            	jp	nz,_pcAY_commandEND
    2044.  00:4B0B  CB 9A               	res	B_TRGCMD,d			;(ix+TRACK_Flags)
    2045.  00:4B0D  C3 16 48            	jp	_pcAY_commandEND
    2046.  00:4B10                      
    2047.  00:4B10                      
    2048.  00:4B10                      _pcAY_cmd13_short_arp:
    2049.  00:4B10  DD 35 0F            	dec	(ix+TRACK_Timer)
    2050.  00:4B13  CB 42               	bit	B_TRGNOT,d		;(ix+TRACK_Timer)
    2051.  00:4B15  CA 16 48            	jp	z,_pcAY_commandEND
    2052.  00:4B18  DD 7E 0E            	ld	a,(ix+TRACK_cmd_E)
    2053.  00:4B1B  DD 77 0B            	ld	(ix+TRACK_cmd_NoteAdd),a		
    2054.  00:4B1E  C3 16 48            	jp	_pcAY_commandEND
    2055.  00:4B21                      
    2056.  00:4B21                      _pcAY_cmd14_fine_up:
    2057.  00:4B21  DD 35 0F            	dec	(ix+TRACK_Timer)
    2058.  00:4B24  C2 16 48            	jp	nz,_pcAY_commandEND
    2059.  00:4B27                      
    2060.  00:4B27  CB 9A               	res	B_TRGCMD,d			;(ix+TRACK_Flags)
    2061.  00:4B29  DD 7E 00            	ld	a,(ix+TRACK_cmd_ToneSlideAdd)
    2062.  00:4B2C  DD 86 0E            	add	(ix+TRACK_cmd_E)
    2063.  00:4B2F  DD 77 00            	ld	(ix+TRACK_cmd_ToneSlideAdd),a
    2064.  00:4B32  D2 16 48            	jp	nc,_pcAY_commandEND	
    2065.  00:4B35  DD 34 01            	inc	(ix+TRACK_cmd_ToneSlideAdd+1)
    2066.  00:4B38  C3 16 48            	jp	_pcAY_commandEND	
    2067.  00:4B3B                      
    2068.  00:4B3B                      _pcAY_cmd15_fine_down:
    2069.  00:4B3B  DD 35 0F            	dec	(ix+TRACK_Timer)
    2070.  00:4B3E  C2 16 48            	jp	nz,_pcAY_commandEND
    2071.  00:4B41                      
    2072.  00:4B41  CB 9A               	res	B_TRGCMD,d		;(ix+TRACK_Flags)
    2073.  00:4B43  DD 7E 00            	ld	a,(ix+TRACK_cmd_ToneSlideAdd)
    2074.  00:4B46  DD 96 0E            	sub	(ix+TRACK_cmd_E)
    2075.  00:4B49  DD 77 00            	ld	(ix+TRACK_cmd_ToneSlideAdd),a
    2076.  00:4B4C  D2 16 48            	jp	nc,_pcAY_commandEND	
    2077.  00:4B4F  DD 35 01            	dec	(ix+TRACK_cmd_ToneSlideAdd+1)
    2078.  00:4B52  C3 16 48            	jp	_pcAY_commandEND	
    2079.  00:4B55                      
    2080.  00:4B55                      
    2081.  00:4B55                      _pcAY_cmdXX_note_cut:
    2082.  00:4B55  DD 35 0F            	dec	(ix+TRACK_Timer)
    2083.  00:4B58  C2 16 48            	jp	nz,_pcAY_commandEND
    2084.  00:4B5B                      	
    2085.  00:4B5B                      	; stop note
    2086.  00:4B5B  CB 9A               	res	B_TRGCMD,d	; set	note bit to	0
    2087.  00:4B5D  CB 82               	res	B_TRGNOT,d
    2088.  00:4B5F  C3 16 48            	jp	_pcAY_commandEND		
    2089.  00:4B62                      	
    2090.  00:4B62                      _pcAY_cmd19_note_delay:
    2091.  00:4B62                      	; note delay
    2092.  00:4B62  DD 35 0F            	dec	(ix+TRACK_Timer)
    2093.  00:4B65  C2 16 48            	jp	nz,_pcAY_commandEND	; no delay yet
    2094.  00:4B68                      
    2095.  00:4B68                      	; trigger note
    2096.  00:4B68  DD 7E 0E            	ld	a,(ix+TRACK_cmd_E)		
    2097.  00:4B6B  DD 77 F6            	ld	(ix+TRACK_Note),a		; set	the note val
    2098.  00:4B6E  CB C2               	set	B_TRGNOT,d	;(ix+TRACK_Flags)		; set	trigger note flag
    2099.  00:4B70  CB 9A               	res	B_TRGCMD,d	;(ix+TRACK_Flags)		; reset tiggger cmd flag
    2100.  00:4B72                      	
    2101.  00:4B72  C3 16 48            	jp	_pcAY_commandEND	
    2102.  00:4B75                      
    2103.  00:4B75                      
    2104.  00:4B75                      
    2105.  00:4B75                      ;===========================================================
    2106.  00:4B75                      ; ---replay_route
    2107.  00:4B75                      ; Output the data	to the CHIP	registers
    2108.  00:4B75                      ; 
    2109.  00:4B75                      ; 
    2110.  00:4B75                      ;===========================================================
    2111.  00:4B75                      replay_route:
    2112.  00:4B75                      ;---------------
    2113.  00:4B75                      ; P S	G 
    2114.  00:4B75                      ;---------------
    2115.  00:4B75                      	;--- Push values to AY HW
    2116.  00:4B75  06 00               	ld	b,0
    2117.  00:4B77  0E A0               	ld	c,0xa0
    2118.  00:4B79  21 A6 C1            	ld	hl,AY_registers
    2119.  00:4B7C                      _comp_loop:	
    2120.  00:4B7C  ED 41               	out	(c),b
    2121.  00:4B7E  7E                  	ld	a,(hl)
    2122.  00:4B7F  C6 01               	add	1
    2123.  00:4B81  D3 A1               	out	(0xa1),a
    2124.  00:4B83  23                  	inc	hl
    2125.  00:4B84  7E                  	ld	a,(hl)
    2126.  00:4B85  CE 00               	adc	a,0
    2127.  00:4B87  04                  	inc	b
    2128.  00:4B88  ED 41               	out	(c),b	
    2129.  00:4B8A  23                  	inc	hl
    2130.  00:4B8B  D3 A1               	out	(0xa1),a	
    2131.  00:4B8D  04                  	inc	b
    2132.  00:4B8E  3E 06               	ld	a,6
    2133.  00:4B90  B8                  	cp	b
    2134.  00:4B91  C2 7C 4B            	jp	nz,_comp_loop
    2135.  00:4B94                      	
    2136.  00:4B94  78                  	ld	a,b	
    2137.  00:4B95                      	
    2138.  00:4B95                      	
    2139.  00:4B95                      _ptAY_loop:
    2140.  00:4B95  ED 79               	out	(c),a
    2141.  00:4B97  0C                  	inc	c
    2142.  00:4B98  ED A3               	outi
    2143.  00:4B9A  0D                  	dec	c
    2144.  00:4B9B  3C                  	inc	a
    2145.  00:4B9C  FE 0D               	cp	13
    2146.  00:4B9E  20 F5               	jr	nz,_ptAY_loop
    2147.  00:4BA0                      
    2148.  00:4BA0  47                  	ld	b,a
    2149.  00:4BA1  7E                  	ld	a,(hl)
    2150.  00:4BA2  A7                  	and	a
    2151.  00:4BA3  CA AD 4B            	jp	z,_ptAY_noEnv
    2152.  00:4BA6  ED 41               	out	(c),b
    2153.  00:4BA8  0C                  	inc	c
    2154.  00:4BA9  ED 79               	out 	(c),a
    2155.  00:4BAB  36 00               	ld	(hl),0	;reset the envwrite
    2156.  00:4BAD                      	
    2157.  00:4BAD                      	
    2158.  00:4BAD                      _ptAY_noEnv:
    2159.  00:4BAD                      ;--------------
    2160.  00:4BAD                      ; S C	C 
    2161.  00:4BAD                      ;--------------
    2162.  00:4BAD  3E 3F               	ld  a,03Fh				; enable SCC
    2163.  00:4BAF  32 00 90            	ld  (0x9000),a
    2164.  00:4BB2                      
    2165.  00:4BB2                      	
    2166.  00:4BB2                      	;--- This for the ttsfxplayer!!!
    2167.  00:4BB2                      ;	ld	a,(sfx_SCC_WAVE)
    2168.  00:4BB2                      ;	cp	255
    2169.  00:4BB2                      ;	jp	z,.nosfx		; if a == 255 there is no waveform
    2170.  00:4BB2                      ;
    2171.  00:4BB2                      ;	ld	de,0x9800
    2172.  00:4BB2                      ;	call	_write_SFX_wave	
    2173.  00:4BB2                      ;	jp	.skip	
    2174.  00:4BB2                      	
    2175.  00:4BB2                      .nosfx:	
    2176.  00:4BB2                      	;--- Set the waveforms
    2177.  00:4BB2  21 E2 C0            	ld	hl,TRACK_Chan4+17+TRACK_Flags
    2178.  00:4BB5                      ;	bit	B_TRGWAV,(hl)
    2179.  00:4BB5  CA C1 4B            	jp	z,.skip
    2180.  00:4BB8                      	;--- set wave form
    2181.  00:4BB8                      ;	res	B_TRGWAV,(hl)
    2182.  00:4BB8  3A E1 C0            	ld	a,(TRACK_Chan4+17+TRACK_Voice)
    2183.  00:4BBB  11 00 98            	ld	de,0x9800
    2184.  00:4BBE  CD 0D 4C            	call	_write_SCC_wave
    2185.  00:4BC1                      .skip:
    2186.  00:4BC1  21 08 C1            	ld	hl,TRACK_Chan5+17+TRACK_Flags
    2187.  00:4BC4                      ;	bit	B_TRGWAV,(hl)
    2188.  00:4BC4  CA D0 4B            	jp	z,.skip2
    2189.  00:4BC7                      	;--- set wave form
    2190.  00:4BC7                      ;	res	B_TRGWAV,(hl)
    2191.  00:4BC7  3A 07 C1            	ld	a,(TRACK_Chan5+17+TRACK_Voice)
    2192.  00:4BCA  11 20 98            	ld	de,0x9820
    2193.  00:4BCD  CD 0D 4C            	call	_write_SCC_wave
    2194.  00:4BD0                      .skip2:
    2195.  00:4BD0  21 2E C1            	ld	hl,TRACK_Chan6+17+TRACK_Flags
    2196.  00:4BD3                      ;	bit	B_TRGWAV,(hl)
    2197.  00:4BD3  CA DF 4B            	jp	z,.skip3
    2198.  00:4BD6                      	;--- set wave form
    2199.  00:4BD6                      ;	res	B_TRGWAV,(hl)
    2200.  00:4BD6  3A 2D C1            	ld	a,(TRACK_Chan6+17+TRACK_Voice)
    2201.  00:4BD9  11 40 98            	ld	de,0x9840
    2202.  00:4BDC  CD 0D 4C            	call	_write_SCC_wave
    2203.  00:4BDF                      .skip3:
    2204.  00:4BDF  21 54 C1            	ld	hl,TRACK_Chan7+17+TRACK_Flags
    2205.  00:4BE2                      ;	bit	B_TRGWAV,(hl)
    2206.  00:4BE2  CA EE 4B            	jp	z,.skip4
    2207.  00:4BE5                      	;--- set wave form
    2208.  00:4BE5                      ;	res	B_TRGWAV,(hl)
    2209.  00:4BE5  3A 53 C1            	ld	a,(TRACK_Chan7+17+TRACK_Voice)
    2210.  00:4BE8  11 60 98            	ld	de,0x9860
    2211.  00:4BEB  CD 0D 4C            	call	_write_SCC_wave
    2212.  00:4BEE                      .skip4:
    2213.  00:4BEE                      
    2214.  00:4BEE                      FM_reg_update:
    2215.  00:4BEE                      
    2216.  00:4BEE  3E 3F               	ld  a,03Fh				; enable SCC
    2217.  00:4BF0  32 00 90            	ld  (0x9000),a
    2218.  00:4BF3                      
    2219.  00:4BF3                      	;--- Update changed SCC registers.
    2220.  00:4BF3  21 55 C2            	ld hl,oldregs
    2221.  00:4BF6  11 34 C2            	ld de,FM_registers
    2222.  00:4BF9  01 80 98            	ld bc,0x9880
    2223.  00:4BFC  3E 10               	ld a,3*5+1
    2224.  00:4BFE                      loop:
    2225.  00:4BFE  08                  	ex af,af'	;'
    2226.  00:4BFF  1A                  	ld a,(de)
    2227.  00:4C00  BE                  	cp (hl)
    2228.  00:4C01  28 02               	jr z,.skip
    2229.  00:4C03  77                  	ld (hl),a	     ; update old	registers in ram
    2230.  00:4C04  02                  	ld (bc),a	     ; update scc	registers
    2231.  00:4C05                      .skip:	    
    2232.  00:4C05  23                  	inc hl
    2233.  00:4C06  13                  	inc de
    2234.  00:4C07  03                  	inc bc
    2235.  00:4C08  08                  	ex af,af'		;'
    2236.  00:4C09  3D                  	dec a
    2237.  00:4C0A  20 F2               	jr nz, loop
    2238.  00:4C0C  C9                  	ret
    2239.  00:4C0D                      
    2240.  00:4C0D                      	
    2241.  00:4C0D                      	
    2242.  00:4C0D                      ;==================
    2243.  00:4C0D                      ; _write_SCC_wave
    2244.  00:4C0D                      ;
    2245.  00:4C0D                      ; Writes waveform	data.	[DE] contains location for data
    2246.  00:4C0D                      ; [A]	contains waveform	number + flags for special actions
    2247.  00:4C0D                      ; Data is not written to SCC but into RAM	shadow registers.
    2248.  00:4C0D                      ;==================
    2249.  00:4C0D                      _write_SCC_wave:
    2250.  00:4C0D                      ;	bit	B_ACTMOR,(hl)
    2251.  00:4C0D  C2 39 4C            	jp	nz,_write_SCC_special
    2252.  00:4C10                      	
    2253.  00:4C10  CB 47               	bit	0,a
    2254.  00:4C12  C2 25 4C            	jp	nz,.ramwave
    2255.  00:4C15                      ;	add	a,a
    2256.  00:4C15                      ;	add	a,a
    2257.  00:4C15                      ;	add	a,a
    2258.  00:4C15                      
    2259.  00:4C15                      .normalwave:
    2260.  00:4C15  6F                  	ld	l,a
    2261.  00:4C16  26 00               	ld	h,0
    2262.  00:4C18  29                  	add	hl,hl
    2263.  00:4C19  29                  	add	hl,hl
    2264.  00:4C1A                      		
    2265.  00:4C1A  ED 4B 07 C0         	ld	  bc,(replay_voicebase)
    2266.  00:4C1E  09                  	add	  hl,bc
    2267.  00:4C1F  01 20 00            	ld	  bc,32
    2268.  00:4C22  ED B0               	ldir
    2269.  00:4C24  C9                  	ret
    2270.  00:4C25                      	
    2271.  00:4C25                      	
    2272.  00:4C25                      .ramwave:
    2273.  00:4C25  2B                  	dec	hl		; reset the special flag in the wave form number
    2274.  00:4C26  E6 FE               	and	$fe
    2275.  00:4C28  77                  	ld	(hl),a
    2276.  00:4C29                      
    2277.  00:4C29  21 B4 C1            	ld	hl,_0x9800
    2278.  00:4C2C  7B                  	ld	a,e
    2279.  00:4C2D  85                  	add	a,l
    2280.  00:4C2E  6F                  	ld	l,a
    2281.  00:4C2F  D2 33 4C            	jp	nc,.skip
    2282.  00:4C32  24                  	inc	h
    2283.  00:4C33                      .skip:
    2284.  00:4C33  01 20 00            	ld	  bc,32
    2285.  00:4C36  ED B0               	ldir
    2286.  00:4C38  C9                  	ret	
    2287.  00:4C39                      	
    2288.  00:4C39                      	
    2289.  00:4C39                      	
    2290.  00:4C39                      
    2291.  00:4C39                      
    2292.  00:4C39                      _write_SCC_special:
    2293.  00:4C39  21 23 C0            	ld	hl,replay_morph_buffer+1
    2294.  00:4C3C  06 20               	ld	b,32
    2295.  00:4C3E                      _wss_l:
    2296.  00:4C3E  7E                  	ld	a,(hl)
    2297.  00:4C3F  12                  	ld	(de),a
    2298.  00:4C40  23                  	inc	hl
    2299.  00:4C41  23                  	inc	hl
    2300.  00:4C42  13                  	inc	de
    2301.  00:4C43  10 F9               	djnz	_wss_l
    2302.  00:4C45                      	 
    2303.  00:4C45                      	
    2304.  00:4C45  C9                  	ret
    2305.  00:4C46                      
    2306.  00:4C46                      	
    2307.  00:4C46                      
    2308.  00:4C46                      	
    2309.  00:4C46                      
    2310.  00:4C46                      
     129   00:4C46                      	include	"..\code\ttreplayDAT.asm"
       1.  00:4C46                      
       2.  00:4C46  00 (128)            	ds 8*16, 0
       3.  00:4CC6                      _VOLUME_TABLE
       4.  00:4CC6  (0100)              	incbin ".\voltable_combined.bin"	
       5.  00:4DC6                      
       6.  00:4DC6                      ;Konami values found in	Nemesis 2 replayer.
       7.  00:4DC6  (00:0D40)           C_PER		equ	$6a*32	
       8.  00:4DC6  (00:0C80)           C1_PER	equ	$64*32
       9.  00:4DC6  (00:0BC0)           D_PER		equ	$5e*32
      10.  00:4DC6  (00:0B20)           D1_PER	equ	$59*32
      11.  00:4DC6  (00:0A80)           E_PER		equ	$54*32
      12.  00:4DC6  (00:09E0)           F_PER		equ	$4f*32
      13.  00:4DC6  (00:0940)           F1_PER	equ	$4a*32
      14.  00:4DC6  (00:08C0)           G_PER		equ	$46*32
      15.  00:4DC6  (00:0840)           G1_PER	equ	$42*32
      16.  00:4DC6  (00:07E0)           A_PER		equ	$3f*32
      17.  00:4DC6  (00:0760)           A1_PER	equ	$3b*32
      18.  00:4DC6  (00:0700)           B_PER		equ	$38*32
      19.  00:4DC6                      
      20.  00:4DC6                      TRACK_ToneTable:	
      21.  00:4DC6                      	dw C_PER/1	,C1_PER/1  ,D_PER/1  ,D1_PER/1  ,E_PER/1	,F_PER/1  ,F1_PER/1  ,G_PER/1	 ,G1_PER/1	,A_PER/1  ,A1_PER/1  ,B_PER/1
      21.  00:4DC6  40 0D 80 0C C0 0B 20 0B 80 0A E0 09 40 09 C0 08 
      21.  00:4DD6  40 08 E0 07 60 07 00 07 
      22.  00:4DDE                      	dw C_PER/2	,C1_PER/2  ,D_PER/2  ,D1_PER/2  ,E_PER/2	,F_PER/2  ,F1_PER/2  ,G_PER/2	 ,G1_PER/2	,A_PER/2  ,A1_PER/2  ,B_PER/2
      22.  00:4DDE  A0 06 40 06 E0 05 90 05 40 05 F0 04 A0 04 60 04 
      22.  00:4DEE  20 04 F0 03 B0 03 80 03 
      23.  00:4DF6                      	dw C_PER/4	,C1_PER/4  ,D_PER/4  ,D1_PER/4  ,E_PER/4	,F_PER/4  ,F1_PER/4  ,G_PER/4	 ,G1_PER/4	,A_PER/4  ,A1_PER/4  ,B_PER/4
      23.  00:4DF6  50 03 20 03 F0 02 C8 02 A0 02 78 02 50 02 30 02 
      23.  00:4E06  10 02 F8 01 D8 01 C0 01 
      24.  00:4E0E                      	dw C_PER/8	,C1_PER/8  ,D_PER/8  ,D1_PER/8  ,E_PER/8	,F_PER/8  ,F1_PER/8  ,G_PER/8	 ,G1_PER/8	,A_PER/8  ,A1_PER/8  ,B_PER/8
      24.  00:4E0E  A8 01 90 01 78 01 64 01 50 01 3C 01 28 01 18 01 
      24.  00:4E1E  08 01 FC 00 EC 00 E0 00 
      25.  00:4E26                      	dw C_PER/16	,C1_PER/16 ,D_PER/16 ,D1_PER/16 ,E_PER/16	,F_PER/16 ,F1_PER/16 ,G_PER/16 ,G1_PER/16	,A_PER/16 ,A1_PER/16 ,B_PER/16
      25.  00:4E26  D4 00 C8 00 BC 00 B2 00 A8 00 9E 00 94 00 8C 00 
      25.  00:4E36  84 00 7E 00 76 00 70 00 
      26.  00:4E3E                      	dw C_PER/32	,C1_PER/32 ,D_PER/32 ,D1_PER/32 ,E_PER/32	,F_PER/32 ,F1_PER/32 ,G_PER/32 ,G1_PER/32	,A_PER/32 ,A1_PER/32 ,B_PER/32
      26.  00:4E3E  6A 00 64 00 5E 00 59 00 54 00 4F 00 4A 00 46 00 
      26.  00:4E4E  42 00 3F 00 3B 00 38 00 
      27.  00:4E56                      	dw C_PER/64	,C1_PER/64 ,D_PER/64 ,D1_PER/64 ,E_PER/64	,F_PER/64 ,F1_PER/64 ,G_PER/64 ,G1_PER/64	,A_PER/64 ,A1_PER/64 ,B_PER/64
      27.  00:4E56  35 00 32 00 2F 00 2C 00 2A 00 27 00 25 00 23 00 
      27.  00:4E66  21 00 1F 00 1D 00 1C 00 
      28.  00:4E6E                      	dw C_PER/128,C1_PER/128,D_PER/128,D1_PER/128,E_PER/128,F_PER/128,F1_PER/128,G_PER/128,G1_PER/128,A_PER/128,A1_PER/128,B_PER/128
      28.  00:4E6E  1A 00 19 00 17 00 16 00 15 00 13 00 12 00 11 00 
      28.  00:4E7E  10 00 0F 00 0E 00 0E 00 
      29.  00:4E86                      
      30.  00:4E86                      
      31.  00:4E86                      TRACK_Vibrato_sine:
      32.  00:4E86                      	db	 0*2,	2*2, 4*2, 7*2,11*2,16*2,22*2,28*2,35*2,43*2,51*2,59*2,68*2,77*2,87*2,96*2
      32.  00:4E86  00 04 08 0E 16 20 2C 38 46 56 66 76 88 9A AE C0 
      33.  00:4E96                      	db	96*2,86*2,77*2,68*2,59*2,51*2,43*2,35*2,28*2,22*2,16*2,11*2, 7*2,	4*2, 2*2, 0*2
      33.  00:4E96  C0 AC 9A 88 76 66 56 46 38 2C 20 16 0E 08 04 00 
      34.  00:4EA6                      
      35.  00:4EA6                      TRACK_Vibrato_triangle:
      36.  00:4EA6                      	db	 0, 6,12,18,24,30,36,42,48,54,60,66,72,78,84,90
      36.  00:4EA6  00 06 0C 12 18 1E 24 2A 30 36 3C 42 48 4E 54 5A 
      37.  00:4EB6                      	db	96,90,84,78,72,66,60,54,48,42,36,30,24,18,12, 6
      37.  00:4EB6  60 5A 54 4E 48 42 3C 36 30 2A 24 1E 18 12 0C 06 
      38.  00:4EC6                      
      39.  00:4EC6                      TRACK_Vibrato_pulse:
      40.  00:4EC6                      	db	255,255,255,255,255,255,255,255,255,255,255,255,255,255,255,255
      40.  00:4EC6  FF FF FF FF FF FF FF FF FF FF FF FF FF FF FF FF 
      41.  00:4ED6                      	db      0,  0,  0,  0,  0,  0,  0,  0,  0,  0,  0,  0,  0,  0,  0,  0	
      41.  00:4ED6  00 00 00 00 00 00 00 00 00 00 00 00 00 00 00 00 
      42.  00:4EE6                      	
     130   00:4EE6                      ;	include	"..\ttsfxplay\ttsfxplay.asm"
     131   00:4EE6                      	
     132   00:4EE6                      demo_song:
     133   00:4EE6                      	include	".\valk.asm"
       1.  00:4EE6                      ; Compiled using tt_compile.exe V0.5.0 [06-09-2019]
       2.  00:4EE6                      ; Copyright 2016 Richard Cornelisse
       3.  00:4EE6                      
       4.  00:4EE6                      ; Song: Cosmic Valkyrie Crystalline     
       5.  00:4EE6                      ; By:   John Hassink, 1994-2019         
       6.  00:4EE6                      
       7.  00:4EE6                      ;	org $c000
       8.  00:4EE6                      
       9.  00:4EE6                      ; [ Song start data ]
      10.  00:4EE6  09                  	db $09				; Initial song speed.
      11.  00:4EE7  01 50               	dw .customvoice_start 		; Start of the custom voices data.
      12.  00:4EE9  21 50               	dw .drummacro_start 		; Start of the drum macro data.
      13.  00:4EEB  A8 50               	dw .instrument_start 		; Start of the instrument data.
      14.  00:4EED                      
      15.  00:4EED                      ; [ Song order pointer list ]
      16.  00:4EED                      		dw .track_0,.track_1,.track_2,.track_3,.track_4,.track_5,.track_6,.track_7		; Sequence step 0 /pattern 0
      16.  00:4EED  30 52 49 52 53 52 5E 52 65 52 6C 52 75 52 7C 52 
      17.  00:4EFD                      .restart:
      18.  00:4EFD                      		dw .track_8,.track_9,.track_9,.track_10,.track_11,.track_12,.track_13,.track_14		; Sequence step 1 /pattern 1
      18.  00:4EFD  83 52 D5 52 D5 52 F7 52 48 53 61 53 93 53 C7 53 
      19.  00:4F0D                      		dw .track_15,.track_16,.track_16,.track_17,.track_18,.track_19,.track_20,.track_21		; Sequence step 2 /pattern 2
      19.  00:4F0D  E2 53 2E 54 2E 54 50 54 A2 54 BB 54 F3 54 25 55 
      20.  00:4F1D                      		dw .track_22,.track_23,.track_23,.track_24,.track_25,.track_26,.track_27,.track_28		; Sequence step 3 /pattern 3
      20.  00:4F1D  40 55 70 55 70 55 82 55 BB 55 C8 55 E7 55 08 56 
      21.  00:4F2D                      		dw .track_29,.track_30,.track_31,.track_32,.track_11,.track_33,.track_13,.track_34		; Sequence step 4 /pattern 4
      21.  00:4F2D  17 56 6A 56 96 56 C2 56 48 53 19 57 93 53 51 57 
      22.  00:4F3D                      		dw .track_35,.track_36,.track_37,.track_38,.track_18,.track_39,.track_40,.track_21		; Sequence step 5 /pattern 5
      22.  00:4F3D  6C 57 BB 57 E8 57 10 58 A2 54 43 58 74 58 25 55 
      23.  00:4F4D                      		dw .track_41,.track_42,.track_42,.track_43,.track_44,.track_45,.track_46,.track_47		; Sequence step 6 /pattern 6
      23.  00:4F4D  A6 58 CF 58 CF 58 E1 58 07 59 13 59 33 59 55 59 
      24.  00:4F5D                      		dw .track_48,.track_49,.track_50,.track_51,.track_52,.track_53,.track_54,.track_55		; Sequence step 7 /pattern 7
      24.  00:4F5D  64 59 BA 59 FE 59 52 5A 95 5A D9 5A FE 5B 30 5C 
      25.  00:4F6D                      		dw .track_56,.track_57,.track_58,.track_59,.track_60,.track_61,.track_62,.track_63		; Sequence step 8 /pattern 8
      25.  00:4F6D  69 5C BC 5C 3F 5D 9E 5D 01 5E 43 5E 70 5F A7 5F 
      26.  00:4F7D                      		dw .track_64,.track_65,.track_66,.track_67,.track_60,.track_61,.track_68,.track_69		; Sequence step 9 /pattern 9
      26.  00:4F7D  04 60 51 60 93 60 E7 60 01 5E 43 5E 26 61 5A 61 
      27.  00:4F8D                      		dw .track_70,.track_71,.track_72,.track_73,.track_60,.track_61,.track_74,.track_75		; Sequence step 10 /pattern 10
      27.  00:4F8D  8D 61 CE 61 28 62 8A 62 01 5E 43 5E B2 62 E9 62 
      28.  00:4F9D                      		dw .track_76,.track_77,.track_77,.track_78,.track_79,.track_80,.track_81,.track_82		; Sequence step 11 /pattern 11
      28.  00:4F9D  1C 63 63 63 63 63 A3 63 DD 63 0C 64 4A 64 76 64 
      29.  00:4FAD                      		dw .track_83,.track_84,.track_84,.track_85,.track_86,.track_87,.track_88,.track_85		; Sequence step 12 /pattern 12
      29.  00:4FAD  B0 64 FE 64 FE 64 34 65 50 65 7D 65 99 65 34 65 
      30.  00:4FBD                      		dw .track_89,.track_90,.track_90,.track_91,.track_92,.track_93,.track_94,.track_91		; Sequence step 13 /pattern 13
      30.  00:4FBD  C5 65 0A 66 0A 66 3A 66 72 66 A3 66 DC 66 3A 66 
      31.  00:4FCD                      		dw .track_95,.track_96,.track_96,.track_97,.track_98,.track_99,.track_100,.track_97		; Sequence step 14 /pattern 14
      31.  00:4FCD  0C 67 4B 67 4B 67 78 67 A0 67 BD 67 E6 67 78 67 
      32.  00:4FDD                      		dw .track_101,.track_102,.track_103,.track_104,.track_105,.track_106,.track_107,.track_108		; Sequence step 15 /pattern 15
      32.  00:4FDD  01 68 43 68 76 68 A9 68 C3 68 E2 68 08 69 2E 69 
      33.  00:4FED                      		dw .track_109,.track_110,.track_111,.track_112,.track_113,.track_114,.track_115,.track_116		; Sequence step 16 /pattern 16
      33.  00:4FED  56 69 90 69 AC 69 C9 69 DF 69 F1 69 07 6A 1B 6A 
      34.  00:4FFD  00 00 FD 4E         		dw 0x0000, .restart			; End of sequence delimiter + restart address.
      35.  00:5001                      
      36.  00:5001                      .customvoice_start:
      37.  00:5001                      	db $20,$71,$0D,$06,$C1,$D5,$56,$06	; Custom voice 0(was 44)
      37.  00:5001  20 71 0D 06 C1 D5 56 06 
      38.  00:5009                      	db $61,$61,$1B,$07,$C5,$96,$F5,$F6	; Custom voice 1(was 155)
      38.  00:5009  61 61 1B 07 C5 96 F5 F6 
      39.  00:5011                      	db $61,$61,$18,$07,$C5,$96,$F5,$F6	; Custom voice 2(was 156)
      39.  00:5011  61 61 18 07 C5 96 F5 F6 
      40.  00:5019                      	db $61,$61,$1F,$07,$C5,$96,$F5,$F6	; Custom voice 3(was 157)
      40.  00:5019  61 61 1F 07 C5 96 F5 F6 
      41.  00:5021                      
      42.  00:5021                      .drummacro_start:
      43.  00:5021  33 50               	dw .drm_1
      44.  00:5023  3E 50               	dw .drm_2
      45.  00:5025  5B 50               	dw .drm_3
      46.  00:5027  66 50               	dw .drm_4
      47.  00:5029  71 50               	dw .drm_5
      48.  00:502B  7C 50               	dw .drm_6
      49.  00:502D  87 50               	dw .drm_7
      50.  00:502F  92 50               	dw .drm_8
      51.  00:5031  9D 50               	dw .drm_9
      52.  00:5033                      
      53.  00:5033                      .drm_1:						;  (was 1)
      54.  00:5033                      	;  Flg,Prc,Ton, vB,Ton,vHS,Ton,vTC
      55.  00:5033                      	db $FE,$15,$20,$0F,$32,$11,$01,$F1		; 11111110
      55.  00:5033  FE 15 20 0F 32 11 01 F1 
      56.  00:503B  00                  	db $00                            		; 00000000
      57.  00:503C  00                  	db $00                            		; 00000000
      58.  00:503D  01                  	db $01                            		; 00000001
      59.  00:503E                      .drm_2:						;  (was 2)
      60.  00:503E                      	;  Flg,Prc,Ton, vB,Ton,vHS,Ton,vTC
      61.  00:503E                      	db $FE,$1C,$2B,$0E,$13,$0A,$0B,$E1		; 11111110
      61.  00:503E  FE 1C 2B 0E 13 0A 0B E1 
      62.  00:5046  50 28 10            	db $50    ,$28    ,$10            		; 01010000
      63.  00:5049  50 26 0E            	db $50    ,$26    ,$0E            		; 01010000
      64.  00:504C  50 24 0C            	db $50    ,$24    ,$0C            		; 01010000
      65.  00:504F  50 23 0B            	db $50    ,$23    ,$0B            		; 01010000
      66.  00:5052  50 21 09            	db $50    ,$21    ,$09            		; 01010000
      67.  00:5055  50 1F 07            	db $50    ,$1F    ,$07            		; 01010000
      68.  00:5058  51 1D 05            	db $51    ,$1D    ,$05            		; 01010001
      69.  00:505B                      .drm_3:						;  (was 4)
      70.  00:505B                      	;  Flg,Prc,Ton, vB,Ton,vHS,Ton,vTC
      71.  00:505B                      	db $FE,$01,$20,$01,$32,$E1,$16,$11		; 11111110
      71.  00:505B  FE 01 20 01 32 E1 16 11 
      72.  00:5063  00                  	db $00                            		; 00000000
      73.  00:5064  00                  	db $00                            		; 00000000
      74.  00:5065  01                  	db $01                            		; 00000001
      75.  00:5066                      .drm_4:						;  (was 5)
      76.  00:5066                      	;  Flg,Prc,Ton, vB,Ton,vHS,Ton,vTC
      77.  00:5066                      	db $FE,$02,$20,$01,$32,$11,$14,$FE		; 11111110
      77.  00:5066  FE 02 20 01 32 11 14 FE 
      78.  00:506E  00                  	db $00                            		; 00000000
      79.  00:506F  00                  	db $00                            		; 00000000
      80.  00:5070  01                  	db $01                            		; 00000001
      81.  00:5071                      .drm_5:						;  (was 6)
      82.  00:5071                      	;  Flg,Prc,Ton, vB,Ton,vHS,Ton,vTC
      83.  00:5071                      	db $FE,$12,$20,$0F,$32,$11,$14,$FE		; 11111110
      83.  00:5071  FE 12 20 0F 32 11 14 FE 
      84.  00:5079  00                  	db $00                            		; 00000000
      85.  00:507A  00                  	db $00                            		; 00000000
      86.  00:507B  01                  	db $01                            		; 00000001
      87.  00:507C                      .drm_6:						;  (was 11)
      88.  00:507C                      	;  Flg,Prc,Ton, vB,Ton,vHS,Ton,vTC
      89.  00:507C                      	db $FE,$15,$20,$0F,$32,$E1,$16,$11		; 11111110
      89.  00:507C  FE 15 20 0F 32 E1 16 11 
      90.  00:5084  00                  	db $00                            		; 00000000
      91.  00:5085  00                  	db $00                            		; 00000000
      92.  00:5086  01                  	db $01                            		; 00000001
      93.  00:5087                      .drm_7:						;  (was 12)
      94.  00:5087                      	;  Flg,Prc,Ton, vB,Ton,vHS,Ton,vTC
      95.  00:5087                      	db $FE,$12,$20,$0F,$32,$11,$14,$FE		; 11111110
      95.  00:5087  FE 12 20 0F 32 11 14 FE 
      96.  00:508F  00                  	db $00                            		; 00000000
      97.  00:5090  00                  	db $00                            		; 00000000
      98.  00:5091  01                  	db $01                            		; 00000001
      99.  00:5092                      .drm_8:						;  (was 14)
     100.  00:5092                      	;  Flg,Prc,Ton, vB,Ton,vHS,Ton,vTC
     101.  00:5092                      	db $FE,$02,$20,$01,$32,$11,$14,$FC		; 11111110
     101.  00:5092  FE 02 20 01 32 11 14 FC 
     102.  00:509A  00                  	db $00                            		; 00000000
     103.  00:509B  00                  	db $00                            		; 00000000
     104.  00:509C  01                  	db $01                            		; 00000001
     105.  00:509D                      .drm_9:						;  (was 15)
     106.  00:509D                      	;  Flg,Prc,Ton, vB,Ton,vHS,Ton,vTC
     107.  00:509D                      	db $FE,$02,$20,$01,$32,$11,$14,$FD		; 11111110
     107.  00:509D  FE 02 20 01 32 11 14 FD 
     108.  00:50A5  00                  	db $00                            		; 00000000
     109.  00:50A6  00                  	db $00                            		; 00000000
     110.  00:50A7  01                  	db $01                            		; 00000001
     111.  00:50A8                      
     112.  00:50A8                      .instrument_start:
     113.  00:50A8  CE 50               	dw .ins_1
     114.  00:50AA  F5 50               	dw .ins_2
     115.  00:50AC  FA 50               	dw .ins_3
     116.  00:50AE  06 51               	dw .ins_4
     117.  00:50B0  0B 51               	dw .ins_5
     118.  00:50B2  10 51               	dw .ins_6
     119.  00:50B4  15 51               	dw .ins_7
     120.  00:50B6  21 51               	dw .ins_8
     121.  00:50B8  56 51               	dw .ins_9
     122.  00:50BA  9D 51               	dw .ins_10
     123.  00:50BC  9D 51               	dw .ins_11
     124.  00:50BE  AC 51               	dw .ins_12
     125.  00:50C0  B1 51               	dw .ins_13
     126.  00:50C2  B6 51               	dw .ins_14
     127.  00:50C4  BB 51               	dw .ins_15
     128.  00:50C6  EE 51               	dw .ins_16
     129.  00:50C8  21 52               	dw .ins_17
     130.  00:50CA  26 52               	dw .ins_18
     131.  00:50CC  2B 52               	dw .ins_19
     132.  00:50CE                      .ins_1:				;                 
     133.  00:50CE  0F                  		db 15					; Hardware voice
     134.  00:50CF                      		;  Flg,Vol,Noi,Lnk,Tone
     135.  00:50CF  15 0C E1 FF         		db $15,$0C        ,$E1,$FF		; 00010101
     136.  00:50D3  15 0C 1F 00         		db $15,$0C        ,$1F,$00		; 00010101
     137.  00:50D7  11 0C               		db $11,$0C                		; 00010001
     138.  00:50D9  11 0C               		db $11,$0C                		; 00010001
     139.  00:50DB                      .rst_i1:
     140.  00:50DB  15 0C 01 00         		db $15,$0C        ,$01,$00		; 00010101
     141.  00:50DF  15 0C FF FF         		db $15,$0C        ,$FF,$FF		; 00010101
     142.  00:50E3  11 0C               		db $11,$0C                		; 00010001
     143.  00:50E5  11 0C               		db $11,$0C                		; 00010001
     144.  00:50E7  15 0C FF FF         		db $15,$0C        ,$FF,$FF		; 00010101
     145.  00:50EB  15 0C 01 00         		db $15,$0C        ,$01,$00		; 00010101
     146.  00:50EF  11 0C               		db $11,$0C                		; 00010001
     147.  00:50F1  19 0C               		db $19,$0C                		; 00011001
     148.  00:50F3  DB 50               		dw .rst_i1
     149.  00:50F5                      
     150.  00:50F5                      .ins_2:				;                 
     151.  00:50F5  01                  		db 1					; Hardware voice
     152.  00:50F6                      		;  Flg,Vol,Noi,Lnk,Tone
     153.  00:50F6                      .rst_i2:
     154.  00:50F6  19 0F               		db $19,$0F                		; 00011001
     155.  00:50F8  F6 50               		dw .rst_i2
     156.  00:50FA                      
     157.  00:50FA                      .ins_3:				;                 
     158.  00:50FA  0C                  		db 12					; Hardware voice
     159.  00:50FB                      		;  Flg,Vol,Noi,Lnk,Tone
     160.  00:50FB  11 0C 06            		db $11,$0C,$06            		; 00010001
     161.  00:50FE  11 0C 0C            		db $11,$0C,$0C            		; 00010001
     162.  00:5101                      .rst_i3:
     163.  00:5101  19 0C 0C            		db $19,$0C,$0C            		; 00011001
     164.  00:5104  01 51               		dw .rst_i3
     165.  00:5106                      
     166.  00:5106                      .ins_4:				;                 
     167.  00:5106  10                  		db 16					; Custom voice (was 44)
     168.  00:5107                      		;  Flg,Vol,Noi,Lnk,Tone
     169.  00:5107                      .rst_i4:
     170.  00:5107  19 0C               		db $19,$0C                		; 00011001
     171.  00:5109  07 51               		dw .rst_i4
     172.  00:510B                      
     173.  00:510B                      .ins_5:				;                 
     174.  00:510B  07                  		db 7					; Hardware voice
     175.  00:510C                      		;  Flg,Vol,Noi,Lnk,Tone
     176.  00:510C                      .rst_i5:
     177.  00:510C  19 0F               		db $19,$0F                		; 00011001
     178.  00:510E  0C 51               		dw .rst_i5
     179.  00:5110                      
     180.  00:5110                      .ins_6:				;                 
     181.  00:5110  08                  		db 8					; Hardware voice
     182.  00:5111                      		;  Flg,Vol,Noi,Lnk,Tone
     183.  00:5111                      .rst_i6:
     184.  00:5111  19 0F               		db $19,$0F                		; 00011001
     185.  00:5113  11 51               		dw .rst_i6
     186.  00:5115                      
     187.  00:5115                      .ins_7:				;                 
     188.  00:5115  01                  		db 1					; Hardware voice
     189.  00:5116                      		;  Flg,Vol,Noi,Lnk,Tone
     190.  00:5116  31 0F 09            		db $31,$0F,$09            		; 00110001
     191.  00:5119  31 0F 09            		db $31,$0F,$09            		; 00110001
     192.  00:511C                      .rst_i7:
     193.  00:511C  39 0F 01            		db $39,$0F,$01            		; 00111001
     194.  00:511F  1C 51               		dw .rst_i7
     195.  00:5121                      
     196.  00:5121                      .ins_8:				;                 
     197.  00:5121  0C                  		db 12					; Hardware voice
     198.  00:5122                      		;  Flg,Vol,Noi,Lnk,Tone
     199.  00:5122  11 0C 06            		db $11,$0C,$06            		; 00010001
     200.  00:5125  11 0C 0C            		db $11,$0C,$0C            		; 00010001
     201.  00:5128  11 0C 0C            		db $11,$0C,$0C            		; 00010001
     202.  00:512B  11 0C 0C            		db $11,$0C,$0C            		; 00010001
     203.  00:512E  11 0C 0C            		db $11,$0C,$0C            		; 00010001
     204.  00:5131  11 0C 0C            		db $11,$0C,$0C            		; 00010001
     205.  00:5134  11 0C 0C            		db $11,$0C,$0C            		; 00010001
     206.  00:5137  11 0C 0C            		db $11,$0C,$0C            		; 00010001
     207.  00:513A                      .rst_i8:
     208.  00:513A  15 08 06 01 00      		db $15,$08,$06    ,$01,$00		; 00010101
     209.  00:513F  11 08 0C            		db $11,$08,$0C            		; 00010001
     210.  00:5142  11 08 0C            		db $11,$08,$0C            		; 00010001
     211.  00:5145  11 08 0C            		db $11,$08,$0C            		; 00010001
     212.  00:5148  11 08 0C            		db $11,$08,$0C            		; 00010001
     213.  00:514B  11 08 0C            		db $11,$08,$0C            		; 00010001
     214.  00:514E  11 08 0C            		db $11,$08,$0C            		; 00010001
     215.  00:5151  19 08 0C            		db $19,$08,$0C            		; 00011001
     216.  00:5154  3A 51               		dw .rst_i8
     217.  00:5156                      
     218.  00:5156                      .ins_9:				;                 
     219.  00:5156  00                  		db 0					; Hardware voice
     220.  00:5157                      		;  Flg,Vol,Noi,Lnk,Tone
     221.  00:5157  A1 0A 03            		db $A1,$0A,$03            		; 10100001
     222.  00:515A  A1 09 03            		db $A1,$09,$03            		; 10100001
     223.  00:515D  A1 08 03            		db $A1,$08,$03            		; 10100001
     224.  00:5160  A1 07 03            		db $A1,$07,$03            		; 10100001
     225.  00:5163  A1 06 03            		db $A1,$06,$03            		; 10100001
     226.  00:5166  A1 06 03            		db $A1,$06,$03            		; 10100001
     227.  00:5169  A1 06 07            		db $A1,$06,$07            		; 10100001
     228.  00:516C  A1 05 07            		db $A1,$05,$07            		; 10100001
     229.  00:516F  A1 05 07            		db $A1,$05,$07            		; 10100001
     230.  00:5172  A1 05 07            		db $A1,$05,$07            		; 10100001
     231.  00:5175  A1 04 07            		db $A1,$04,$07            		; 10100001
     232.  00:5178  A1 04 07            		db $A1,$04,$07            		; 10100001
     233.  00:517B  A1 04 0B            		db $A1,$04,$0B            		; 10100001
     234.  00:517E  A1 03 0B            		db $A1,$03,$0B            		; 10100001
     235.  00:5181  A1 03 0B            		db $A1,$03,$0B            		; 10100001
     236.  00:5184  A1 03 0B            		db $A1,$03,$0B            		; 10100001
     237.  00:5187  A1 03 0B            		db $A1,$03,$0B            		; 10100001
     238.  00:518A  A1 03 0B            		db $A1,$03,$0B            		; 10100001
     239.  00:518D  A1 03 0F            		db $A1,$03,$0F            		; 10100001
     240.  00:5190  A1 01 0F            		db $A1,$01,$0F            		; 10100001
     241.  00:5193  A1 01 0F            		db $A1,$01,$0F            		; 10100001
     242.  00:5196  A1 01 0F            		db $A1,$01,$0F            		; 10100001
     243.  00:5199                      .rst_i9:
     244.  00:5199  09 00               		db $09,$00                		; 00001001
     245.  00:519B  99 51               		dw .rst_i9
     246.  00:519D                      
     247.  00:519D                      .ins_10:				;                 
     248.  00:519D                      .ins_11:				;                 
     249.  00:519D  07                  		db 7					; Hardware voice
     250.  00:519E                      		;  Flg,Vol,Noi,Lnk,Tone
     251.  00:519E  15 0F FF FF         		db $15,$0F        ,$FF,$FF		; 00010101
     252.  00:51A2  15 0F 01 00         		db $15,$0F        ,$01,$00		; 00010101
     253.  00:51A6  11 0F               		db $11,$0F                		; 00010001
     254.  00:51A8                      .rst_i11:
     255.  00:51A8  19 0F               		db $19,$0F                		; 00011001
     256.  00:51AA  A8 51               		dw .rst_i11
     257.  00:51AC                      
     258.  00:51AC                      .ins_12:				;                 
     259.  00:51AC  13                  		db 19					; Custom voice (was 157)
     260.  00:51AD                      		;  Flg,Vol,Noi,Lnk,Tone
     261.  00:51AD                      .rst_i12:
     262.  00:51AD  19 0E               		db $19,$0E                		; 00011001
     263.  00:51AF  AD 51               		dw .rst_i12
     264.  00:51B1                      
     265.  00:51B1                      .ins_13:				;                 
     266.  00:51B1  11                  		db 17					; Custom voice (was 155)
     267.  00:51B2                      		;  Flg,Vol,Noi,Lnk,Tone
     268.  00:51B2                      .rst_i13:
     269.  00:51B2  19 0E               		db $19,$0E                		; 00011001
     270.  00:51B4  B2 51               		dw .rst_i13
     271.  00:51B6                      
     272.  00:51B6                      .ins_14:				;                 
     273.  00:51B6  12                  		db 18					; Custom voice (was 156)
     274.  00:51B7                      		;  Flg,Vol,Noi,Lnk,Tone
     275.  00:51B7                      .rst_i14:
     276.  00:51B7  19 0E               		db $19,$0E                		; 00011001
     277.  00:51B9  B7 51               		dw .rst_i14
     278.  00:51BB                      
     279.  00:51BB                      .ins_15:				;                 
     280.  00:51BB  00                  		db 0					; Hardware voice
     281.  00:51BC                      		;  Flg,Vol,Noi,Lnk,Tone
     282.  00:51BC  11 0D               		db $11,$0D                		; 00010001
     283.  00:51BE  11 0E               		db $11,$0E                		; 00010001
     284.  00:51C0  11 0F               		db $11,$0F                		; 00010001
     285.  00:51C2  11 0E               		db $11,$0E                		; 00010001
     286.  00:51C4  11 0E               		db $11,$0E                		; 00010001
     287.  00:51C6  11 0D               		db $11,$0D                		; 00010001
     288.  00:51C8  11 0D               		db $11,$0D                		; 00010001
     289.  00:51CA  11 0C               		db $11,$0C                		; 00010001
     290.  00:51CC                      .rst_i15:
     291.  00:51CC  15 0B 01 00         		db $15,$0B        ,$01,$00		; 00010101
     292.  00:51D0  15 0B 02 00         		db $15,$0B        ,$02,$00		; 00010101
     293.  00:51D4  15 0B FE FF         		db $15,$0B        ,$FE,$FF		; 00010101
     294.  00:51D8  15 0B FF FF         		db $15,$0B        ,$FF,$FF		; 00010101
     295.  00:51DC  15 0B FF FF         		db $15,$0B        ,$FF,$FF		; 00010101
     296.  00:51E0  15 0B FE FF         		db $15,$0B        ,$FE,$FF		; 00010101
     297.  00:51E4  15 0B 02 00         		db $15,$0B        ,$02,$00		; 00010101
     298.  00:51E8  1D 0B 01 00         		db $1D,$0B        ,$01,$00		; 00011101
     299.  00:51EC  CC 51               		dw .rst_i15
     300.  00:51EE                      
     301.  00:51EE                      .ins_16:				;                 
     302.  00:51EE  00                  		db 0					; Hardware voice
     303.  00:51EF                      		;  Flg,Vol,Noi,Lnk,Tone
     304.  00:51EF  11 07               		db $11,$07                		; 00010001
     305.  00:51F1  11 06               		db $11,$06                		; 00010001
     306.  00:51F3  11 05               		db $11,$05                		; 00010001
     307.  00:51F5  11 04               		db $11,$04                		; 00010001
     308.  00:51F7  11 05               		db $11,$05                		; 00010001
     309.  00:51F9  11 05               		db $11,$05                		; 00010001
     310.  00:51FB  11 06               		db $11,$06                		; 00010001
     311.  00:51FD  11 06               		db $11,$06                		; 00010001
     312.  00:51FF                      .rst_i16:
     313.  00:51FF  15 07 02 00         		db $15,$07        ,$02,$00		; 00010101
     314.  00:5203  15 07 02 00         		db $15,$07        ,$02,$00		; 00010101
     315.  00:5207  15 07 FE FF         		db $15,$07        ,$FE,$FF		; 00010101
     316.  00:520B  15 07 FE FF         		db $15,$07        ,$FE,$FF		; 00010101
     317.  00:520F  15 07 FE FF         		db $15,$07        ,$FE,$FF		; 00010101
     318.  00:5213  15 07 FE FF         		db $15,$07        ,$FE,$FF		; 00010101
     319.  00:5217  15 07 02 00         		db $15,$07        ,$02,$00		; 00010101
     320.  00:521B  1D 07 02 00         		db $1D,$07        ,$02,$00		; 00011101
     321.  00:521F  FF 51               		dw .rst_i16
     322.  00:5221                      
     323.  00:5221                      .ins_17:				;                 
     324.  00:5221  0A                  		db 10					; Hardware voice
     325.  00:5222                      		;  Flg,Vol,Noi,Lnk,Tone
     326.  00:5222                      .rst_i17:
     327.  00:5222  19 0F               		db $19,$0F                		; 00011001
     328.  00:5224  22 52               		dw .rst_i17
     329.  00:5226                      
     330.  00:5226                      .ins_18:				;                 
     331.  00:5226  03                  		db 3					; Hardware voice
     332.  00:5227                      		;  Flg,Vol,Noi,Lnk,Tone
     333.  00:5227                      .rst_i18:
     334.  00:5227  19 0F               		db $19,$0F                		; 00011001
     335.  00:5229  27 52               		dw .rst_i18
     336.  00:522B                      
     337.  00:522B                      .ins_19:				;                 
     338.  00:522B  09                  		db 9					; Hardware voice
     339.  00:522C                      		;  Flg,Vol,Noi,Lnk,Tone
     340.  00:522C                      .rst_i19:
     341.  00:522C  19 0D               		db $19,$0D                		; 00011001
     342.  00:522E  2C 52               		dw .rst_i19
     343.  00:5230                      
     344.  00:5230                      
     345.  00:5230                      ; [ Song track data ]
     346.  00:5230                      .track_0:
     347.  00:5230  26                  	db $26		;[Note] 39
     348.  00:5231  6F                  	db $6F		;[Volume] 15
     349.  00:5232  78                  	db $78		;[Instrument] 9
     350.  00:5233  91 02               	db $91, $02		;[FM drum] 2
     351.  00:5235  C0                  	db $C0		;[Wait] 1
     352.  00:5236  26                  	db $26		;[Note] 39
     353.  00:5237  91 02               	db $91, $02		;[FM drum] 2
     354.  00:5239  C1                  	db $C1		;[Wait] 2
     355.  00:523A  91 01               	db $91, $01		;[FM drum] 1
     356.  00:523C  C0                  	db $C0		;[Wait] 1
     357.  00:523D  26                  	db $26		;[Note] 39
     358.  00:523E  91 02               	db $91, $02		;[FM drum] 2
     359.  00:5240  C1                  	db $C1		;[Wait] 2
     360.  00:5241  26                  	db $26		;[Note] 39
     361.  00:5242  91 02               	db $91, $02		;[FM drum] 2
     362.  00:5244  C0                  	db $C0		;[Wait] 1
     363.  00:5245  26                  	db $26		;[Note] 39
     364.  00:5246  91 02               	db $91, $02		;[FM drum] 2
     365.  00:5248                      				;[Skip delay] 1
     366.  00:5248  BF                  	db $BF		;[End-Of-Track]
     367.  00:5249                      .track_1:
     368.  00:5249  16                  	db $16		;[Note] 23
     369.  00:524A  6A                  	db $6A		;[Volume] 10
     370.  00:524B  7E                  	db $7E		;[Instrument] 15
     371.  00:524C  95 03               	db $95, $03		; track detune
     372.  00:524E  C1                  	db $C1		;[Wait] 2
     373.  00:524F  0A                  	db $0A		;[Note] 11
     374.  00:5250                      				;[Skip delay] 2
     375.  00:5250  17                  	db $17		;[Note] 24
     376.  00:5251                      				;[Skip delay] 2
     377.  00:5251  19                  	db $19		;[Note] 26
     378.  00:5252                      				;[Skip delay] 2
     379.  00:5252  BF                  	db $BF		;[End-Of-Track]
     380.  00:5253                      .track_2:
     381.  00:5253  16                  	db $16		;[Note] 23
     382.  00:5254  6F                  	db $6F		;[Volume] 15
     383.  00:5255  70                  	db $70		;[Instrument] 1
     384.  00:5256  C1                  	db $C1		;[Wait] 2
     385.  00:5257  0A                  	db $0A		;[Note] 11
     386.  00:5258                      				;[Skip delay] 2
     387.  00:5258  17                  	db $17		;[Note] 24
     388.  00:5259                      				;[Skip delay] 2
     389.  00:5259  19                  	db $19		;[Note] 26
     390.  00:525A  C0                  	db $C0		;[Wait] 1
     391.  00:525B  A5 02               	db $A5, $02		; slide-down
     392.  00:525D                      				;[Skip delay] 1
     393.  00:525D  BF                  	db $BF		;[End-Of-Track]
     394.  00:525E                      .track_3:
     395.  00:525E  60                  	db $60		;[Note] 97
     396.  00:525F  6F                  	db $6F		;[Volume] 15
     397.  00:5260  71                  	db $71		;[Instrument] 2
     398.  00:5261  C5                  	db $C5		;[Wait] 6
     399.  00:5262  31                  	db $31		;[Note] 50
     400.  00:5263  C1                  	db $C1		;[Wait] 2
     401.  00:5264  BF                  	db $BF		;[End-Of-Track]
     402.  00:5265                      .track_4:
     403.  00:5265  60                  	db $60		;[Note] 97
     404.  00:5266  6F                  	db $6F		;[Volume] 15
     405.  00:5267  72                  	db $72		;[Instrument] 3
     406.  00:5268  C5                  	db $C5		;[Wait] 6
     407.  00:5269  31                  	db $31		;[Note] 50
     408.  00:526A  C1                  	db $C1		;[Wait] 2
     409.  00:526B  BF                  	db $BF		;[End-Of-Track]
     410.  00:526C                      .track_5:
     411.  00:526C  60                  	db $60		;[Note] 97
     412.  00:526D  6F                  	db $6F		;[Volume] 15
     413.  00:526E  73                  	db $73		;[Instrument] 4
     414.  00:526F  95 02               	db $95, $02		; track detune
     415.  00:5271  C5                  	db $C5		;[Wait] 6
     416.  00:5272  3D                  	db $3D		;[Note] 62
     417.  00:5273  C1                  	db $C1		;[Wait] 2
     418.  00:5274  BF                  	db $BF		;[End-Of-Track]
     419.  00:5275                      .track_6:
     420.  00:5275  60                  	db $60		;[Note] 97
     421.  00:5276  69                  	db $69		;[Volume] 9
     422.  00:5277  74                  	db $74		;[Instrument] 5
     423.  00:5278  95 01               	db $95, $01		; track detune
     424.  00:527A  C7                  	db $C7		;[Wait] 8
     425.  00:527B  BF                  	db $BF		;[End-Of-Track]
     426.  00:527C                      .track_7:
     427.  00:527C  60                  	db $60		;[Note] 97
     428.  00:527D  6B                  	db $6B		;[Volume] 11
     429.  00:527E  72                  	db $72		;[Instrument] 3
     430.  00:527F  95 01               	db $95, $01		; track detune
     431.  00:5281  C7                  	db $C7		;[Wait] 8
     432.  00:5282  BF                  	db $BF		;[End-Of-Track]
     433.  00:5283                      .track_8:
     434.  00:5283  91 07               	db $91, $07		;[FM drum] 12
     435.  00:5285  C1                  	db $C1		;[Wait] 2
     436.  00:5286  91 03               	db $91, $03		;[FM drum] 4
     437.  00:5288                      				;[Skip delay] 2
     438.  00:5288  26                  	db $26		;[Note] 39
     439.  00:5289  91 02               	db $91, $02		;[FM drum] 2
     440.  00:528B                      				;[Skip delay] 2
     441.  00:528B  91 03               	db $91, $03		;[FM drum] 4
     442.  00:528D                      				;[Skip delay] 2
     443.  00:528D  91 06               	db $91, $06		;[FM drum] 11
     444.  00:528F                      				;[Skip delay] 2
     445.  00:528F  91 03               	db $91, $03		;[FM drum] 4
     446.  00:5291                      				;[Skip delay] 2
     447.  00:5291  26                  	db $26		;[Note] 39
     448.  00:5292  91 02               	db $91, $02		;[FM drum] 2
     449.  00:5294                      				;[Skip delay] 2
     450.  00:5294  91 03               	db $91, $03		;[FM drum] 4
     451.  00:5296                      				;[Skip delay] 2
     452.  00:5296  91 06               	db $91, $06		;[FM drum] 11
     453.  00:5298                      				;[Skip delay] 2
     454.  00:5298  91 03               	db $91, $03		;[FM drum] 4
     455.  00:529A                      				;[Skip delay] 2
     456.  00:529A  26                  	db $26		;[Note] 39
     457.  00:529B  91 02               	db $91, $02		;[FM drum] 2
     458.  00:529D                      				;[Skip delay] 2
     459.  00:529D  91 03               	db $91, $03		;[FM drum] 4
     460.  00:529F                      				;[Skip delay] 2
     461.  00:529F  91 06               	db $91, $06		;[FM drum] 11
     462.  00:52A1                      				;[Skip delay] 2
     463.  00:52A1  91 03               	db $91, $03		;[FM drum] 4
     464.  00:52A3                      				;[Skip delay] 2
     465.  00:52A3  26                  	db $26		;[Note] 39
     466.  00:52A4  91 02               	db $91, $02		;[FM drum] 2
     467.  00:52A6                      				;[Skip delay] 2
     468.  00:52A6  91 03               	db $91, $03		;[FM drum] 4
     469.  00:52A8                      				;[Skip delay] 2
     470.  00:52A8  91 06               	db $91, $06		;[FM drum] 11
     471.  00:52AA                      				;[Skip delay] 2
     472.  00:52AA  91 03               	db $91, $03		;[FM drum] 4
     473.  00:52AC                      				;[Skip delay] 2
     474.  00:52AC  26                  	db $26		;[Note] 39
     475.  00:52AD  91 02               	db $91, $02		;[FM drum] 2
     476.  00:52AF                      				;[Skip delay] 2
     477.  00:52AF  91 03               	db $91, $03		;[FM drum] 4
     478.  00:52B1                      				;[Skip delay] 2
     479.  00:52B1  91 06               	db $91, $06		;[FM drum] 11
     480.  00:52B3                      				;[Skip delay] 2
     481.  00:52B3  91 03               	db $91, $03		;[FM drum] 4
     482.  00:52B5                      				;[Skip delay] 2
     483.  00:52B5  26                  	db $26		;[Note] 39
     484.  00:52B6  91 02               	db $91, $02		;[FM drum] 2
     485.  00:52B8                      				;[Skip delay] 2
     486.  00:52B8  91 03               	db $91, $03		;[FM drum] 4
     487.  00:52BA                      				;[Skip delay] 2
     488.  00:52BA  91 06               	db $91, $06		;[FM drum] 11
     489.  00:52BC                      				;[Skip delay] 2
     490.  00:52BC  91 03               	db $91, $03		;[FM drum] 4
     491.  00:52BE                      				;[Skip delay] 2
     492.  00:52BE  26                  	db $26		;[Note] 39
     493.  00:52BF  91 02               	db $91, $02		;[FM drum] 2
     494.  00:52C1                      				;[Skip delay] 2
     495.  00:52C1  91 03               	db $91, $03		;[FM drum] 4
     496.  00:52C3                      				;[Skip delay] 2
     497.  00:52C3  91 06               	db $91, $06		;[FM drum] 11
     498.  00:52C5  C0                  	db $C0		;[Wait] 1
     499.  00:52C6  26                  	db $26		;[Note] 39
     500.  00:52C7  91 02               	db $91, $02		;[FM drum] 2
     501.  00:52C9                      				;[Skip delay] 1
     502.  00:52C9  91 03               	db $91, $03		;[FM drum] 4
     503.  00:52CB  C1                  	db $C1		;[Wait] 2
     504.  00:52CC  26                  	db $26		;[Note] 39
     505.  00:52CD  91 02               	db $91, $02		;[FM drum] 2
     506.  00:52CF                      				;[Skip delay] 2
     507.  00:52CF  91 04               	db $91, $04		;[FM drum] 5
     508.  00:52D1  C0                  	db $C0		;[Wait] 1
     509.  00:52D2  91 06               	db $91, $06		;[FM drum] 11
     510.  00:52D4                      				;[Skip delay] 1
     511.  00:52D4  BF                  	db $BF		;[End-Of-Track]
     512.  00:52D5                      .track_9:
     513.  00:52D5  0F                  	db $0F		;[Note] 16
     514.  00:52D6  C1                  	db $C1		;[Wait] 2
     515.  00:52D7  0F                  	db $0F		;[Note] 16
     516.  00:52D8                      				;[Skip delay] 2
     517.  00:52D8  1B                  	db $1B		;[Note] 28
     518.  00:52D9                      				;[Skip delay] 2
     519.  00:52D9  0F                  	db $0F		;[Note] 16
     520.  00:52DA                      				;[Skip delay] 2
     521.  00:52DA  19                  	db $19		;[Note] 26
     522.  00:52DB                      				;[Skip delay] 2
     523.  00:52DB  0D                  	db $0D		;[Note] 14
     524.  00:52DC                      				;[Skip delay] 2
     525.  00:52DC  0D                  	db $0D		;[Note] 14
     526.  00:52DD                      				;[Skip delay] 2
     527.  00:52DD  19                  	db $19		;[Note] 26
     528.  00:52DE                      				;[Skip delay] 2
     529.  00:52DE  17                  	db $17		;[Note] 24
     530.  00:52DF                      				;[Skip delay] 2
     531.  00:52DF  0B                  	db $0B		;[Note] 12
     532.  00:52E0                      				;[Skip delay] 2
     533.  00:52E0  12                  	db $12		;[Note] 19
     534.  00:52E1                      				;[Skip delay] 2
     535.  00:52E1  17                  	db $17		;[Note] 24
     536.  00:52E2                      				;[Skip delay] 2
     537.  00:52E2  19                  	db $19		;[Note] 26
     538.  00:52E3                      				;[Skip delay] 2
     539.  00:52E3  0D                  	db $0D		;[Note] 14
     540.  00:52E4                      				;[Skip delay] 2
     541.  00:52E4  17                  	db $17		;[Note] 24
     542.  00:52E5                      				;[Skip delay] 2
     543.  00:52E5  19                  	db $19		;[Note] 26
     544.  00:52E6                      				;[Skip delay] 2
     545.  00:52E6  0F                  	db $0F		;[Note] 16
     546.  00:52E7                      				;[Skip delay] 2
     547.  00:52E7  0F                  	db $0F		;[Note] 16
     548.  00:52E8                      				;[Skip delay] 2
     549.  00:52E8  1B                  	db $1B		;[Note] 28
     550.  00:52E9                      				;[Skip delay] 2
     551.  00:52E9  0F                  	db $0F		;[Note] 16
     552.  00:52EA                      				;[Skip delay] 2
     553.  00:52EA  19                  	db $19		;[Note] 26
     554.  00:52EB                      				;[Skip delay] 2
     555.  00:52EB  0D                  	db $0D		;[Note] 14
     556.  00:52EC                      				;[Skip delay] 2
     557.  00:52EC  0D                  	db $0D		;[Note] 14
     558.  00:52ED                      				;[Skip delay] 2
     559.  00:52ED  19                  	db $19		;[Note] 26
     560.  00:52EE                      				;[Skip delay] 2
     561.  00:52EE  0B                  	db $0B		;[Note] 12
     562.  00:52EF                      				;[Skip delay] 2
     563.  00:52EF  17                  	db $17		;[Note] 24
     564.  00:52F0                      				;[Skip delay] 2
     565.  00:52F0  0B                  	db $0B		;[Note] 12
     566.  00:52F1                      				;[Skip delay] 2
     567.  00:52F1  17                  	db $17		;[Note] 24
     568.  00:52F2                      				;[Skip delay] 2
     569.  00:52F2  16                  	db $16		;[Note] 23
     570.  00:52F3                      				;[Skip delay] 2
     571.  00:52F3  0A                  	db $0A		;[Note] 11
     572.  00:52F4                      				;[Skip delay] 2
     573.  00:52F4  17                  	db $17		;[Note] 24
     574.  00:52F5                      				;[Skip delay] 2
     575.  00:52F5  19                  	db $19		;[Note] 26
     576.  00:52F6                      				;[Skip delay] 2
     577.  00:52F6  BF                  	db $BF		;[End-Of-Track]
     578.  00:52F7                      .track_10:
     579.  00:52F7  33                  	db $33		;[Note] 52
     580.  00:52F8  C2                  	db $C2		;[Wait] 3
     581.  00:52F9  3F                  	db $3F		;[Note] 64
     582.  00:52FA  69                  	db $69		;[Volume] 9
     583.  00:52FB  95 01               	db $95, $01		; track detune
     584.  00:52FD  C0                  	db $C0		;[Wait] 1
     585.  00:52FE  3A                  	db $3A		;[Note] 59
     586.  00:52FF  6F                  	db $6F		;[Volume] 15
     587.  00:5300  95 00               	db $95, $00		; track detune
     588.  00:5302  C3                  	db $C3		;[Wait] 4
     589.  00:5303  38                  	db $38		;[Note] 57
     590.  00:5304  C1                  	db $C1		;[Wait] 2
     591.  00:5305  36                  	db $36		;[Note] 55
     592.  00:5306                      				;[Skip delay] 2
     593.  00:5306  35                  	db $35		;[Note] 54
     594.  00:5307  C2                  	db $C2		;[Wait] 3
     595.  00:5308  41                  	db $41		;[Note] 66
     596.  00:5309  69                  	db $69		;[Volume] 9
     597.  00:530A  95 01               	db $95, $01		; track detune
     598.  00:530C  C0                  	db $C0		;[Wait] 1
     599.  00:530D  38                  	db $38		;[Note] 57
     600.  00:530E  6F                  	db $6F		;[Volume] 15
     601.  00:530F  95 00               	db $95, $00		; track detune
     602.  00:5311  C2                  	db $C2		;[Wait] 3
     603.  00:5312  44                  	db $44		;[Note] 69
     604.  00:5313  69                  	db $69		;[Volume] 9
     605.  00:5314  95 01               	db $95, $01		; track detune
     606.  00:5316  C0                  	db $C0		;[Wait] 1
     607.  00:5317  31                  	db $31		;[Note] 50
     608.  00:5318  6F                  	db $6F		;[Volume] 15
     609.  00:5319  95 00               	db $95, $00		; track detune
     610.  00:531B  C1                  	db $C1		;[Wait] 2
     611.  00:531C  33                  	db $33		;[Note] 52
     612.  00:531D  C3                  	db $C3		;[Wait] 4
     613.  00:531E  35                  	db $35		;[Note] 54
     614.  00:531F                      				;[Skip delay] 4
     615.  00:531F  31                  	db $31		;[Note] 50
     616.  00:5320  C1                  	db $C1		;[Wait] 2
     617.  00:5321  33                  	db $33		;[Note] 52
     618.  00:5322  C3                  	db $C3		;[Wait] 4
     619.  00:5323  A7 78               	db $A7, $78		;[CMD vibrato]
     620.  00:5325  C0                  	db $C0		;[Wait] 1
     621.  00:5326  3F                  	db $3F		;[Note] 64
     622.  00:5327  69                  	db $69		;[Volume] 9
     623.  00:5328  95 01               	db $95, $01		; track detune
     624.  00:532A                      				;[Skip delay] 1
     625.  00:532A  38                  	db $38		;[Note] 57
     626.  00:532B  6F                  	db $6F		;[Volume] 15
     627.  00:532C  95 00               	db $95, $00		; track detune
     628.  00:532E  C1                  	db $C1		;[Wait] 2
     629.  00:532F  3A                  	db $3A		;[Note] 59
     630.  00:5330                      				;[Skip delay] 2
     631.  00:5330  38                  	db $38		;[Note] 57
     632.  00:5331                      				;[Skip delay] 2
     633.  00:5331  3A                  	db $3A		;[Note] 59
     634.  00:5332                      				;[Skip delay] 2
     635.  00:5332  3D                  	db $3D		;[Note] 62
     636.  00:5333                      				;[Skip delay] 2
     637.  00:5333  3A                  	db $3A		;[Note] 59
     638.  00:5334  C3                  	db $C3		;[Wait] 4
     639.  00:5335  A7 78               	db $A7, $78		;[CMD vibrato]
     640.  00:5337  C0                  	db $C0		;[Wait] 1
     641.  00:5338  B1 07               	db $B1, $07		;[CMD vibrato] rep
     642.  00:533A  C6                  	db $C6		;[Wait] 7
     643.  00:533B  A7 76               	db $A7, $76		;[CMD vibrato]
     644.  00:533D  C0                  	db $C0		;[Wait] 1
     645.  00:533E  46                  	db $46		;[Note] 71
     646.  00:533F  69                  	db $69		;[Volume] 9
     647.  00:5340  95 01               	db $95, $01		; track detune
     648.  00:5342                      				;[Skip delay] 1
     649.  00:5342  31                  	db $31		;[Note] 50
     650.  00:5343  6F                  	db $6F		;[Volume] 15
     651.  00:5344  95 00               	db $95, $00		; track detune
     652.  00:5346  C1                  	db $C1		;[Wait] 2
     653.  00:5347  BF                  	db $BF		;[End-Of-Track]
     654.  00:5348                      .track_11:
     655.  00:5348  33                  	db $33		;[Note] 52
     656.  00:5349  C3                  	db $C3		;[Wait] 4
     657.  00:534A  36                  	db $36		;[Note] 55
     658.  00:534B                      				;[Skip delay] 4
     659.  00:534B  35                  	db $35		;[Note] 54
     660.  00:534C  C5                  	db $C5		;[Wait] 6
     661.  00:534D  35                  	db $35		;[Note] 54
     662.  00:534E  C7                  	db $C7		;[Wait] 8
     663.  00:534F  33                  	db $33		;[Note] 52
     664.  00:5350  C3                  	db $C3		;[Wait] 4
     665.  00:5351  31                  	db $31		;[Note] 50
     666.  00:5352                      				;[Skip delay] 4
     667.  00:5352  2E                  	db $2E		;[Note] 47
     668.  00:5353  C1                  	db $C1		;[Wait] 2
     669.  00:5354  33                  	db $33		;[Note] 52
     670.  00:5355  C3                  	db $C3		;[Wait] 4
     671.  00:5356  36                  	db $36		;[Note] 55
     672.  00:5357                      				;[Skip delay] 4
     673.  00:5357  35                  	db $35		;[Note] 54
     674.  00:5358  C5                  	db $C5		;[Wait] 6
     675.  00:5359  35                  	db $35		;[Note] 54
     676.  00:535A  C7                  	db $C7		;[Wait] 8
     677.  00:535B  33                  	db $33		;[Note] 52
     678.  00:535C  C5                  	db $C5		;[Wait] 6
     679.  00:535D  35                  	db $35		;[Note] 54
     680.  00:535E  C1                  	db $C1		;[Wait] 2
     681.  00:535F  36                  	db $36		;[Note] 55
     682.  00:5360                      				;[Skip delay] 2
     683.  00:5360  BF                  	db $BF		;[End-Of-Track]
     684.  00:5361                      .track_12:
     685.  00:5361  3F                  	db $3F		;[Note] 64
     686.  00:5362  C2                  	db $C2		;[Wait] 3
     687.  00:5363  60                  	db $60		;[Note] 97
     688.  00:5364  C0                  	db $C0		;[Wait] 1
     689.  00:5365  46                  	db $46		;[Note] 71
     690.  00:5366  C3                  	db $C3		;[Wait] 4
     691.  00:5367  44                  	db $44		;[Note] 69
     692.  00:5368  C1                  	db $C1		;[Wait] 2
     693.  00:5369  42                  	db $42		;[Note] 67
     694.  00:536A                      				;[Skip delay] 2
     695.  00:536A  41                  	db $41		;[Note] 66
     696.  00:536B  C2                  	db $C2		;[Wait] 3
     697.  00:536C  69                  	db $69		;[Volume] 9
     698.  00:536D  C0                  	db $C0		;[Wait] 1
     699.  00:536E  44                  	db $44		;[Note] 69
     700.  00:536F  6F                  	db $6F		;[Volume] 15
     701.  00:5370  C2                  	db $C2		;[Wait] 3
     702.  00:5371  60                  	db $60		;[Note] 97
     703.  00:5372  C0                  	db $C0		;[Wait] 1
     704.  00:5373  3D                  	db $3D		;[Note] 62
     705.  00:5374  C1                  	db $C1		;[Wait] 2
     706.  00:5375  3F                  	db $3F		;[Note] 64
     707.  00:5376  C3                  	db $C3		;[Wait] 4
     708.  00:5377  41                  	db $41		;[Note] 66
     709.  00:5378                      				;[Skip delay] 4
     710.  00:5378  3D                  	db $3D		;[Note] 62
     711.  00:5379  C1                  	db $C1		;[Wait] 2
     712.  00:537A  3F                  	db $3F		;[Note] 64
     713.  00:537B  C3                  	db $C3		;[Wait] 4
     714.  00:537C  A7 77               	db $A7, $77		;[CMD vibrato]
     715.  00:537E  C0                  	db $C0		;[Wait] 1
     716.  00:537F  60                  	db $60		;[Note] 97
     717.  00:5380                      				;[Skip delay] 1
     718.  00:5380  44                  	db $44		;[Note] 69
     719.  00:5381  C1                  	db $C1		;[Wait] 2
     720.  00:5382  46                  	db $46		;[Note] 71
     721.  00:5383                      				;[Skip delay] 2
     722.  00:5383  44                  	db $44		;[Note] 69
     723.  00:5384                      				;[Skip delay] 2
     724.  00:5384  46                  	db $46		;[Note] 71
     725.  00:5385                      				;[Skip delay] 2
     726.  00:5385  49                  	db $49		;[Note] 74
     727.  00:5386                      				;[Skip delay] 2
     728.  00:5386  46                  	db $46		;[Note] 71
     729.  00:5387  C3                  	db $C3		;[Wait] 4
     730.  00:5388  A7 78               	db $A7, $78		;[CMD vibrato]
     731.  00:538A  C0                  	db $C0		;[Wait] 1
     732.  00:538B  B1 08               	db $B1, $08		;[CMD vibrato] rep
     733.  00:538D  C7                  	db $C7		;[Wait] 8
     734.  00:538E  60                  	db $60		;[Note] 97
     735.  00:538F  C0                  	db $C0		;[Wait] 1
     736.  00:5390  3D                  	db $3D		;[Note] 62
     737.  00:5391  C1                  	db $C1		;[Wait] 2
     738.  00:5392  BF                  	db $BF		;[End-Of-Track]
     739.  00:5393                      .track_13:
     740.  00:5393  C0                  	db $C0		;[Wait] 1
     741.  00:5394  31                  	db $31		;[Note] 50
     742.  00:5395  C1                  	db $C1		;[Wait] 2
     743.  00:5396  33                  	db $33		;[Note] 52
     744.  00:5397  C2                  	db $C2		;[Wait] 3
     745.  00:5398  60                  	db $60		;[Note] 97
     746.  00:5399  C0                  	db $C0		;[Wait] 1
     747.  00:539A  3A                  	db $3A		;[Note] 59
     748.  00:539B  C3                  	db $C3		;[Wait] 4
     749.  00:539C  38                  	db $38		;[Note] 57
     750.  00:539D  C1                  	db $C1		;[Wait] 2
     751.  00:539E  36                  	db $36		;[Note] 55
     752.  00:539F                      				;[Skip delay] 2
     753.  00:539F  35                  	db $35		;[Note] 54
     754.  00:53A0  C3                  	db $C3		;[Wait] 4
     755.  00:53A1  38                  	db $38		;[Note] 57
     756.  00:53A2  C2                  	db $C2		;[Wait] 3
     757.  00:53A3  60                  	db $60		;[Note] 97
     758.  00:53A4  C0                  	db $C0		;[Wait] 1
     759.  00:53A5  31                  	db $31		;[Note] 50
     760.  00:53A6  C1                  	db $C1		;[Wait] 2
     761.  00:53A7  33                  	db $33		;[Note] 52
     762.  00:53A8  C3                  	db $C3		;[Wait] 4
     763.  00:53A9  35                  	db $35		;[Note] 54
     764.  00:53AA                      				;[Skip delay] 4
     765.  00:53AA  31                  	db $31		;[Note] 50
     766.  00:53AB  C1                  	db $C1		;[Wait] 2
     767.  00:53AC  33                  	db $33		;[Note] 52
     768.  00:53AD  C3                  	db $C3		;[Wait] 4
     769.  00:53AE  A7 76               	db $A7, $76		;[CMD vibrato]
     770.  00:53B0  C0                  	db $C0		;[Wait] 1
     771.  00:53B1  60                  	db $60		;[Note] 97
     772.  00:53B2                      				;[Skip delay] 1
     773.  00:53B2  38                  	db $38		;[Note] 57
     774.  00:53B3  C1                  	db $C1		;[Wait] 2
     775.  00:53B4  3A                  	db $3A		;[Note] 59
     776.  00:53B5                      				;[Skip delay] 2
     777.  00:53B5  38                  	db $38		;[Note] 57
     778.  00:53B6                      				;[Skip delay] 2
     779.  00:53B6  3A                  	db $3A		;[Note] 59
     780.  00:53B7                      				;[Skip delay] 2
     781.  00:53B7  3D                  	db $3D		;[Note] 62
     782.  00:53B8                      				;[Skip delay] 2
     783.  00:53B8  3A                  	db $3A		;[Note] 59
     784.  00:53B9  C3                  	db $C3		;[Wait] 4
     785.  00:53BA  A7 77               	db $A7, $77		;[CMD vibrato]
     786.  00:53BC  C0                  	db $C0		;[Wait] 1
     787.  00:53BD  B1 03               	db $B1, $03		;[CMD vibrato] rep
     788.  00:53BF  C2                  	db $C2		;[Wait] 3
     789.  00:53C0  A7 76               	db $A7, $76		;[CMD vibrato]
     790.  00:53C2  C0                  	db $C0		;[Wait] 1
     791.  00:53C3  B1 04               	db $B1, $04		;[CMD vibrato] rep
     792.  00:53C5  C3                  	db $C3		;[Wait] 4
     793.  00:53C6  BF                  	db $BF		;[End-Of-Track]
     794.  00:53C7                      .track_14:
     795.  00:53C7  C0                  	db $C0		;[Wait] 1
     796.  00:53C8  31                  	db $31		;[Note] 50
     797.  00:53C9  C1                  	db $C1		;[Wait] 2
     798.  00:53CA  33                  	db $33		;[Note] 52
     799.  00:53CB  C3                  	db $C3		;[Wait] 4
     800.  00:53CC  36                  	db $36		;[Note] 55
     801.  00:53CD                      				;[Skip delay] 4
     802.  00:53CD  35                  	db $35		;[Note] 54
     803.  00:53CE  C5                  	db $C5		;[Wait] 6
     804.  00:53CF  35                  	db $35		;[Note] 54
     805.  00:53D0  C7                  	db $C7		;[Wait] 8
     806.  00:53D1  33                  	db $33		;[Note] 52
     807.  00:53D2  C3                  	db $C3		;[Wait] 4
     808.  00:53D3  31                  	db $31		;[Note] 50
     809.  00:53D4                      				;[Skip delay] 4
     810.  00:53D4  2E                  	db $2E		;[Note] 47
     811.  00:53D5  C1                  	db $C1		;[Wait] 2
     812.  00:53D6  33                  	db $33		;[Note] 52
     813.  00:53D7  C3                  	db $C3		;[Wait] 4
     814.  00:53D8  36                  	db $36		;[Note] 55
     815.  00:53D9                      				;[Skip delay] 4
     816.  00:53D9  35                  	db $35		;[Note] 54
     817.  00:53DA  C5                  	db $C5		;[Wait] 6
     818.  00:53DB  35                  	db $35		;[Note] 54
     819.  00:53DC  C7                  	db $C7		;[Wait] 8
     820.  00:53DD  33                  	db $33		;[Note] 52
     821.  00:53DE  C5                  	db $C5		;[Wait] 6
     822.  00:53DF  35                  	db $35		;[Note] 54
     823.  00:53E0  C0                  	db $C0		;[Wait] 1
     824.  00:53E1  BF                  	db $BF		;[End-Of-Track]
     825.  00:53E2                      .track_15:
     826.  00:53E2  91 07               	db $91, $07		;[FM drum] 12
     827.  00:53E4  C1                  	db $C1		;[Wait] 2
     828.  00:53E5  91 03               	db $91, $03		;[FM drum] 4
     829.  00:53E7                      				;[Skip delay] 2
     830.  00:53E7  26                  	db $26		;[Note] 39
     831.  00:53E8  91 02               	db $91, $02		;[FM drum] 2
     832.  00:53EA                      				;[Skip delay] 2
     833.  00:53EA  91 03               	db $91, $03		;[FM drum] 4
     834.  00:53EC                      				;[Skip delay] 2
     835.  00:53EC  91 06               	db $91, $06		;[FM drum] 11
     836.  00:53EE                      				;[Skip delay] 2
     837.  00:53EE  91 03               	db $91, $03		;[FM drum] 4
     838.  00:53F0                      				;[Skip delay] 2
     839.  00:53F0  26                  	db $26		;[Note] 39
     840.  00:53F1  91 02               	db $91, $02		;[FM drum] 2
     841.  00:53F3                      				;[Skip delay] 2
     842.  00:53F3  91 03               	db $91, $03		;[FM drum] 4
     843.  00:53F5                      				;[Skip delay] 2
     844.  00:53F5  91 06               	db $91, $06		;[FM drum] 11
     845.  00:53F7                      				;[Skip delay] 2
     846.  00:53F7  91 03               	db $91, $03		;[FM drum] 4
     847.  00:53F9                      				;[Skip delay] 2
     848.  00:53F9  26                  	db $26		;[Note] 39
     849.  00:53FA  91 02               	db $91, $02		;[FM drum] 2
     850.  00:53FC                      				;[Skip delay] 2
     851.  00:53FC  91 03               	db $91, $03		;[FM drum] 4
     852.  00:53FE                      				;[Skip delay] 2
     853.  00:53FE  91 06               	db $91, $06		;[FM drum] 11
     854.  00:5400                      				;[Skip delay] 2
     855.  00:5400  91 03               	db $91, $03		;[FM drum] 4
     856.  00:5402                      				;[Skip delay] 2
     857.  00:5402  26                  	db $26		;[Note] 39
     858.  00:5403  91 02               	db $91, $02		;[FM drum] 2
     859.  00:5405                      				;[Skip delay] 2
     860.  00:5405  91 03               	db $91, $03		;[FM drum] 4
     861.  00:5407                      				;[Skip delay] 2
     862.  00:5407  91 07               	db $91, $07		;[FM drum] 12
     863.  00:5409                      				;[Skip delay] 2
     864.  00:5409  91 03               	db $91, $03		;[FM drum] 4
     865.  00:540B                      				;[Skip delay] 2
     866.  00:540B  26                  	db $26		;[Note] 39
     867.  00:540C  91 02               	db $91, $02		;[FM drum] 2
     868.  00:540E                      				;[Skip delay] 2
     869.  00:540E  91 03               	db $91, $03		;[FM drum] 4
     870.  00:5410                      				;[Skip delay] 2
     871.  00:5410  91 06               	db $91, $06		;[FM drum] 11
     872.  00:5412                      				;[Skip delay] 2
     873.  00:5412  91 03               	db $91, $03		;[FM drum] 4
     874.  00:5414                      				;[Skip delay] 2
     875.  00:5414  26                  	db $26		;[Note] 39
     876.  00:5415  91 02               	db $91, $02		;[FM drum] 2
     877.  00:5417                      				;[Skip delay] 2
     878.  00:5417  91 03               	db $91, $03		;[FM drum] 4
     879.  00:5419                      				;[Skip delay] 2
     880.  00:5419  91 06               	db $91, $06		;[FM drum] 11
     881.  00:541B                      				;[Skip delay] 2
     882.  00:541B  91 03               	db $91, $03		;[FM drum] 4
     883.  00:541D                      				;[Skip delay] 2
     884.  00:541D  26                  	db $26		;[Note] 39
     885.  00:541E  78                  	db $78		;[Instrument] 9
     886.  00:541F  91 02               	db $91, $02		;[FM drum] 2
     887.  00:5421                      				;[Skip delay] 2
     888.  00:5421  91 03               	db $91, $03		;[FM drum] 4
     889.  00:5423                      				;[Skip delay] 2
     890.  00:5423  91 06               	db $91, $06		;[FM drum] 11
     891.  00:5425                      				;[Skip delay] 2
     892.  00:5425  26                  	db $26		;[Note] 39
     893.  00:5426  91 02               	db $91, $02		;[FM drum] 2
     894.  00:5428                      				;[Skip delay] 2
     895.  00:5428  26                  	db $26		;[Note] 39
     896.  00:5429  91 02               	db $91, $02		;[FM drum] 2
     897.  00:542B                      				;[Skip delay] 2
     898.  00:542B  91 07               	db $91, $07		;[FM drum] 12
     899.  00:542D                      				;[Skip delay] 2
     900.  00:542D  BF                  	db $BF		;[End-Of-Track]
     901.  00:542E                      .track_16:
     902.  00:542E  0F                  	db $0F		;[Note] 16
     903.  00:542F  C1                  	db $C1		;[Wait] 2
     904.  00:5430  0F                  	db $0F		;[Note] 16
     905.  00:5431                      				;[Skip delay] 2
     906.  00:5431  1B                  	db $1B		;[Note] 28
     907.  00:5432                      				;[Skip delay] 2
     908.  00:5432  0F                  	db $0F		;[Note] 16
     909.  00:5433                      				;[Skip delay] 2
     910.  00:5433  19                  	db $19		;[Note] 26
     911.  00:5434                      				;[Skip delay] 2
     912.  00:5434  0D                  	db $0D		;[Note] 14
     913.  00:5435                      				;[Skip delay] 2
     914.  00:5435  1E                  	db $1E		;[Note] 31
     915.  00:5436                      				;[Skip delay] 2
     916.  00:5436  0D                  	db $0D		;[Note] 14
     917.  00:5437                      				;[Skip delay] 2
     918.  00:5437  1E                  	db $1E		;[Note] 31
     919.  00:5438                      				;[Skip delay] 2
     920.  00:5438  12                  	db $12		;[Note] 19
     921.  00:5439                      				;[Skip delay] 2
     922.  00:5439  19                  	db $19		;[Note] 26
     923.  00:543A                      				;[Skip delay] 2
     924.  00:543A  20                  	db $20		;[Note] 33
     925.  00:543B                      				;[Skip delay] 2
     926.  00:543B  14                  	db $14		;[Note] 21
     927.  00:543C                      				;[Skip delay] 2
     928.  00:543C  19                  	db $19		;[Note] 26
     929.  00:543D                      				;[Skip delay] 2
     930.  00:543D  14                  	db $14		;[Note] 21
     931.  00:543E                      				;[Skip delay] 2
     932.  00:543E  1B                  	db $1B		;[Note] 28
     933.  00:543F                      				;[Skip delay] 2
     934.  00:543F  0F                  	db $0F		;[Note] 16
     935.  00:5440                      				;[Skip delay] 2
     936.  00:5440  0F                  	db $0F		;[Note] 16
     937.  00:5441                      				;[Skip delay] 2
     938.  00:5441  1B                  	db $1B		;[Note] 28
     939.  00:5442                      				;[Skip delay] 2
     940.  00:5442  0F                  	db $0F		;[Note] 16
     941.  00:5443                      				;[Skip delay] 2
     942.  00:5443  19                  	db $19		;[Note] 26
     943.  00:5444                      				;[Skip delay] 2
     944.  00:5444  14                  	db $14		;[Note] 21
     945.  00:5445                      				;[Skip delay] 2
     946.  00:5445  0D                  	db $0D		;[Note] 14
     947.  00:5446                      				;[Skip delay] 2
     948.  00:5446  19                  	db $19		;[Note] 26
     949.  00:5447                      				;[Skip delay] 2
     950.  00:5447  17                  	db $17		;[Note] 24
     951.  00:5448                      				;[Skip delay] 2
     952.  00:5448  0B                  	db $0B		;[Note] 12
     953.  00:5449                      				;[Skip delay] 2
     954.  00:5449  17                  	db $17		;[Note] 24
     955.  00:544A                      				;[Skip delay] 2
     956.  00:544A  19                  	db $19		;[Note] 26
     957.  00:544B                      				;[Skip delay] 2
     958.  00:544B  0D                  	db $0D		;[Note] 14
     959.  00:544C                      				;[Skip delay] 2
     960.  00:544C  0D                  	db $0D		;[Note] 14
     961.  00:544D                      				;[Skip delay] 2
     962.  00:544D  17                  	db $17		;[Note] 24
     963.  00:544E                      				;[Skip delay] 2
     964.  00:544E  19                  	db $19		;[Note] 26
     965.  00:544F                      				;[Skip delay] 2
     966.  00:544F  BF                  	db $BF		;[End-Of-Track]
     967.  00:5450                      .track_17:
     968.  00:5450  33                  	db $33		;[Note] 52
     969.  00:5451  C2                  	db $C2		;[Wait] 3
     970.  00:5452  3F                  	db $3F		;[Note] 64
     971.  00:5453  69                  	db $69		;[Volume] 9
     972.  00:5454  95 01               	db $95, $01		; track detune
     973.  00:5456  C0                  	db $C0		;[Wait] 1
     974.  00:5457  3A                  	db $3A		;[Note] 59
     975.  00:5458  6F                  	db $6F		;[Volume] 15
     976.  00:5459  95 00               	db $95, $00		; track detune
     977.  00:545B  C2                  	db $C2		;[Wait] 3
     978.  00:545C  6E                  	db $6E		;[Volume] 14
     979.  00:545D  C0                  	db $C0		;[Wait] 1
     980.  00:545E  38                  	db $38		;[Note] 57
     981.  00:545F  6F                  	db $6F		;[Volume] 15
     982.  00:5460  C1                  	db $C1		;[Wait] 2
     983.  00:5461  36                  	db $36		;[Note] 55
     984.  00:5462                      				;[Skip delay] 2
     985.  00:5462  35                  	db $35		;[Note] 54
     986.  00:5463  C2                  	db $C2		;[Wait] 3
     987.  00:5464  6D                  	db $6D		;[Volume] 13
     988.  00:5465  C0                  	db $C0		;[Wait] 1
     989.  00:5466  38                  	db $38		;[Note] 57
     990.  00:5467  6F                  	db $6F		;[Volume] 15
     991.  00:5468  C2                  	db $C2		;[Wait] 3
     992.  00:5469  44                  	db $44		;[Note] 69
     993.  00:546A  69                  	db $69		;[Volume] 9
     994.  00:546B  95 01               	db $95, $01		; track detune
     995.  00:546D  C0                  	db $C0		;[Wait] 1
     996.  00:546E  31                  	db $31		;[Note] 50
     997.  00:546F  6F                  	db $6F		;[Volume] 15
     998.  00:5470  95 00               	db $95, $00		; track detune
     999.  00:5472  C1                  	db $C1		;[Wait] 2
    1000.  00:5473  33                  	db $33		;[Note] 52
    1001.  00:5474  C3                  	db $C3		;[Wait] 4
    1002.  00:5475  35                  	db $35		;[Note] 54
    1003.  00:5476                      				;[Skip delay] 4
    1004.  00:5476  31                  	db $31		;[Note] 50
    1005.  00:5477  C1                  	db $C1		;[Wait] 2
    1006.  00:5478  36                  	db $36		;[Note] 55
    1007.  00:5479  C3                  	db $C3		;[Wait] 4
    1008.  00:547A  A7 77               	db $A7, $77		;[CMD vibrato]
    1009.  00:547C  C0                  	db $C0		;[Wait] 1
    1010.  00:547D  B1 03               	db $B1, $03		;[CMD vibrato] rep
    1011.  00:547F  C2                  	db $C2		;[Wait] 3
    1012.  00:5480  A7 76               	db $A7, $76		;[CMD vibrato]
    1013.  00:5482  C0                  	db $C0		;[Wait] 1
    1014.  00:5483  B1 04               	db $B1, $04		;[CMD vibrato] rep
    1015.  00:5485  C3                  	db $C3		;[Wait] 4
    1016.  00:5486  42                  	db $42		;[Note] 67
    1017.  00:5487  69                  	db $69		;[Volume] 9
    1018.  00:5488  95 01               	db $95, $01		; track detune
    1019.  00:548A  C0                  	db $C0		;[Wait] 1
    1020.  00:548B  38                  	db $38		;[Note] 57
    1021.  00:548C  6F                  	db $6F		;[Volume] 15
    1022.  00:548D  95 00               	db $95, $00		; track detune
    1023.  00:548F                      				;[Skip delay] 1
    1024.  00:548F  36                  	db $36		;[Note] 55
    1025.  00:5490  99                  	db $99			;Note link
    1026.  00:5491                      				;[Skip delay] 1
    1027.  00:5491  35                  	db $35		;[Note] 54
    1028.  00:5492  C3                  	db $C3		;[Wait] 4
    1029.  00:5493  A7 76               	db $A7, $76		;[CMD vibrato]
    1030.  00:5495  C0                  	db $C0		;[Wait] 1
    1031.  00:5496  B1 03               	db $B1, $03		;[CMD vibrato] rep
    1032.  00:5498  C2                  	db $C2		;[Wait] 3
    1033.  00:5499  31                  	db $31		;[Note] 50
    1034.  00:549A  C5                  	db $C5		;[Wait] 6
    1035.  00:549B  33                  	db $33		;[Note] 52
    1036.  00:549C  C0                  	db $C0		;[Wait] 1
    1037.  00:549D  3F                  	db $3F		;[Note] 64
    1038.  00:549E  69                  	db $69		;[Volume] 9
    1039.  00:549F  95 01               	db $95, $01		; track detune
    1040.  00:54A1                      				;[Skip delay] 1
    1041.  00:54A1  BF                  	db $BF		;[End-Of-Track]
    1042.  00:54A2                      .track_18:
    1043.  00:54A2  33                  	db $33		;[Note] 52
    1044.  00:54A3  C3                  	db $C3		;[Wait] 4
    1045.  00:54A4  36                  	db $36		;[Note] 55
    1046.  00:54A5                      				;[Skip delay] 4
    1047.  00:54A5  35                  	db $35		;[Note] 54
    1048.  00:54A6                      				;[Skip delay] 4
    1049.  00:54A6  38                  	db $38		;[Note] 57
    1050.  00:54A7                      				;[Skip delay] 4
    1051.  00:54A7  3A                  	db $3A		;[Note] 59
    1052.  00:54A8  C5                  	db $C5		;[Wait] 6
    1053.  00:54A9  33                  	db $33		;[Note] 52
    1054.  00:54AA  C3                  	db $C3		;[Wait] 4
    1055.  00:54AB  31                  	db $31		;[Note] 50
    1056.  00:54AC                      				;[Skip delay] 4
    1057.  00:54AC  2E                  	db $2E		;[Note] 47
    1058.  00:54AD  C1                  	db $C1		;[Wait] 2
    1059.  00:54AE  33                  	db $33		;[Note] 52
    1060.  00:54AF  C3                  	db $C3		;[Wait] 4
    1061.  00:54B0  36                  	db $36		;[Note] 55
    1062.  00:54B1                      				;[Skip delay] 4
    1063.  00:54B1  35                  	db $35		;[Note] 54
    1064.  00:54B2  C5                  	db $C5		;[Wait] 6
    1065.  00:54B3  35                  	db $35		;[Note] 54
    1066.  00:54B4  C7                  	db $C7		;[Wait] 8
    1067.  00:54B5  33                  	db $33		;[Note] 52
    1068.  00:54B6  C3                  	db $C3		;[Wait] 4
    1069.  00:54B7  31                  	db $31		;[Note] 50
    1070.  00:54B8                      				;[Skip delay] 4
    1071.  00:54B8  2E                  	db $2E		;[Note] 47
    1072.  00:54B9  C1                  	db $C1		;[Wait] 2
    1073.  00:54BA  BF                  	db $BF		;[End-Of-Track]
    1074.  00:54BB                      .track_19:
    1075.  00:54BB  3F                  	db $3F		;[Note] 64
    1076.  00:54BC  C2                  	db $C2		;[Wait] 3
    1077.  00:54BD  60                  	db $60		;[Note] 97
    1078.  00:54BE  C0                  	db $C0		;[Wait] 1
    1079.  00:54BF  46                  	db $46		;[Note] 71
    1080.  00:54C0  C2                  	db $C2		;[Wait] 3
    1081.  00:54C1  6E                  	db $6E		;[Volume] 14
    1082.  00:54C2  C0                  	db $C0		;[Wait] 1
    1083.  00:54C3  44                  	db $44		;[Note] 69
    1084.  00:54C4  6F                  	db $6F		;[Volume] 15
    1085.  00:54C5  C1                  	db $C1		;[Wait] 2
    1086.  00:54C6  42                  	db $42		;[Note] 67
    1087.  00:54C7                      				;[Skip delay] 2
    1088.  00:54C7  41                  	db $41		;[Note] 66
    1089.  00:54C8  C2                  	db $C2		;[Wait] 3
    1090.  00:54C9  6D                  	db $6D		;[Volume] 13
    1091.  00:54CA  C0                  	db $C0		;[Wait] 1
    1092.  00:54CB  44                  	db $44		;[Note] 69
    1093.  00:54CC  6F                  	db $6F		;[Volume] 15
    1094.  00:54CD  C2                  	db $C2		;[Wait] 3
    1095.  00:54CE  60                  	db $60		;[Note] 97
    1096.  00:54CF  C0                  	db $C0		;[Wait] 1
    1097.  00:54D0  3D                  	db $3D		;[Note] 62
    1098.  00:54D1  C1                  	db $C1		;[Wait] 2
    1099.  00:54D2  3F                  	db $3F		;[Note] 64
    1100.  00:54D3  C3                  	db $C3		;[Wait] 4
    1101.  00:54D4  41                  	db $41		;[Note] 66
    1102.  00:54D5                      				;[Skip delay] 4
    1103.  00:54D5  3D                  	db $3D		;[Note] 62
    1104.  00:54D6  C1                  	db $C1		;[Wait] 2
    1105.  00:54D7  42                  	db $42		;[Note] 67
    1106.  00:54D8  C3                  	db $C3		;[Wait] 4
    1107.  00:54D9  A7 78               	db $A7, $78		;[CMD vibrato]
    1108.  00:54DB  C0                  	db $C0		;[Wait] 1
    1109.  00:54DC  B1 08               	db $B1, $08		;[CMD vibrato] rep
    1110.  00:54DE  C7                  	db $C7		;[Wait] 8
    1111.  00:54DF  69                  	db $69		;[Volume] 9
    1112.  00:54E0  C0                  	db $C0		;[Wait] 1
    1113.  00:54E1  44                  	db $44		;[Note] 69
    1114.  00:54E2  6F                  	db $6F		;[Volume] 15
    1115.  00:54E3                      				;[Skip delay] 1
    1116.  00:54E3  42                  	db $42		;[Note] 67
    1117.  00:54E4  99                  	db $99			;Note link
    1118.  00:54E5                      				;[Skip delay] 1
    1119.  00:54E5  41                  	db $41		;[Note] 66
    1120.  00:54E6  C3                  	db $C3		;[Wait] 4
    1121.  00:54E7  A7 76               	db $A7, $76		;[CMD vibrato]
    1122.  00:54E9  C0                  	db $C0		;[Wait] 1
    1123.  00:54EA  B1 03               	db $B1, $03		;[CMD vibrato] rep
    1124.  00:54EC  C2                  	db $C2		;[Wait] 3
    1125.  00:54ED  3D                  	db $3D		;[Note] 62
    1126.  00:54EE  C5                  	db $C5		;[Wait] 6
    1127.  00:54EF  3F                  	db $3F		;[Note] 64
    1128.  00:54F0  C0                  	db $C0		;[Wait] 1
    1129.  00:54F1  60                  	db $60		;[Note] 97
    1130.  00:54F2                      				;[Skip delay] 1
    1131.  00:54F2  BF                  	db $BF		;[End-Of-Track]
    1132.  00:54F3                      .track_20:
    1133.  00:54F3  60                  	db $60		;[Note] 97
    1134.  00:54F4  C0                  	db $C0		;[Wait] 1
    1135.  00:54F5  31                  	db $31		;[Note] 50
    1136.  00:54F6  C1                  	db $C1		;[Wait] 2
    1137.  00:54F7  33                  	db $33		;[Note] 52
    1138.  00:54F8  C2                  	db $C2		;[Wait] 3
    1139.  00:54F9  60                  	db $60		;[Note] 97
    1140.  00:54FA  C0                  	db $C0		;[Wait] 1
    1141.  00:54FB  3A                  	db $3A		;[Note] 59
    1142.  00:54FC  C3                  	db $C3		;[Wait] 4
    1143.  00:54FD  38                  	db $38		;[Note] 57
    1144.  00:54FE  C1                  	db $C1		;[Wait] 2
    1145.  00:54FF  36                  	db $36		;[Note] 55
    1146.  00:5500                      				;[Skip delay] 2
    1147.  00:5500  35                  	db $35		;[Note] 54
    1148.  00:5501  C3                  	db $C3		;[Wait] 4
    1149.  00:5502  38                  	db $38		;[Note] 57
    1150.  00:5503  C2                  	db $C2		;[Wait] 3
    1151.  00:5504  60                  	db $60		;[Note] 97
    1152.  00:5505  C0                  	db $C0		;[Wait] 1
    1153.  00:5506  31                  	db $31		;[Note] 50
    1154.  00:5507  C1                  	db $C1		;[Wait] 2
    1155.  00:5508  33                  	db $33		;[Note] 52
    1156.  00:5509  C3                  	db $C3		;[Wait] 4
    1157.  00:550A  35                  	db $35		;[Note] 54
    1158.  00:550B                      				;[Skip delay] 4
    1159.  00:550B  31                  	db $31		;[Note] 50
    1160.  00:550C  C1                  	db $C1		;[Wait] 2
    1161.  00:550D  36                  	db $36		;[Note] 55
    1162.  00:550E  C3                  	db $C3		;[Wait] 4
    1163.  00:550F  A7 76               	db $A7, $76		;[CMD vibrato]
    1164.  00:5511  C0                  	db $C0		;[Wait] 1
    1165.  00:5512  B1 08               	db $B1, $08		;[CMD vibrato] rep
    1166.  00:5514  C7                  	db $C7		;[Wait] 8
    1167.  00:5515  60                  	db $60		;[Note] 97
    1168.  00:5516  C0                  	db $C0		;[Wait] 1
    1169.  00:5517  38                  	db $38		;[Note] 57
    1170.  00:5518                      				;[Skip delay] 1
    1171.  00:5518  36                  	db $36		;[Note] 55
    1172.  00:5519  99                  	db $99			;Note link
    1173.  00:551A                      				;[Skip delay] 1
    1174.  00:551A  35                  	db $35		;[Note] 54
    1175.  00:551B  C3                  	db $C3		;[Wait] 4
    1176.  00:551C  A7 75               	db $A7, $75		;[CMD vibrato]
    1177.  00:551E  C0                  	db $C0		;[Wait] 1
    1178.  00:551F  B1 03               	db $B1, $03		;[CMD vibrato] rep
    1179.  00:5521  C2                  	db $C2		;[Wait] 3
    1180.  00:5522  31                  	db $31		;[Note] 50
    1181.  00:5523  C4                  	db $C4		;[Wait] 5
    1182.  00:5524  BF                  	db $BF		;[End-Of-Track]
    1183.  00:5525                      .track_21:
    1184.  00:5525  C0                  	db $C0		;[Wait] 1
    1185.  00:5526  36                  	db $36		;[Note] 55
    1186.  00:5527  C1                  	db $C1		;[Wait] 2
    1187.  00:5528  33                  	db $33		;[Note] 52
    1188.  00:5529  C3                  	db $C3		;[Wait] 4
    1189.  00:552A  36                  	db $36		;[Note] 55
    1190.  00:552B                      				;[Skip delay] 4
    1191.  00:552B  35                  	db $35		;[Note] 54
    1192.  00:552C                      				;[Skip delay] 4
    1193.  00:552C  38                  	db $38		;[Note] 57
    1194.  00:552D                      				;[Skip delay] 4
    1195.  00:552D  3A                  	db $3A		;[Note] 59
    1196.  00:552E  C5                  	db $C5		;[Wait] 6
    1197.  00:552F  33                  	db $33		;[Note] 52
    1198.  00:5530  C3                  	db $C3		;[Wait] 4
    1199.  00:5531  31                  	db $31		;[Note] 50
    1200.  00:5532                      				;[Skip delay] 4
    1201.  00:5532  2E                  	db $2E		;[Note] 47
    1202.  00:5533  C1                  	db $C1		;[Wait] 2
    1203.  00:5534  33                  	db $33		;[Note] 52
    1204.  00:5535  C3                  	db $C3		;[Wait] 4
    1205.  00:5536  36                  	db $36		;[Note] 55
    1206.  00:5537                      				;[Skip delay] 4
    1207.  00:5537  35                  	db $35		;[Note] 54
    1208.  00:5538  C5                  	db $C5		;[Wait] 6
    1209.  00:5539  35                  	db $35		;[Note] 54
    1210.  00:553A  C7                  	db $C7		;[Wait] 8
    1211.  00:553B  33                  	db $33		;[Note] 52
    1212.  00:553C  C3                  	db $C3		;[Wait] 4
    1213.  00:553D  31                  	db $31		;[Note] 50
    1214.  00:553E  C2                  	db $C2		;[Wait] 3
    1215.  00:553F  BF                  	db $BF		;[End-Of-Track]
    1216.  00:5540                      .track_22:
    1217.  00:5540  91 07               	db $91, $07		;[FM drum] 12
    1218.  00:5542  C1                  	db $C1		;[Wait] 2
    1219.  00:5543  91 03               	db $91, $03		;[FM drum] 4
    1220.  00:5545                      				;[Skip delay] 2
    1221.  00:5545  26                  	db $26		;[Note] 39
    1222.  00:5546  91 02               	db $91, $02		;[FM drum] 2
    1223.  00:5548                      				;[Skip delay] 2
    1224.  00:5548  91 03               	db $91, $03		;[FM drum] 4
    1225.  00:554A                      				;[Skip delay] 2
    1226.  00:554A  91 06               	db $91, $06		;[FM drum] 11
    1227.  00:554C                      				;[Skip delay] 2
    1228.  00:554C  91 03               	db $91, $03		;[FM drum] 4
    1229.  00:554E                      				;[Skip delay] 2
    1230.  00:554E  26                  	db $26		;[Note] 39
    1231.  00:554F  91 02               	db $91, $02		;[FM drum] 2
    1232.  00:5551                      				;[Skip delay] 2
    1233.  00:5551  91 03               	db $91, $03		;[FM drum] 4
    1234.  00:5553                      				;[Skip delay] 2
    1235.  00:5553  91 06               	db $91, $06		;[FM drum] 11
    1236.  00:5555                      				;[Skip delay] 2
    1237.  00:5555  91 03               	db $91, $03		;[FM drum] 4
    1238.  00:5557                      				;[Skip delay] 2
    1239.  00:5557  26                  	db $26		;[Note] 39
    1240.  00:5558  91 02               	db $91, $02		;[FM drum] 2
    1241.  00:555A                      				;[Skip delay] 2
    1242.  00:555A  91 03               	db $91, $03		;[FM drum] 4
    1243.  00:555C                      				;[Skip delay] 2
    1244.  00:555C  91 06               	db $91, $06		;[FM drum] 11
    1245.  00:555E  C0                  	db $C0		;[Wait] 1
    1246.  00:555F  26                  	db $26		;[Note] 39
    1247.  00:5560  91 02               	db $91, $02		;[FM drum] 2
    1248.  00:5562                      				;[Skip delay] 1
    1249.  00:5562  91 03               	db $91, $03		;[FM drum] 4
    1250.  00:5564  C1                  	db $C1		;[Wait] 2
    1251.  00:5565  26                  	db $26		;[Note] 39
    1252.  00:5566  91 02               	db $91, $02		;[FM drum] 2
    1253.  00:5568                      				;[Skip delay] 2
    1254.  00:5568  26                  	db $26		;[Note] 39
    1255.  00:5569  91 02               	db $91, $02		;[FM drum] 2
    1256.  00:556B  C0                  	db $C0		;[Wait] 1
    1257.  00:556C  26                  	db $26		;[Note] 39
    1258.  00:556D  91 02               	db $91, $02		;[FM drum] 2
    1259.  00:556F                      				;[Skip delay] 1
    1260.  00:556F  BF                  	db $BF		;[End-Of-Track]
    1261.  00:5570                      .track_23:
    1262.  00:5570  0F                  	db $0F		;[Note] 16
    1263.  00:5571  C1                  	db $C1		;[Wait] 2
    1264.  00:5572  0F                  	db $0F		;[Note] 16
    1265.  00:5573                      				;[Skip delay] 2
    1266.  00:5573  1B                  	db $1B		;[Note] 28
    1267.  00:5574                      				;[Skip delay] 2
    1268.  00:5574  0F                  	db $0F		;[Note] 16
    1269.  00:5575                      				;[Skip delay] 2
    1270.  00:5575  19                  	db $19		;[Note] 26
    1271.  00:5576                      				;[Skip delay] 2
    1272.  00:5576  0D                  	db $0D		;[Note] 14
    1273.  00:5577                      				;[Skip delay] 2
    1274.  00:5577  0D                  	db $0D		;[Note] 14
    1275.  00:5578                      				;[Skip delay] 2
    1276.  00:5578  19                  	db $19		;[Note] 26
    1277.  00:5579                      				;[Skip delay] 2
    1278.  00:5579  0B                  	db $0B		;[Note] 12
    1279.  00:557A                      				;[Skip delay] 2
    1280.  00:557A  17                  	db $17		;[Note] 24
    1281.  00:557B                      				;[Skip delay] 2
    1282.  00:557B  0B                  	db $0B		;[Note] 12
    1283.  00:557C                      				;[Skip delay] 2
    1284.  00:557C  17                  	db $17		;[Note] 24
    1285.  00:557D                      				;[Skip delay] 2
    1286.  00:557D  16                  	db $16		;[Note] 23
    1287.  00:557E                      				;[Skip delay] 2
    1288.  00:557E  0A                  	db $0A		;[Note] 11
    1289.  00:557F                      				;[Skip delay] 2
    1290.  00:557F  17                  	db $17		;[Note] 24
    1291.  00:5580                      				;[Skip delay] 2
    1292.  00:5580  19                  	db $19		;[Note] 26
    1293.  00:5581                      				;[Skip delay] 2
    1294.  00:5581  BF                  	db $BF		;[End-Of-Track]
    1295.  00:5582                      .track_24:
    1296.  00:5582  2E                  	db $2E		;[Note] 47
    1297.  00:5583  6F                  	db $6F		;[Volume] 15
    1298.  00:5584  95 00               	db $95, $00		; track detune
    1299.  00:5586  C3                  	db $C3		;[Wait] 4
    1300.  00:5587  A7 77               	db $A7, $77		;[CMD vibrato]
    1301.  00:5589  C0                  	db $C0		;[Wait] 1
    1302.  00:558A  B1 03               	db $B1, $03		;[CMD vibrato] rep
    1303.  00:558C  C2                  	db $C2		;[Wait] 3
    1304.  00:558D  A7 76               	db $A7, $76		;[CMD vibrato]
    1305.  00:558F  C0                  	db $C0		;[Wait] 1
    1306.  00:5590  B1 03               	db $B1, $03		;[CMD vibrato] rep
    1307.  00:5592  C2                  	db $C2		;[Wait] 3
    1308.  00:5593  A7 75               	db $A7, $75		;[CMD vibrato]
    1309.  00:5595  C0                  	db $C0		;[Wait] 1
    1310.  00:5596  B1 02               	db $B1, $02		;[CMD vibrato] rep
    1311.  00:5598  C1                  	db $C1		;[Wait] 2
    1312.  00:5599  3A                  	db $3A		;[Note] 59
    1313.  00:559A  69                  	db $69		;[Volume] 9
    1314.  00:559B  95 01               	db $95, $01		; track detune
    1315.  00:559D  C0                  	db $C0		;[Wait] 1
    1316.  00:559E  35                  	db $35		;[Note] 54
    1317.  00:559F  6F                  	db $6F		;[Volume] 15
    1318.  00:55A0  95 00               	db $95, $00		; track detune
    1319.  00:55A2  C3                  	db $C3		;[Wait] 4
    1320.  00:55A3  A7 76               	db $A7, $76		;[CMD vibrato]
    1321.  00:55A5  C0                  	db $C0		;[Wait] 1
    1322.  00:55A6  B1 01               	db $B1, $01		;[CMD vibrato] rep
    1323.  00:55A8                      				;[Skip delay] 1
    1324.  00:55A8  A7 75               	db $A7, $75		;[CMD vibrato]
    1325.  00:55AA                      				;[Skip delay] 1
    1326.  00:55AA  41                  	db $41		;[Note] 66
    1327.  00:55AB  6B                  	db $6B		;[Volume] 11
    1328.  00:55AC  95 01               	db $95, $01		; track detune
    1329.  00:55AE                      				;[Skip delay] 1
    1330.  00:55AE  33                  	db $33		;[Note] 52
    1331.  00:55AF  6F                  	db $6F		;[Volume] 15
    1332.  00:55B0  95 00               	db $95, $00		; track detune
    1333.  00:55B2  C3                  	db $C3		;[Wait] 4
    1334.  00:55B3  A7 78               	db $A7, $78		;[CMD vibrato]
    1335.  00:55B5  C0                  	db $C0		;[Wait] 1
    1336.  00:55B6  B1 01               	db $B1, $01		;[CMD vibrato] rep
    1337.  00:55B8                      				;[Skip delay] 1
    1338.  00:55B8  31                  	db $31		;[Note] 50
    1339.  00:55B9  C1                  	db $C1		;[Wait] 2
    1340.  00:55BA  BF                  	db $BF		;[End-Of-Track]
    1341.  00:55BB                      .track_25:
    1342.  00:55BB  33                  	db $33		;[Note] 52
    1343.  00:55BC  C3                  	db $C3		;[Wait] 4
    1344.  00:55BD  36                  	db $36		;[Note] 55
    1345.  00:55BE                      				;[Skip delay] 4
    1346.  00:55BE  35                  	db $35		;[Note] 54
    1347.  00:55BF  C5                  	db $C5		;[Wait] 6
    1348.  00:55C0  35                  	db $35		;[Note] 54
    1349.  00:55C1  C7                  	db $C7		;[Wait] 8
    1350.  00:55C2  33                  	db $33		;[Note] 52
    1351.  00:55C3  C5                  	db $C5		;[Wait] 6
    1352.  00:55C4  35                  	db $35		;[Note] 54
    1353.  00:55C5  C1                  	db $C1		;[Wait] 2
    1354.  00:55C6  36                  	db $36		;[Note] 55
    1355.  00:55C7                      				;[Skip delay] 2
    1356.  00:55C7  BF                  	db $BF		;[End-Of-Track]
    1357.  00:55C8                      .track_26:
    1358.  00:55C8  3A                  	db $3A		;[Note] 59
    1359.  00:55C9  C3                  	db $C3		;[Wait] 4
    1360.  00:55CA  A7 77               	db $A7, $77		;[CMD vibrato]
    1361.  00:55CC  C0                  	db $C0		;[Wait] 1
    1362.  00:55CD  B1 0A               	db $B1, $0A		;[CMD vibrato] rep
    1363.  00:55CF  C9                  	db $C9		;[Wait] 10
    1364.  00:55D0  60                  	db $60		;[Note] 97
    1365.  00:55D1  C0                  	db $C0		;[Wait] 1
    1366.  00:55D2  41                  	db $41		;[Note] 66
    1367.  00:55D3  C3                  	db $C3		;[Wait] 4
    1368.  00:55D4  A7 76               	db $A7, $76		;[CMD vibrato]
    1369.  00:55D6  C0                  	db $C0		;[Wait] 1
    1370.  00:55D7  B1 03               	db $B1, $03		;[CMD vibrato] rep
    1371.  00:55D9  C1                  	db $C1		;[Wait] 2
    1372.  00:55DA  6B                  	db $6B		;[Volume] 11
    1373.  00:55DB  C0                  	db $C0		;[Wait] 1
    1374.  00:55DC  3F                  	db $3F		;[Note] 64
    1375.  00:55DD  6F                  	db $6F		;[Volume] 15
    1376.  00:55DE  C3                  	db $C3		;[Wait] 4
    1377.  00:55DF  A7 77               	db $A7, $77		;[CMD vibrato]
    1378.  00:55E1  C0                  	db $C0		;[Wait] 1
    1379.  00:55E2  B1 01               	db $B1, $01		;[CMD vibrato] rep
    1380.  00:55E4                      				;[Skip delay] 1
    1381.  00:55E4  3D                  	db $3D		;[Note] 62
    1382.  00:55E5  C1                  	db $C1		;[Wait] 2
    1383.  00:55E6  BF                  	db $BF		;[End-Of-Track]
    1384.  00:55E7                      .track_27:
    1385.  00:55E7  C2                  	db $C2		;[Wait] 3
    1386.  00:55E8  2E                  	db $2E		;[Note] 47
    1387.  00:55E9  C3                  	db $C3		;[Wait] 4
    1388.  00:55EA  A7 76               	db $A7, $76		;[CMD vibrato]
    1389.  00:55EC  C0                  	db $C0		;[Wait] 1
    1390.  00:55ED  B1 07               	db $B1, $07		;[CMD vibrato] rep
    1391.  00:55EF  C6                  	db $C6		;[Wait] 7
    1392.  00:55F0  A7 75               	db $A7, $75		;[CMD vibrato]
    1393.  00:55F2  C0                  	db $C0		;[Wait] 1
    1394.  00:55F3  B1 02               	db $B1, $02		;[CMD vibrato] rep
    1395.  00:55F5  C1                  	db $C1		;[Wait] 2
    1396.  00:55F6  60                  	db $60		;[Note] 97
    1397.  00:55F7  C0                  	db $C0		;[Wait] 1
    1398.  00:55F8  35                  	db $35		;[Note] 54
    1399.  00:55F9  C3                  	db $C3		;[Wait] 4
    1400.  00:55FA  A7 75               	db $A7, $75		;[CMD vibrato]
    1401.  00:55FC  C0                  	db $C0		;[Wait] 1
    1402.  00:55FD  B1 02               	db $B1, $02		;[CMD vibrato] rep
    1403.  00:55FF  C1                  	db $C1		;[Wait] 2
    1404.  00:5600  60                  	db $60		;[Note] 97
    1405.  00:5601  C0                  	db $C0		;[Wait] 1
    1406.  00:5602  33                  	db $33		;[Note] 52
    1407.  00:5603  C3                  	db $C3		;[Wait] 4
    1408.  00:5604  A7 76               	db $A7, $76		;[CMD vibrato]
    1409.  00:5606  C0                  	db $C0		;[Wait] 1
    1410.  00:5607  BF                  	db $BF		;[End-Of-Track]
    1411.  00:5608                      .track_28:
    1412.  00:5608  C0                  	db $C0		;[Wait] 1
    1413.  00:5609  2E                  	db $2E		;[Note] 47
    1414.  00:560A  C1                  	db $C1		;[Wait] 2
    1415.  00:560B  33                  	db $33		;[Note] 52
    1416.  00:560C  C3                  	db $C3		;[Wait] 4
    1417.  00:560D  36                  	db $36		;[Note] 55
    1418.  00:560E                      				;[Skip delay] 4
    1419.  00:560E  35                  	db $35		;[Note] 54
    1420.  00:560F  C5                  	db $C5		;[Wait] 6
    1421.  00:5610  35                  	db $35		;[Note] 54
    1422.  00:5611  C7                  	db $C7		;[Wait] 8
    1423.  00:5612  33                  	db $33		;[Note] 52
    1424.  00:5613  C5                  	db $C5		;[Wait] 6
    1425.  00:5614  35                  	db $35		;[Note] 54
    1426.  00:5615  C0                  	db $C0		;[Wait] 1
    1427.  00:5616  BF                  	db $BF		;[End-Of-Track]
    1428.  00:5617                      .track_29:
    1429.  00:5617  91 07               	db $91, $07		;[FM drum] 12
    1430.  00:5619  C1                  	db $C1		;[Wait] 2
    1431.  00:561A  91 03               	db $91, $03		;[FM drum] 4
    1432.  00:561C                      				;[Skip delay] 2
    1433.  00:561C  26                  	db $26		;[Note] 39
    1434.  00:561D  91 02               	db $91, $02		;[FM drum] 2
    1435.  00:561F                      				;[Skip delay] 2
    1436.  00:561F  91 03               	db $91, $03		;[FM drum] 4
    1437.  00:5621                      				;[Skip delay] 2
    1438.  00:5621  91 06               	db $91, $06		;[FM drum] 11
    1439.  00:5623                      				;[Skip delay] 2
    1440.  00:5623  91 03               	db $91, $03		;[FM drum] 4
    1441.  00:5625                      				;[Skip delay] 2
    1442.  00:5625  26                  	db $26		;[Note] 39
    1443.  00:5626  91 02               	db $91, $02		;[FM drum] 2
    1444.  00:5628                      				;[Skip delay] 2
    1445.  00:5628  91 03               	db $91, $03		;[FM drum] 4
    1446.  00:562A                      				;[Skip delay] 2
    1447.  00:562A  91 06               	db $91, $06		;[FM drum] 11
    1448.  00:562C                      				;[Skip delay] 2
    1449.  00:562C  91 03               	db $91, $03		;[FM drum] 4
    1450.  00:562E                      				;[Skip delay] 2
    1451.  00:562E  26                  	db $26		;[Note] 39
    1452.  00:562F  91 02               	db $91, $02		;[FM drum] 2
    1453.  00:5631                      				;[Skip delay] 2
    1454.  00:5631  91 03               	db $91, $03		;[FM drum] 4
    1455.  00:5633                      				;[Skip delay] 2
    1456.  00:5633  91 06               	db $91, $06		;[FM drum] 11
    1457.  00:5635                      				;[Skip delay] 2
    1458.  00:5635  91 03               	db $91, $03		;[FM drum] 4
    1459.  00:5637                      				;[Skip delay] 2
    1460.  00:5637  26                  	db $26		;[Note] 39
    1461.  00:5638  91 02               	db $91, $02		;[FM drum] 2
    1462.  00:563A                      				;[Skip delay] 2
    1463.  00:563A  91 03               	db $91, $03		;[FM drum] 4
    1464.  00:563C                      				;[Skip delay] 2
    1465.  00:563C  91 07               	db $91, $07		;[FM drum] 12
    1466.  00:563E                      				;[Skip delay] 2
    1467.  00:563E  91 03               	db $91, $03		;[FM drum] 4
    1468.  00:5640                      				;[Skip delay] 2
    1469.  00:5640  26                  	db $26		;[Note] 39
    1470.  00:5641  91 02               	db $91, $02		;[FM drum] 2
    1471.  00:5643                      				;[Skip delay] 2
    1472.  00:5643  91 03               	db $91, $03		;[FM drum] 4
    1473.  00:5645                      				;[Skip delay] 2
    1474.  00:5645  91 06               	db $91, $06		;[FM drum] 11
    1475.  00:5647                      				;[Skip delay] 2
    1476.  00:5647  91 03               	db $91, $03		;[FM drum] 4
    1477.  00:5649                      				;[Skip delay] 2
    1478.  00:5649  26                  	db $26		;[Note] 39
    1479.  00:564A  91 02               	db $91, $02		;[FM drum] 2
    1480.  00:564C                      				;[Skip delay] 2
    1481.  00:564C  91 03               	db $91, $03		;[FM drum] 4
    1482.  00:564E                      				;[Skip delay] 2
    1483.  00:564E  91 06               	db $91, $06		;[FM drum] 11
    1484.  00:5650                      				;[Skip delay] 2
    1485.  00:5650  91 03               	db $91, $03		;[FM drum] 4
    1486.  00:5652                      				;[Skip delay] 2
    1487.  00:5652  26                  	db $26		;[Note] 39
    1488.  00:5653  91 02               	db $91, $02		;[FM drum] 2
    1489.  00:5655                      				;[Skip delay] 2
    1490.  00:5655  91 03               	db $91, $03		;[FM drum] 4
    1491.  00:5657                      				;[Skip delay] 2
    1492.  00:5657  91 06               	db $91, $06		;[FM drum] 11
    1493.  00:5659  C0                  	db $C0		;[Wait] 1
    1494.  00:565A  26                  	db $26		;[Note] 39
    1495.  00:565B  91 02               	db $91, $02		;[FM drum] 2
    1496.  00:565D                      				;[Skip delay] 1
    1497.  00:565D  91 03               	db $91, $03		;[FM drum] 4
    1498.  00:565F  C1                  	db $C1		;[Wait] 2
    1499.  00:5660  26                  	db $26		;[Note] 39
    1500.  00:5661  91 02               	db $91, $02		;[FM drum] 2
    1501.  00:5663                      				;[Skip delay] 2
    1502.  00:5663  26                  	db $26		;[Note] 39
    1503.  00:5664  91 02               	db $91, $02		;[FM drum] 2
    1504.  00:5666  C0                  	db $C0		;[Wait] 1
    1505.  00:5667  91 04               	db $91, $04		;[FM drum] 5
    1506.  00:5669                      				;[Skip delay] 1
    1507.  00:5669  BF                  	db $BF		;[End-Of-Track]
    1508.  00:566A                      .track_30:
    1509.  00:566A  0F                  	db $0F		;[Note] 16
    1510.  00:566B  C1                  	db $C1		;[Wait] 2
    1511.  00:566C  0F                  	db $0F		;[Note] 16
    1512.  00:566D                      				;[Skip delay] 2
    1513.  00:566D  1B                  	db $1B		;[Note] 28
    1514.  00:566E                      				;[Skip delay] 2
    1515.  00:566E  0F                  	db $0F		;[Note] 16
    1516.  00:566F                      				;[Skip delay] 2
    1517.  00:566F  19                  	db $19		;[Note] 26
    1518.  00:5670                      				;[Skip delay] 2
    1519.  00:5670  0D                  	db $0D		;[Note] 14
    1520.  00:5671                      				;[Skip delay] 2
    1521.  00:5671  0D                  	db $0D		;[Note] 14
    1522.  00:5672                      				;[Skip delay] 2
    1523.  00:5672  19                  	db $19		;[Note] 26
    1524.  00:5673                      				;[Skip delay] 2
    1525.  00:5673  17                  	db $17		;[Note] 24
    1526.  00:5674                      				;[Skip delay] 2
    1527.  00:5674  0B                  	db $0B		;[Note] 12
    1528.  00:5675                      				;[Skip delay] 2
    1529.  00:5675  12                  	db $12		;[Note] 19
    1530.  00:5676                      				;[Skip delay] 2
    1531.  00:5676  17                  	db $17		;[Note] 24
    1532.  00:5677  C0                  	db $C0		;[Wait] 1
    1533.  00:5678  A4 09               	db $A4, $09		; slide-up
    1534.  00:567A                      				;[Skip delay] 1
    1535.  00:567A  19                  	db $19		;[Note] 26
    1536.  00:567B  C1                  	db $C1		;[Wait] 2
    1537.  00:567C  0D                  	db $0D		;[Note] 14
    1538.  00:567D                      				;[Skip delay] 2
    1539.  00:567D  17                  	db $17		;[Note] 24
    1540.  00:567E                      				;[Skip delay] 2
    1541.  00:567E  19                  	db $19		;[Note] 26
    1542.  00:567F  C0                  	db $C0		;[Wait] 1
    1543.  00:5680  A5 0F               	db $A5, $0F		; slide-down
    1544.  00:5682                      				;[Skip delay] 1
    1545.  00:5682  0F                  	db $0F		;[Note] 16
    1546.  00:5683  C1                  	db $C1		;[Wait] 2
    1547.  00:5684  0F                  	db $0F		;[Note] 16
    1548.  00:5685                      				;[Skip delay] 2
    1549.  00:5685  1B                  	db $1B		;[Note] 28
    1550.  00:5686                      				;[Skip delay] 2
    1551.  00:5686  0F                  	db $0F		;[Note] 16
    1552.  00:5687                      				;[Skip delay] 2
    1553.  00:5687  19                  	db $19		;[Note] 26
    1554.  00:5688                      				;[Skip delay] 2
    1555.  00:5688  0D                  	db $0D		;[Note] 14
    1556.  00:5689                      				;[Skip delay] 2
    1557.  00:5689  0D                  	db $0D		;[Note] 14
    1558.  00:568A                      				;[Skip delay] 2
    1559.  00:568A  19                  	db $19		;[Note] 26
    1560.  00:568B                      				;[Skip delay] 2
    1561.  00:568B  0B                  	db $0B		;[Note] 12
    1562.  00:568C                      				;[Skip delay] 2
    1563.  00:568C  17                  	db $17		;[Note] 24
    1564.  00:568D                      				;[Skip delay] 2
    1565.  00:568D  0B                  	db $0B		;[Note] 12
    1566.  00:568E                      				;[Skip delay] 2
    1567.  00:568E  17                  	db $17		;[Note] 24
    1568.  00:568F                      				;[Skip delay] 2
    1569.  00:568F  16                  	db $16		;[Note] 23
    1570.  00:5690                      				;[Skip delay] 2
    1571.  00:5690  0A                  	db $0A		;[Note] 11
    1572.  00:5691                      				;[Skip delay] 2
    1573.  00:5691  17                  	db $17		;[Note] 24
    1574.  00:5692                      				;[Skip delay] 2
    1575.  00:5692  19                  	db $19		;[Note] 26
    1576.  00:5693  C0                  	db $C0		;[Wait] 1
    1577.  00:5694  19                  	db $19		;[Note] 26
    1578.  00:5695                      				;[Skip delay] 1
    1579.  00:5695  BF                  	db $BF		;[End-Of-Track]
    1580.  00:5696                      .track_31:
    1581.  00:5696  0F                  	db $0F		;[Note] 16
    1582.  00:5697  C1                  	db $C1		;[Wait] 2
    1583.  00:5698  0F                  	db $0F		;[Note] 16
    1584.  00:5699                      				;[Skip delay] 2
    1585.  00:5699  1B                  	db $1B		;[Note] 28
    1586.  00:569A                      				;[Skip delay] 2
    1587.  00:569A  0F                  	db $0F		;[Note] 16
    1588.  00:569B                      				;[Skip delay] 2
    1589.  00:569B  19                  	db $19		;[Note] 26
    1590.  00:569C                      				;[Skip delay] 2
    1591.  00:569C  0D                  	db $0D		;[Note] 14
    1592.  00:569D                      				;[Skip delay] 2
    1593.  00:569D  0D                  	db $0D		;[Note] 14
    1594.  00:569E                      				;[Skip delay] 2
    1595.  00:569E  19                  	db $19		;[Note] 26
    1596.  00:569F                      				;[Skip delay] 2
    1597.  00:569F  17                  	db $17		;[Note] 24
    1598.  00:56A0                      				;[Skip delay] 2
    1599.  00:56A0  0B                  	db $0B		;[Note] 12
    1600.  00:56A1                      				;[Skip delay] 2
    1601.  00:56A1  12                  	db $12		;[Note] 19
    1602.  00:56A2                      				;[Skip delay] 2
    1603.  00:56A2  17                  	db $17		;[Note] 24
    1604.  00:56A3  C0                  	db $C0		;[Wait] 1
    1605.  00:56A4  A4 0B               	db $A4, $0B		; slide-up
    1606.  00:56A6                      				;[Skip delay] 1
    1607.  00:56A6  19                  	db $19		;[Note] 26
    1608.  00:56A7  C1                  	db $C1		;[Wait] 2
    1609.  00:56A8  0D                  	db $0D		;[Note] 14
    1610.  00:56A9                      				;[Skip delay] 2
    1611.  00:56A9  17                  	db $17		;[Note] 24
    1612.  00:56AA                      				;[Skip delay] 2
    1613.  00:56AA  19                  	db $19		;[Note] 26
    1614.  00:56AB  C0                  	db $C0		;[Wait] 1
    1615.  00:56AC  A5 0E               	db $A5, $0E		; slide-down
    1616.  00:56AE                      				;[Skip delay] 1
    1617.  00:56AE  0F                  	db $0F		;[Note] 16
    1618.  00:56AF  C1                  	db $C1		;[Wait] 2
    1619.  00:56B0  0F                  	db $0F		;[Note] 16
    1620.  00:56B1                      				;[Skip delay] 2
    1621.  00:56B1  1B                  	db $1B		;[Note] 28
    1622.  00:56B2                      				;[Skip delay] 2
    1623.  00:56B2  0F                  	db $0F		;[Note] 16
    1624.  00:56B3                      				;[Skip delay] 2
    1625.  00:56B3  19                  	db $19		;[Note] 26
    1626.  00:56B4                      				;[Skip delay] 2
    1627.  00:56B4  0D                  	db $0D		;[Note] 14
    1628.  00:56B5                      				;[Skip delay] 2
    1629.  00:56B5  0D                  	db $0D		;[Note] 14
    1630.  00:56B6                      				;[Skip delay] 2
    1631.  00:56B6  19                  	db $19		;[Note] 26
    1632.  00:56B7                      				;[Skip delay] 2
    1633.  00:56B7  0B                  	db $0B		;[Note] 12
    1634.  00:56B8                      				;[Skip delay] 2
    1635.  00:56B8  17                  	db $17		;[Note] 24
    1636.  00:56B9                      				;[Skip delay] 2
    1637.  00:56B9  0B                  	db $0B		;[Note] 12
    1638.  00:56BA                      				;[Skip delay] 2
    1639.  00:56BA  17                  	db $17		;[Note] 24
    1640.  00:56BB                      				;[Skip delay] 2
    1641.  00:56BB  16                  	db $16		;[Note] 23
    1642.  00:56BC                      				;[Skip delay] 2
    1643.  00:56BC  0A                  	db $0A		;[Note] 11
    1644.  00:56BD                      				;[Skip delay] 2
    1645.  00:56BD  17                  	db $17		;[Note] 24
    1646.  00:56BE                      				;[Skip delay] 2
    1647.  00:56BE  19                  	db $19		;[Note] 26
    1648.  00:56BF  C0                  	db $C0		;[Wait] 1
    1649.  00:56C0  19                  	db $19		;[Note] 26
    1650.  00:56C1                      				;[Skip delay] 1
    1651.  00:56C1  BF                  	db $BF		;[End-Of-Track]
    1652.  00:56C2                      .track_32:
    1653.  00:56C2  33                  	db $33		;[Note] 52
    1654.  00:56C3  C2                  	db $C2		;[Wait] 3
    1655.  00:56C4  3F                  	db $3F		;[Note] 64
    1656.  00:56C5  69                  	db $69		;[Volume] 9
    1657.  00:56C6  95 01               	db $95, $01		; track detune
    1658.  00:56C8  C0                  	db $C0		;[Wait] 1
    1659.  00:56C9  3A                  	db $3A		;[Note] 59
    1660.  00:56CA  6F                  	db $6F		;[Volume] 15
    1661.  00:56CB  95 00               	db $95, $00		; track detune
    1662.  00:56CD  C3                  	db $C3		;[Wait] 4
    1663.  00:56CE  38                  	db $38		;[Note] 57
    1664.  00:56CF  C1                  	db $C1		;[Wait] 2
    1665.  00:56D0  36                  	db $36		;[Note] 55
    1666.  00:56D1                      				;[Skip delay] 2
    1667.  00:56D1  35                  	db $35		;[Note] 54
    1668.  00:56D2  C2                  	db $C2		;[Wait] 3
    1669.  00:56D3  41                  	db $41		;[Note] 66
    1670.  00:56D4  69                  	db $69		;[Volume] 9
    1671.  00:56D5  95 01               	db $95, $01		; track detune
    1672.  00:56D7  C0                  	db $C0		;[Wait] 1
    1673.  00:56D8  38                  	db $38		;[Note] 57
    1674.  00:56D9  6F                  	db $6F		;[Volume] 15
    1675.  00:56DA  95 00               	db $95, $00		; track detune
    1676.  00:56DC  C2                  	db $C2		;[Wait] 3
    1677.  00:56DD  44                  	db $44		;[Note] 69
    1678.  00:56DE  69                  	db $69		;[Volume] 9
    1679.  00:56DF  95 01               	db $95, $01		; track detune
    1680.  00:56E1  C0                  	db $C0		;[Wait] 1
    1681.  00:56E2  31                  	db $31		;[Note] 50
    1682.  00:56E3  6F                  	db $6F		;[Volume] 15
    1683.  00:56E4  95 00               	db $95, $00		; track detune
    1684.  00:56E6  C1                  	db $C1		;[Wait] 2
    1685.  00:56E7  33                  	db $33		;[Note] 52
    1686.  00:56E8  C3                  	db $C3		;[Wait] 4
    1687.  00:56E9  35                  	db $35		;[Note] 54
    1688.  00:56EA                      				;[Skip delay] 4
    1689.  00:56EA  31                  	db $31		;[Note] 50
    1690.  00:56EB  C1                  	db $C1		;[Wait] 2
    1691.  00:56EC  33                  	db $33		;[Note] 52
    1692.  00:56ED  C3                  	db $C3		;[Wait] 4
    1693.  00:56EE  A7 78               	db $A7, $78		;[CMD vibrato]
    1694.  00:56F0  C0                  	db $C0		;[Wait] 1
    1695.  00:56F1  3F                  	db $3F		;[Note] 64
    1696.  00:56F2  69                  	db $69		;[Volume] 9
    1697.  00:56F3  95 01               	db $95, $01		; track detune
    1698.  00:56F5                      				;[Skip delay] 1
    1699.  00:56F5  38                  	db $38		;[Note] 57
    1700.  00:56F6  6F                  	db $6F		;[Volume] 15
    1701.  00:56F7  95 00               	db $95, $00		; track detune
    1702.  00:56F9  C1                  	db $C1		;[Wait] 2
    1703.  00:56FA  3A                  	db $3A		;[Note] 59
    1704.  00:56FB                      				;[Skip delay] 2
    1705.  00:56FB  38                  	db $38		;[Note] 57
    1706.  00:56FC                      				;[Skip delay] 2
    1707.  00:56FC  3A                  	db $3A		;[Note] 59
    1708.  00:56FD                      				;[Skip delay] 2
    1709.  00:56FD  3D                  	db $3D		;[Note] 62
    1710.  00:56FE                      				;[Skip delay] 2
    1711.  00:56FE  3A                  	db $3A		;[Note] 59
    1712.  00:56FF  C3                  	db $C3		;[Wait] 4
    1713.  00:5700  A7 78               	db $A7, $78		;[CMD vibrato]
    1714.  00:5702  C0                  	db $C0		;[Wait] 1
    1715.  00:5703  B1 03               	db $B1, $03		;[CMD vibrato] rep
    1716.  00:5705  C2                  	db $C2		;[Wait] 3
    1717.  00:5706  A7 77               	db $A7, $77		;[CMD vibrato]
    1718.  00:5708  C0                  	db $C0		;[Wait] 1
    1719.  00:5709  B1 03               	db $B1, $03		;[CMD vibrato] rep
    1720.  00:570B  C2                  	db $C2		;[Wait] 3
    1721.  00:570C  A7 76               	db $A7, $76		;[CMD vibrato]
    1722.  00:570E  C0                  	db $C0		;[Wait] 1
    1723.  00:570F  46                  	db $46		;[Note] 71
    1724.  00:5710  69                  	db $69		;[Volume] 9
    1725.  00:5711  95 01               	db $95, $01		; track detune
    1726.  00:5713                      				;[Skip delay] 1
    1727.  00:5713  31                  	db $31		;[Note] 50
    1728.  00:5714  6F                  	db $6F		;[Volume] 15
    1729.  00:5715  95 00               	db $95, $00		; track detune
    1730.  00:5717  C1                  	db $C1		;[Wait] 2
    1731.  00:5718  BF                  	db $BF		;[End-Of-Track]
    1732.  00:5719                      .track_33:
    1733.  00:5719  3F                  	db $3F		;[Note] 64
    1734.  00:571A  C2                  	db $C2		;[Wait] 3
    1735.  00:571B  60                  	db $60		;[Note] 97
    1736.  00:571C  C0                  	db $C0		;[Wait] 1
    1737.  00:571D  46                  	db $46		;[Note] 71
    1738.  00:571E  C3                  	db $C3		;[Wait] 4
    1739.  00:571F  44                  	db $44		;[Note] 69
    1740.  00:5720  C1                  	db $C1		;[Wait] 2
    1741.  00:5721  42                  	db $42		;[Note] 67
    1742.  00:5722                      				;[Skip delay] 2
    1743.  00:5722  41                  	db $41		;[Note] 66
    1744.  00:5723  C2                  	db $C2		;[Wait] 3
    1745.  00:5724  69                  	db $69		;[Volume] 9
    1746.  00:5725  C0                  	db $C0		;[Wait] 1
    1747.  00:5726  44                  	db $44		;[Note] 69
    1748.  00:5727  6F                  	db $6F		;[Volume] 15
    1749.  00:5728  C2                  	db $C2		;[Wait] 3
    1750.  00:5729  60                  	db $60		;[Note] 97
    1751.  00:572A  C0                  	db $C0		;[Wait] 1
    1752.  00:572B  3D                  	db $3D		;[Note] 62
    1753.  00:572C  C1                  	db $C1		;[Wait] 2
    1754.  00:572D  3F                  	db $3F		;[Note] 64
    1755.  00:572E  C3                  	db $C3		;[Wait] 4
    1756.  00:572F  41                  	db $41		;[Note] 66
    1757.  00:5730                      				;[Skip delay] 4
    1758.  00:5730  3D                  	db $3D		;[Note] 62
    1759.  00:5731  C1                  	db $C1		;[Wait] 2
    1760.  00:5732  3F                  	db $3F		;[Note] 64
    1761.  00:5733  C3                  	db $C3		;[Wait] 4
    1762.  00:5734  A7 77               	db $A7, $77		;[CMD vibrato]
    1763.  00:5736  C0                  	db $C0		;[Wait] 1
    1764.  00:5737  60                  	db $60		;[Note] 97
    1765.  00:5738                      				;[Skip delay] 1
    1766.  00:5738  44                  	db $44		;[Note] 69
    1767.  00:5739  C1                  	db $C1		;[Wait] 2
    1768.  00:573A  46                  	db $46		;[Note] 71
    1769.  00:573B                      				;[Skip delay] 2
    1770.  00:573B  44                  	db $44		;[Note] 69
    1771.  00:573C                      				;[Skip delay] 2
    1772.  00:573C  46                  	db $46		;[Note] 71
    1773.  00:573D                      				;[Skip delay] 2
    1774.  00:573D  49                  	db $49		;[Note] 74
    1775.  00:573E                      				;[Skip delay] 2
    1776.  00:573E  46                  	db $46		;[Note] 71
    1777.  00:573F  C3                  	db $C3		;[Wait] 4
    1778.  00:5740  A7 78               	db $A7, $78		;[CMD vibrato]
    1779.  00:5742  C0                  	db $C0		;[Wait] 1
    1780.  00:5743  B1 03               	db $B1, $03		;[CMD vibrato] rep
    1781.  00:5745  C2                  	db $C2		;[Wait] 3
    1782.  00:5746  A7 77               	db $A7, $77		;[CMD vibrato]
    1783.  00:5748  C0                  	db $C0		;[Wait] 1
    1784.  00:5749  B1 04               	db $B1, $04		;[CMD vibrato] rep
    1785.  00:574B  C3                  	db $C3		;[Wait] 4
    1786.  00:574C  60                  	db $60		;[Note] 97
    1787.  00:574D  C0                  	db $C0		;[Wait] 1
    1788.  00:574E  3D                  	db $3D		;[Note] 62
    1789.  00:574F  C1                  	db $C1		;[Wait] 2
    1790.  00:5750  BF                  	db $BF		;[End-Of-Track]
    1791.  00:5751                      .track_34:
    1792.  00:5751  C0                  	db $C0		;[Wait] 1
    1793.  00:5752  36                  	db $36		;[Note] 55
    1794.  00:5753  C1                  	db $C1		;[Wait] 2
    1795.  00:5754  33                  	db $33		;[Note] 52
    1796.  00:5755  C3                  	db $C3		;[Wait] 4
    1797.  00:5756  36                  	db $36		;[Note] 55
    1798.  00:5757                      				;[Skip delay] 4
    1799.  00:5757  35                  	db $35		;[Note] 54
    1800.  00:5758  C5                  	db $C5		;[Wait] 6
    1801.  00:5759  35                  	db $35		;[Note] 54
    1802.  00:575A  C7                  	db $C7		;[Wait] 8
    1803.  00:575B  33                  	db $33		;[Note] 52
    1804.  00:575C  C3                  	db $C3		;[Wait] 4
    1805.  00:575D  31                  	db $31		;[Note] 50
    1806.  00:575E                      				;[Skip delay] 4
    1807.  00:575E  2E                  	db $2E		;[Note] 47
    1808.  00:575F  C1                  	db $C1		;[Wait] 2
    1809.  00:5760  33                  	db $33		;[Note] 52
    1810.  00:5761  C3                  	db $C3		;[Wait] 4
    1811.  00:5762  36                  	db $36		;[Note] 55
    1812.  00:5763                      				;[Skip delay] 4
    1813.  00:5763  35                  	db $35		;[Note] 54
    1814.  00:5764  C5                  	db $C5		;[Wait] 6
    1815.  00:5765  35                  	db $35		;[Note] 54
    1816.  00:5766  C7                  	db $C7		;[Wait] 8
    1817.  00:5767  33                  	db $33		;[Note] 52
    1818.  00:5768  C5                  	db $C5		;[Wait] 6
    1819.  00:5769  35                  	db $35		;[Note] 54
    1820.  00:576A  C0                  	db $C0		;[Wait] 1
    1821.  00:576B  BF                  	db $BF		;[End-Of-Track]
    1822.  00:576C                      .track_35:
    1823.  00:576C  91 07               	db $91, $07		;[FM drum] 12
    1824.  00:576E  C1                  	db $C1		;[Wait] 2
    1825.  00:576F  91 03               	db $91, $03		;[FM drum] 4
    1826.  00:5771                      				;[Skip delay] 2
    1827.  00:5771  26                  	db $26		;[Note] 39
    1828.  00:5772  91 02               	db $91, $02		;[FM drum] 2
    1829.  00:5774                      				;[Skip delay] 2
    1830.  00:5774  91 03               	db $91, $03		;[FM drum] 4
    1831.  00:5776                      				;[Skip delay] 2
    1832.  00:5776  91 06               	db $91, $06		;[FM drum] 11
    1833.  00:5778                      				;[Skip delay] 2
    1834.  00:5778  91 03               	db $91, $03		;[FM drum] 4
    1835.  00:577A                      				;[Skip delay] 2
    1836.  00:577A  26                  	db $26		;[Note] 39
    1837.  00:577B  91 02               	db $91, $02		;[FM drum] 2
    1838.  00:577D                      				;[Skip delay] 2
    1839.  00:577D  91 03               	db $91, $03		;[FM drum] 4
    1840.  00:577F                      				;[Skip delay] 2
    1841.  00:577F  91 07               	db $91, $07		;[FM drum] 12
    1842.  00:5781                      				;[Skip delay] 2
    1843.  00:5781  91 06               	db $91, $06		;[FM drum] 11
    1844.  00:5783                      				;[Skip delay] 2
    1845.  00:5783  26                  	db $26		;[Note] 39
    1846.  00:5784  91 02               	db $91, $02		;[FM drum] 2
    1847.  00:5786                      				;[Skip delay] 2
    1848.  00:5786  91 04               	db $91, $04		;[FM drum] 5
    1849.  00:5788                      				;[Skip delay] 2
    1850.  00:5788  91 06               	db $91, $06		;[FM drum] 11
    1851.  00:578A                      				;[Skip delay] 2
    1852.  00:578A  91 06               	db $91, $06		;[FM drum] 11
    1853.  00:578C                      				;[Skip delay] 2
    1854.  00:578C  26                  	db $26		;[Note] 39
    1855.  00:578D  91 02               	db $91, $02		;[FM drum] 2
    1856.  00:578F                      				;[Skip delay] 2
    1857.  00:578F  91 06               	db $91, $06		;[FM drum] 11
    1858.  00:5791  C0                  	db $C0		;[Wait] 1
    1859.  00:5792  91 01               	db $91, $01		;[FM drum] 1
    1860.  00:5794                      				;[Skip delay] 1
    1861.  00:5794  91 06               	db $91, $06		;[FM drum] 11
    1862.  00:5796  C1                  	db $C1		;[Wait] 2
    1863.  00:5797  91 03               	db $91, $03		;[FM drum] 4
    1864.  00:5799                      				;[Skip delay] 2
    1865.  00:5799  26                  	db $26		;[Note] 39
    1866.  00:579A  91 02               	db $91, $02		;[FM drum] 2
    1867.  00:579C                      				;[Skip delay] 2
    1868.  00:579C  91 03               	db $91, $03		;[FM drum] 4
    1869.  00:579E                      				;[Skip delay] 2
    1870.  00:579E  91 06               	db $91, $06		;[FM drum] 11
    1871.  00:57A0                      				;[Skip delay] 2
    1872.  00:57A0  91 03               	db $91, $03		;[FM drum] 4
    1873.  00:57A2                      				;[Skip delay] 2
    1874.  00:57A2  26                  	db $26		;[Note] 39
    1875.  00:57A3  91 02               	db $91, $02		;[FM drum] 2
    1876.  00:57A5                      				;[Skip delay] 2
    1877.  00:57A5  91 03               	db $91, $03		;[FM drum] 4
    1878.  00:57A7                      				;[Skip delay] 2
    1879.  00:57A7  91 06               	db $91, $06		;[FM drum] 11
    1880.  00:57A9                      				;[Skip delay] 2
    1881.  00:57A9  91 03               	db $91, $03		;[FM drum] 4
    1882.  00:57AB                      				;[Skip delay] 2
    1883.  00:57AB  26                  	db $26		;[Note] 39
    1884.  00:57AC  91 02               	db $91, $02		;[FM drum] 2
    1885.  00:57AE                      				;[Skip delay] 2
    1886.  00:57AE  91 03               	db $91, $03		;[FM drum] 4
    1887.  00:57B0                      				;[Skip delay] 2
    1888.  00:57B0  91 06               	db $91, $06		;[FM drum] 11
    1889.  00:57B2                      				;[Skip delay] 2
    1890.  00:57B2  26                  	db $26		;[Note] 39
    1891.  00:57B3  91 02               	db $91, $02		;[FM drum] 2
    1892.  00:57B5                      				;[Skip delay] 2
    1893.  00:57B5  26                  	db $26		;[Note] 39
    1894.  00:57B6  91 02               	db $91, $02		;[FM drum] 2
    1895.  00:57B8                      				;[Skip delay] 2
    1896.  00:57B8  91 05               	db $91, $05		;[FM drum] 6
    1897.  00:57BA                      				;[Skip delay] 2
    1898.  00:57BA  BF                  	db $BF		;[End-Of-Track]
    1899.  00:57BB                      .track_36:
    1900.  00:57BB  0F                  	db $0F		;[Note] 16
    1901.  00:57BC  C1                  	db $C1		;[Wait] 2
    1902.  00:57BD  0F                  	db $0F		;[Note] 16
    1903.  00:57BE                      				;[Skip delay] 2
    1904.  00:57BE  1B                  	db $1B		;[Note] 28
    1905.  00:57BF                      				;[Skip delay] 2
    1906.  00:57BF  0F                  	db $0F		;[Note] 16
    1907.  00:57C0                      				;[Skip delay] 2
    1908.  00:57C0  19                  	db $19		;[Note] 26
    1909.  00:57C1                      				;[Skip delay] 2
    1910.  00:57C1  0D                  	db $0D		;[Note] 14
    1911.  00:57C2                      				;[Skip delay] 2
    1912.  00:57C2  1E                  	db $1E		;[Note] 31
    1913.  00:57C3                      				;[Skip delay] 2
    1914.  00:57C3  0D                  	db $0D		;[Note] 14
    1915.  00:57C4  C0                  	db $C0		;[Wait] 1
    1916.  00:57C5  A5 1F               	db $A5, $1F		; slide-down
    1917.  00:57C7                      				;[Skip delay] 1
    1918.  00:57C7  1E                  	db $1E		;[Note] 31
    1919.  00:57C8  C0                  	db $C0		;[Wait..] 1
    1920.  00:57C9  A5 07               	db $A5, $07		; slide-down
    1921.  00:57CB                      				;[Skip delay] 1
    1922.  00:57CB  12                  	db $12		;[Note] 19
    1923.  00:57CC  C1                  	db $C1		;[Wait] 2
    1924.  00:57CD  19                  	db $19		;[Note] 26
    1925.  00:57CE                      				;[Skip delay] 2
    1926.  00:57CE  20                  	db $20		;[Note] 33
    1927.  00:57CF  C0                  	db $C0		;[Wait] 1
    1928.  00:57D0  A5 08               	db $A5, $08		; slide-down
    1929.  00:57D2                      				;[Skip delay] 1
    1930.  00:57D2  14                  	db $14		;[Note] 21
    1931.  00:57D3  C1                  	db $C1		;[Wait] 2
    1932.  00:57D4  19                  	db $19		;[Note] 26
    1933.  00:57D5                      				;[Skip delay] 2
    1934.  00:57D5  14                  	db $14		;[Note] 21
    1935.  00:57D6                      				;[Skip delay] 2
    1936.  00:57D6  1B                  	db $1B		;[Note] 28
    1937.  00:57D7                      				;[Skip delay] 2
    1938.  00:57D7  0F                  	db $0F		;[Note] 16
    1939.  00:57D8                      				;[Skip delay] 2
    1940.  00:57D8  0F                  	db $0F		;[Note] 16
    1941.  00:57D9                      				;[Skip delay] 2
    1942.  00:57D9  1B                  	db $1B		;[Note] 28
    1943.  00:57DA                      				;[Skip delay] 2
    1944.  00:57DA  0F                  	db $0F		;[Note] 16
    1945.  00:57DB                      				;[Skip delay] 2
    1946.  00:57DB  19                  	db $19		;[Note] 26
    1947.  00:57DC                      				;[Skip delay] 2
    1948.  00:57DC  14                  	db $14		;[Note] 21
    1949.  00:57DD                      				;[Skip delay] 2
    1950.  00:57DD  0D                  	db $0D		;[Note] 14
    1951.  00:57DE                      				;[Skip delay] 2
    1952.  00:57DE  19                  	db $19		;[Note] 26
    1953.  00:57DF                      				;[Skip delay] 2
    1954.  00:57DF  17                  	db $17		;[Note] 24
    1955.  00:57E0                      				;[Skip delay] 2
    1956.  00:57E0  0B                  	db $0B		;[Note] 12
    1957.  00:57E1                      				;[Skip delay] 2
    1958.  00:57E1  17                  	db $17		;[Note] 24
    1959.  00:57E2                      				;[Skip delay] 2
    1960.  00:57E2  19                  	db $19		;[Note] 26
    1961.  00:57E3                      				;[Skip delay] 2
    1962.  00:57E3  0D                  	db $0D		;[Note] 14
    1963.  00:57E4                      				;[Skip delay] 2
    1964.  00:57E4  0D                  	db $0D		;[Note] 14
    1965.  00:57E5                      				;[Skip delay] 2
    1966.  00:57E5  17                  	db $17		;[Note] 24
    1967.  00:57E6                      				;[Skip delay] 2
    1968.  00:57E6  19                  	db $19		;[Note] 26
    1969.  00:57E7                      				;[Skip delay] 2
    1970.  00:57E7  BF                  	db $BF		;[End-Of-Track]
    1971.  00:57E8                      .track_37:
    1972.  00:57E8  0F                  	db $0F		;[Note] 16
    1973.  00:57E9  C1                  	db $C1		;[Wait] 2
    1974.  00:57EA  0F                  	db $0F		;[Note] 16
    1975.  00:57EB                      				;[Skip delay] 2
    1976.  00:57EB  1B                  	db $1B		;[Note] 28
    1977.  00:57EC                      				;[Skip delay] 2
    1978.  00:57EC  0F                  	db $0F		;[Note] 16
    1979.  00:57ED                      				;[Skip delay] 2
    1980.  00:57ED  19                  	db $19		;[Note] 26
    1981.  00:57EE                      				;[Skip delay] 2
    1982.  00:57EE  0D                  	db $0D		;[Note] 14
    1983.  00:57EF                      				;[Skip delay] 2
    1984.  00:57EF  1E                  	db $1E		;[Note] 31
    1985.  00:57F0                      				;[Skip delay] 2
    1986.  00:57F0  0D                  	db $0D		;[Note] 14
    1987.  00:57F1  A6 06               	db $A6, $06		; tone-slide
    1988.  00:57F3                      				;[Skip delay] 2
    1989.  00:57F3  1E                  	db $1E		;[Note] 31
    1990.  00:57F4                      				;[Skip delay] 2
    1991.  00:57F4  12                  	db $12		;[Note] 19
    1992.  00:57F5  A6 05               	db $A6, $05		; tone-slide
    1993.  00:57F7                      				;[Skip delay] 2
    1994.  00:57F7  19                  	db $19		;[Note] 26
    1995.  00:57F8                      				;[Skip delay] 2
    1996.  00:57F8  20                  	db $20		;[Note] 33
    1997.  00:57F9                      				;[Skip delay] 2
    1998.  00:57F9  14                  	db $14		;[Note] 21
    1999.  00:57FA  A6 06               	db $A6, $06		; tone-slide
    2000.  00:57FC                      				;[Skip delay] 2
    2001.  00:57FC  19                  	db $19		;[Note] 26
    2002.  00:57FD                      				;[Skip delay] 2
    2003.  00:57FD  14                  	db $14		;[Note] 21
    2004.  00:57FE                      				;[Skip delay] 2
    2005.  00:57FE  1B                  	db $1B		;[Note] 28
    2006.  00:57FF                      				;[Skip delay] 2
    2007.  00:57FF  0F                  	db $0F		;[Note] 16
    2008.  00:5800                      				;[Skip delay] 2
    2009.  00:5800  0F                  	db $0F		;[Note] 16
    2010.  00:5801                      				;[Skip delay] 2
    2011.  00:5801  1B                  	db $1B		;[Note] 28
    2012.  00:5802                      				;[Skip delay] 2
    2013.  00:5802  0F                  	db $0F		;[Note] 16
    2014.  00:5803                      				;[Skip delay] 2
    2015.  00:5803  19                  	db $19		;[Note] 26
    2016.  00:5804                      				;[Skip delay] 2
    2017.  00:5804  14                  	db $14		;[Note] 21
    2018.  00:5805                      				;[Skip delay] 2
    2019.  00:5805  0D                  	db $0D		;[Note] 14
    2020.  00:5806                      				;[Skip delay] 2
    2021.  00:5806  19                  	db $19		;[Note] 26
    2022.  00:5807                      				;[Skip delay] 2
    2023.  00:5807  17                  	db $17		;[Note] 24
    2024.  00:5808                      				;[Skip delay] 2
    2025.  00:5808  0B                  	db $0B		;[Note] 12
    2026.  00:5809                      				;[Skip delay] 2
    2027.  00:5809  17                  	db $17		;[Note] 24
    2028.  00:580A                      				;[Skip delay] 2
    2029.  00:580A  19                  	db $19		;[Note] 26
    2030.  00:580B                      				;[Skip delay] 2
    2031.  00:580B  0D                  	db $0D		;[Note] 14
    2032.  00:580C                      				;[Skip delay] 2
    2033.  00:580C  0D                  	db $0D		;[Note] 14
    2034.  00:580D                      				;[Skip delay] 2
    2035.  00:580D  17                  	db $17		;[Note] 24
    2036.  00:580E                      				;[Skip delay] 2
    2037.  00:580E  19                  	db $19		;[Note] 26
    2038.  00:580F                      				;[Skip delay] 2
    2039.  00:580F  BF                  	db $BF		;[End-Of-Track]
    2040.  00:5810                      .track_38:
    2041.  00:5810  33                  	db $33		;[Note] 52
    2042.  00:5811  C2                  	db $C2		;[Wait] 3
    2043.  00:5812  60                  	db $60		;[Note] 97
    2044.  00:5813  C0                  	db $C0		;[Wait] 1
    2045.  00:5814  3A                  	db $3A		;[Note] 59
    2046.  00:5815  C3                  	db $C3		;[Wait] 4
    2047.  00:5816  38                  	db $38		;[Note] 57
    2048.  00:5817  C1                  	db $C1		;[Wait] 2
    2049.  00:5818  36                  	db $36		;[Note] 55
    2050.  00:5819                      				;[Skip delay] 2
    2051.  00:5819  35                  	db $35		;[Note] 54
    2052.  00:581A  C3                  	db $C3		;[Wait] 4
    2053.  00:581B  38                  	db $38		;[Note] 57
    2054.  00:581C  C2                  	db $C2		;[Wait] 3
    2055.  00:581D  3A                  	db $3A		;[Note] 59
    2056.  00:581E  69                  	db $69		;[Volume] 9
    2057.  00:581F  C0                  	db $C0		;[Wait] 1
    2058.  00:5820  31                  	db $31		;[Note] 50
    2059.  00:5821  6F                  	db $6F		;[Volume] 15
    2060.  00:5822  C1                  	db $C1		;[Wait] 2
    2061.  00:5823  33                  	db $33		;[Note] 52
    2062.  00:5824  C3                  	db $C3		;[Wait] 4
    2063.  00:5825  35                  	db $35		;[Note] 54
    2064.  00:5826                      				;[Skip delay] 4
    2065.  00:5826  31                  	db $31		;[Note] 50
    2066.  00:5827  C1                  	db $C1		;[Wait] 2
    2067.  00:5828  36                  	db $36		;[Note] 55
    2068.  00:5829  C3                  	db $C3		;[Wait] 4
    2069.  00:582A  A7 77               	db $A7, $77		;[CMD vibrato]
    2070.  00:582C  C0                  	db $C0		;[Wait] 1
    2071.  00:582D  B1 08               	db $B1, $08		;[CMD vibrato] rep
    2072.  00:582F  C7                  	db $C7		;[Wait] 8
    2073.  00:5830  60                  	db $60		;[Note] 97
    2074.  00:5831  C0                  	db $C0		;[Wait] 1
    2075.  00:5832  38                  	db $38		;[Note] 57
    2076.  00:5833                      				;[Skip delay] 1
    2077.  00:5833  36                  	db $36		;[Note] 55
    2078.  00:5834  99                  	db $99			;Note link
    2079.  00:5835                      				;[Skip delay] 1
    2080.  00:5835  35                  	db $35		;[Note] 54
    2081.  00:5836  C3                  	db $C3		;[Wait] 4
    2082.  00:5837  A7 76               	db $A7, $76		;[CMD vibrato]
    2083.  00:5839  C0                  	db $C0		;[Wait] 1
    2084.  00:583A  B1 03               	db $B1, $03		;[CMD vibrato] rep
    2085.  00:583C  C2                  	db $C2		;[Wait] 3
    2086.  00:583D  31                  	db $31		;[Note] 50
    2087.  00:583E  C5                  	db $C5		;[Wait] 6
    2088.  00:583F  33                  	db $33		;[Note] 52
    2089.  00:5840  C0                  	db $C0		;[Wait] 1
    2090.  00:5841  60                  	db $60		;[Note] 97
    2091.  00:5842                      				;[Skip delay] 1
    2092.  00:5842  BF                  	db $BF		;[End-Of-Track]
    2093.  00:5843                      .track_39:
    2094.  00:5843  3F                  	db $3F		;[Note] 64
    2095.  00:5844  C2                  	db $C2		;[Wait] 3
    2096.  00:5845  60                  	db $60		;[Note] 97
    2097.  00:5846  C0                  	db $C0		;[Wait] 1
    2098.  00:5847  46                  	db $46		;[Note] 71
    2099.  00:5848  C3                  	db $C3		;[Wait] 4
    2100.  00:5849  44                  	db $44		;[Note] 69
    2101.  00:584A  C1                  	db $C1		;[Wait] 2
    2102.  00:584B  42                  	db $42		;[Note] 67
    2103.  00:584C                      				;[Skip delay] 2
    2104.  00:584C  41                  	db $41		;[Note] 66
    2105.  00:584D  C3                  	db $C3		;[Wait] 4
    2106.  00:584E  44                  	db $44		;[Note] 69
    2107.  00:584F  C2                  	db $C2		;[Wait] 3
    2108.  00:5850  60                  	db $60		;[Note] 97
    2109.  00:5851  C0                  	db $C0		;[Wait] 1
    2110.  00:5852  3D                  	db $3D		;[Note] 62
    2111.  00:5853  C1                  	db $C1		;[Wait] 2
    2112.  00:5854  3F                  	db $3F		;[Note] 64
    2113.  00:5855  C3                  	db $C3		;[Wait] 4
    2114.  00:5856  41                  	db $41		;[Note] 66
    2115.  00:5857                      				;[Skip delay] 4
    2116.  00:5857  3D                  	db $3D		;[Note] 62
    2117.  00:5858  C1                  	db $C1		;[Wait] 2
    2118.  00:5859  42                  	db $42		;[Note] 67
    2119.  00:585A  C3                  	db $C3		;[Wait] 4
    2120.  00:585B  A7 78               	db $A7, $78		;[CMD vibrato]
    2121.  00:585D  C0                  	db $C0		;[Wait] 1
    2122.  00:585E  B1 08               	db $B1, $08		;[CMD vibrato] rep
    2123.  00:5860  C7                  	db $C7		;[Wait] 8
    2124.  00:5861  60                  	db $60		;[Note] 97
    2125.  00:5862  C0                  	db $C0		;[Wait] 1
    2126.  00:5863  44                  	db $44		;[Note] 69
    2127.  00:5864                      				;[Skip delay] 1
    2128.  00:5864  42                  	db $42		;[Note] 67
    2129.  00:5865  99                  	db $99			;Note link
    2130.  00:5866                      				;[Skip delay] 1
    2131.  00:5866  41                  	db $41		;[Note] 66
    2132.  00:5867  C3                  	db $C3		;[Wait] 4
    2133.  00:5868  A7 77               	db $A7, $77		;[CMD vibrato]
    2134.  00:586A  C0                  	db $C0		;[Wait] 1
    2135.  00:586B  B1 03               	db $B1, $03		;[CMD vibrato] rep
    2136.  00:586D  C2                  	db $C2		;[Wait] 3
    2137.  00:586E  3D                  	db $3D		;[Note] 62
    2138.  00:586F  C5                  	db $C5		;[Wait] 6
    2139.  00:5870  3F                  	db $3F		;[Note] 64
    2140.  00:5871  C0                  	db $C0		;[Wait] 1
    2141.  00:5872  60                  	db $60		;[Note] 97
    2142.  00:5873                      				;[Skip delay] 1
    2143.  00:5873  BF                  	db $BF		;[End-Of-Track]
    2144.  00:5874                      .track_40:
    2145.  00:5874  60                  	db $60		;[Note] 97
    2146.  00:5875  C0                  	db $C0		;[Wait] 1
    2147.  00:5876  31                  	db $31		;[Note] 50
    2148.  00:5877  C1                  	db $C1		;[Wait] 2
    2149.  00:5878  33                  	db $33		;[Note] 52
    2150.  00:5879  C2                  	db $C2		;[Wait] 3
    2151.  00:587A  60                  	db $60		;[Note] 97
    2152.  00:587B  C0                  	db $C0		;[Wait] 1
    2153.  00:587C  3A                  	db $3A		;[Note] 59
    2154.  00:587D  C3                  	db $C3		;[Wait] 4
    2155.  00:587E  38                  	db $38		;[Note] 57
    2156.  00:587F  C1                  	db $C1		;[Wait] 2
    2157.  00:5880  36                  	db $36		;[Note] 55
    2158.  00:5881                      				;[Skip delay] 2
    2159.  00:5881  35                  	db $35		;[Note] 54
    2160.  00:5882  C3                  	db $C3		;[Wait] 4
    2161.  00:5883  38                  	db $38		;[Note] 57
    2162.  00:5884  C2                  	db $C2		;[Wait] 3
    2163.  00:5885  60                  	db $60		;[Note] 97
    2164.  00:5886  C0                  	db $C0		;[Wait] 1
    2165.  00:5887  31                  	db $31		;[Note] 50
    2166.  00:5888  C1                  	db $C1		;[Wait] 2
    2167.  00:5889  33                  	db $33		;[Note] 52
    2168.  00:588A  C3                  	db $C3		;[Wait] 4
    2169.  00:588B  35                  	db $35		;[Note] 54
    2170.  00:588C                      				;[Skip delay] 4
    2171.  00:588C  31                  	db $31		;[Note] 50
    2172.  00:588D  C1                  	db $C1		;[Wait] 2
    2173.  00:588E  36                  	db $36		;[Note] 55
    2174.  00:588F  C3                  	db $C3		;[Wait] 4
    2175.  00:5890  A7 76               	db $A7, $76		;[CMD vibrato]
    2176.  00:5892  C0                  	db $C0		;[Wait] 1
    2177.  00:5893  B1 08               	db $B1, $08		;[CMD vibrato] rep
    2178.  00:5895  C7                  	db $C7		;[Wait] 8
    2179.  00:5896  60                  	db $60		;[Note] 97
    2180.  00:5897  C0                  	db $C0		;[Wait] 1
    2181.  00:5898  38                  	db $38		;[Note] 57
    2182.  00:5899                      				;[Skip delay] 1
    2183.  00:5899  36                  	db $36		;[Note] 55
    2184.  00:589A  99                  	db $99			;Note link
    2185.  00:589B                      				;[Skip delay] 1
    2186.  00:589B  35                  	db $35		;[Note] 54
    2187.  00:589C  C3                  	db $C3		;[Wait] 4
    2188.  00:589D  A7 76               	db $A7, $76		;[CMD vibrato]
    2189.  00:589F  C0                  	db $C0		;[Wait] 1
    2190.  00:58A0  B1 03               	db $B1, $03		;[CMD vibrato] rep
    2191.  00:58A2  C2                  	db $C2		;[Wait] 3
    2192.  00:58A3  31                  	db $31		;[Note] 50
    2193.  00:58A4  C4                  	db $C4		;[Wait] 5
    2194.  00:58A5  BF                  	db $BF		;[End-Of-Track]
    2195.  00:58A6                      .track_41:
    2196.  00:58A6  91 07               	db $91, $07		;[FM drum] 12
    2197.  00:58A8  C3                  	db $C3		;[Wait] 4
    2198.  00:58A9  91 03               	db $91, $03		;[FM drum] 4
    2199.  00:58AB                      				;[Skip delay] 4
    2200.  00:58AB  26                  	db $26		;[Note] 39
    2201.  00:58AC  6F                  	db $6F		;[Volume] 15
    2202.  00:58AD  78                  	db $78		;[Instrument] 9
    2203.  00:58AE  91 02               	db $91, $02		;[FM drum] 2
    2204.  00:58B0  C1                  	db $C1		;[Wait] 2
    2205.  00:58B1  26                  	db $26		;[Note] 39
    2206.  00:58B2  67                  	db $67		;[Volume] 7
    2207.  00:58B3  C1                  	db $C1		;[Wait..] 2
    2208.  00:58B4  91 03               	db $91, $03		;[FM drum] 4
    2209.  00:58B6                      				;[Skip delay] 2
    2210.  00:58B6  91 04               	db $91, $04		;[FM drum] 5
    2211.  00:58B8                      				;[Skip delay] 2
    2212.  00:58B8  91 06               	db $91, $06		;[FM drum] 11
    2213.  00:58BA                      				;[Skip delay] 2
    2214.  00:58BA  91 01               	db $91, $01		;[FM drum] 1
    2215.  00:58BC                      				;[Skip delay] 2
    2216.  00:58BC  91 03               	db $91, $03		;[FM drum] 4
    2217.  00:58BE  C3                  	db $C3		;[Wait] 4
    2218.  00:58BF  91 04               	db $91, $04		;[FM drum] 5
    2219.  00:58C1  C2                  	db $C2		;[Wait] 3
    2220.  00:58C2  91 01               	db $91, $01		;[FM drum] 1
    2221.  00:58C4  C0                  	db $C0		;[Wait] 1
    2222.  00:58C5  26                  	db $26		;[Note] 39
    2223.  00:58C6  6F                  	db $6F		;[Volume] 15
    2224.  00:58C7  91 02               	db $91, $02		;[FM drum] 2
    2225.  00:58C9  C1                  	db $C1		;[Wait] 2
    2226.  00:58CA  26                  	db $26		;[Note] 39
    2227.  00:58CB  69                  	db $69		;[Volume] 9
    2228.  00:58CC  91 04               	db $91, $04		;[FM drum] 5
    2229.  00:58CE                      				;[Skip delay] 2
    2230.  00:58CE  BF                  	db $BF		;[End-Of-Track]
    2231.  00:58CF                      .track_42:
    2232.  00:58CF  0F                  	db $0F		;[Note] 16
    2233.  00:58D0  C1                  	db $C1		;[Wait] 2
    2234.  00:58D1  0F                  	db $0F		;[Note] 16
    2235.  00:58D2                      				;[Skip delay] 2
    2236.  00:58D2  1B                  	db $1B		;[Note] 28
    2237.  00:58D3                      				;[Skip delay] 2
    2238.  00:58D3  0F                  	db $0F		;[Note] 16
    2239.  00:58D4                      				;[Skip delay] 2
    2240.  00:58D4  1A                  	db $1A		;[Note] 27
    2241.  00:58D5                      				;[Skip delay] 2
    2242.  00:58D5  0E                  	db $0E		;[Note] 15
    2243.  00:58D6                      				;[Skip delay] 2
    2244.  00:58D6  0E                  	db $0E		;[Note] 15
    2245.  00:58D7                      				;[Skip delay] 2
    2246.  00:58D7  1A                  	db $1A		;[Note] 27
    2247.  00:58D8                      				;[Skip delay] 2
    2248.  00:58D8  0D                  	db $0D		;[Note] 14
    2249.  00:58D9                      				;[Skip delay] 2
    2250.  00:58D9  19                  	db $19		;[Note] 26
    2251.  00:58DA                      				;[Skip delay] 2
    2252.  00:58DA  0D                  	db $0D		;[Note] 14
    2253.  00:58DB                      				;[Skip delay] 2
    2254.  00:58DB  16                  	db $16		;[Note] 23
    2255.  00:58DC                      				;[Skip delay] 2
    2256.  00:58DC  0A                  	db $0A		;[Note] 11
    2257.  00:58DD                      				;[Skip delay] 2
    2258.  00:58DD  16                  	db $16		;[Note] 23
    2259.  00:58DE                      				;[Skip delay] 2
    2260.  00:58DE  17                  	db $17		;[Note] 24
    2261.  00:58DF                      				;[Skip delay] 2
    2262.  00:58DF  19                  	db $19		;[Note] 26
    2263.  00:58E0                      				;[Skip delay] 2
    2264.  00:58E0  BF                  	db $BF		;[End-Of-Track]
    2265.  00:58E1                      .track_43:
    2266.  00:58E1  2E                  	db $2E		;[Note] 47
    2267.  00:58E2  C3                  	db $C3		;[Wait] 4
    2268.  00:58E3  A7 78               	db $A7, $78		;[CMD vibrato]
    2269.  00:58E5  C0                  	db $C0		;[Wait] 1
    2270.  00:58E6  B1 07               	db $B1, $07		;[CMD vibrato] rep
    2271.  00:58E8  C6                  	db $C6		;[Wait] 7
    2272.  00:58E9  A7 77               	db $A7, $77		;[CMD vibrato]
    2273.  00:58EB  C0                  	db $C0		;[Wait] 1
    2274.  00:58EC  B1 03               	db $B1, $03		;[CMD vibrato] rep
    2275.  00:58EE  C1                  	db $C1		;[Wait] 2
    2276.  00:58EF  6B                  	db $6B		;[Volume] 11
    2277.  00:58F0  C0                  	db $C0		;[Wait] 1
    2278.  00:58F1  2C                  	db $2C		;[Note] 45
    2279.  00:58F2  6F                  	db $6F		;[Volume] 15
    2280.  00:58F3  C3                  	db $C3		;[Wait] 4
    2281.  00:58F4  A7 77               	db $A7, $77		;[CMD vibrato]
    2282.  00:58F6  C0                  	db $C0		;[Wait] 1
    2283.  00:58F7  6D                  	db $6D		;[Volume] 13
    2284.  00:58F8  B1 01               	db $B1, $01		;[CMD vibrato] rep
    2285.  00:58FA                      				;[Skip delay] 1
    2286.  00:58FA  29                  	db $29		;[Note] 42
    2287.  00:58FB  6F                  	db $6F		;[Volume] 15
    2288.  00:58FC  C3                  	db $C3		;[Wait] 4
    2289.  00:58FD  A7 77               	db $A7, $77		;[CMD vibrato]
    2290.  00:58FF  C0                  	db $C0		;[Wait] 1
    2291.  00:5900  B1 01               	db $B1, $01		;[CMD vibrato] rep
    2292.  00:5902                      				;[Skip delay] 1
    2293.  00:5902  2C                  	db $2C		;[Note] 45
    2294.  00:5903  C2                  	db $C2		;[Wait] 3
    2295.  00:5904  6B                  	db $6B		;[Volume] 11
    2296.  00:5905  C0                  	db $C0		;[Wait] 1
    2297.  00:5906  BF                  	db $BF		;[End-Of-Track]
    2298.  00:5907                      .track_44:
    2299.  00:5907  33                  	db $33		;[Note] 52
    2300.  00:5908  C3                  	db $C3		;[Wait] 4
    2301.  00:5909  36                  	db $36		;[Note] 55
    2302.  00:590A                      				;[Skip delay] 4
    2303.  00:590A  35                  	db $35		;[Note] 54
    2304.  00:590B  C5                  	db $C5		;[Wait] 6
    2305.  00:590C  35                  	db $35		;[Note] 54
    2306.  00:590D  C7                  	db $C7		;[Wait] 8
    2307.  00:590E  31                  	db $31		;[Note] 50
    2308.  00:590F  C5                  	db $C5		;[Wait] 6
    2309.  00:5910  35                  	db $35		;[Note] 54
    2310.  00:5911  C3                  	db $C3		;[Wait] 4
    2311.  00:5912  BF                  	db $BF		;[End-Of-Track]
    2312.  00:5913                      .track_45:
    2313.  00:5913  3A                  	db $3A		;[Note] 59
    2314.  00:5914  C3                  	db $C3		;[Wait] 4
    2315.  00:5915  A7 77               	db $A7, $77		;[CMD vibrato]
    2316.  00:5917  C0                  	db $C0		;[Wait] 1
    2317.  00:5918  B1 0B               	db $B1, $0B		;[CMD vibrato] rep
    2318.  00:591A  C9                  	db $C9		;[Wait] 10
    2319.  00:591B  6B                  	db $6B		;[Volume] 11
    2320.  00:591C  C0                  	db $C0		;[Wait] 1
    2321.  00:591D  38                  	db $38		;[Note] 57
    2322.  00:591E  6F                  	db $6F		;[Volume] 15
    2323.  00:591F  C3                  	db $C3		;[Wait] 4
    2324.  00:5920  A7 76               	db $A7, $76		;[CMD vibrato]
    2325.  00:5922  C0                  	db $C0		;[Wait] 1
    2326.  00:5923  6D                  	db $6D		;[Volume] 13
    2327.  00:5924  B1 01               	db $B1, $01		;[CMD vibrato] rep
    2328.  00:5926                      				;[Skip delay] 1
    2329.  00:5926  35                  	db $35		;[Note] 54
    2330.  00:5927  6F                  	db $6F		;[Volume] 15
    2331.  00:5928  C3                  	db $C3		;[Wait] 4
    2332.  00:5929  A7 76               	db $A7, $76		;[CMD vibrato]
    2333.  00:592B  C0                  	db $C0		;[Wait] 1
    2334.  00:592C  B1 01               	db $B1, $01		;[CMD vibrato] rep
    2335.  00:592E                      				;[Skip delay] 1
    2336.  00:592E  38                  	db $38		;[Note] 57
    2337.  00:592F  C2                  	db $C2		;[Wait] 3
    2338.  00:5930  6B                  	db $6B		;[Volume] 11
    2339.  00:5931  C0                  	db $C0		;[Wait] 1
    2340.  00:5932  BF                  	db $BF		;[End-Of-Track]
    2341.  00:5933                      .track_46:
    2342.  00:5933  C0                  	db $C0		;[Wait] 1
    2343.  00:5934  33                  	db $33		;[Note] 52
    2344.  00:5935                      				;[Skip delay] 1
    2345.  00:5935  60                  	db $60		;[Note] 97
    2346.  00:5936                      				;[Skip delay] 1
    2347.  00:5936  2E                  	db $2E		;[Note] 47
    2348.  00:5937  C3                  	db $C3		;[Wait] 4
    2349.  00:5938  A7 76               	db $A7, $76		;[CMD vibrato]
    2350.  00:593A  C0                  	db $C0		;[Wait] 1
    2351.  00:593B  B1 07               	db $B1, $07		;[CMD vibrato] rep
    2352.  00:593D  C6                  	db $C6		;[Wait] 7
    2353.  00:593E  A7 75               	db $A7, $75		;[CMD vibrato]
    2354.  00:5940  C0                  	db $C0		;[Wait] 1
    2355.  00:5941  B1 02               	db $B1, $02		;[CMD vibrato] rep
    2356.  00:5943  C1                  	db $C1		;[Wait] 2
    2357.  00:5944  60                  	db $60		;[Note] 97
    2358.  00:5945  C0                  	db $C0		;[Wait] 1
    2359.  00:5946  2C                  	db $2C		;[Note] 45
    2360.  00:5947  C3                  	db $C3		;[Wait] 4
    2361.  00:5948  A7 76               	db $A7, $76		;[CMD vibrato]
    2362.  00:594A  C0                  	db $C0		;[Wait] 1
    2363.  00:594B  60                  	db $60		;[Note] 97
    2364.  00:594C                      				;[Skip delay] 1
    2365.  00:594C  29                  	db $29		;[Note] 42
    2366.  00:594D  C3                  	db $C3		;[Wait] 4
    2367.  00:594E  A7 76               	db $A7, $76		;[CMD vibrato]
    2368.  00:5950  C0                  	db $C0		;[Wait] 1
    2369.  00:5951  B1 01               	db $B1, $01		;[CMD vibrato] rep
    2370.  00:5953                      				;[Skip delay] 1
    2371.  00:5953  2C                  	db $2C		;[Note] 45
    2372.  00:5954                      				;[Skip delay] 1
    2373.  00:5954  BF                  	db $BF		;[End-Of-Track]
    2374.  00:5955                      .track_47:
    2375.  00:5955  C0                  	db $C0		;[Wait] 1
    2376.  00:5956  31                  	db $31		;[Note] 50
    2377.  00:5957  C1                  	db $C1		;[Wait] 2
    2378.  00:5958  33                  	db $33		;[Note] 52
    2379.  00:5959  C3                  	db $C3		;[Wait] 4
    2380.  00:595A  36                  	db $36		;[Note] 55
    2381.  00:595B                      				;[Skip delay] 4
    2382.  00:595B  35                  	db $35		;[Note] 54
    2383.  00:595C  C5                  	db $C5		;[Wait] 6
    2384.  00:595D  35                  	db $35		;[Note] 54
    2385.  00:595E  C7                  	db $C7		;[Wait] 8
    2386.  00:595F  31                  	db $31		;[Note] 50
    2387.  00:5960  C5                  	db $C5		;[Wait] 6
    2388.  00:5961  35                  	db $35		;[Note] 54
    2389.  00:5962  C0                  	db $C0		;[Wait] 1
    2390.  00:5963  BF                  	db $BF		;[End-Of-Track]
    2391.  00:5964                      .track_48:
    2392.  00:5964  1E                  	db $1E		;[Note] 31
    2393.  00:5965  6F                  	db $6F		;[Volume] 15
    2394.  00:5966  7F                  	db $7F		;[Instrument] 16
    2395.  00:5967  91 05               	db $91, $05		;[FM drum] 6
    2396.  00:5969  C1                  	db $C1		;[Wait] 2
    2397.  00:596A  91 01               	db $91, $01		;[FM drum] 1
    2398.  00:596C                      				;[Skip delay] 2
    2399.  00:596C  91 04               	db $91, $04		;[FM drum] 5
    2400.  00:596E  C3                  	db $C3		;[Wait] 4
    2401.  00:596F  91 03               	db $91, $03		;[FM drum] 4
    2402.  00:5971  C1                  	db $C1		;[Wait] 2
    2403.  00:5972  91 01               	db $91, $01		;[FM drum] 1
    2404.  00:5974                      				;[Skip delay] 2
    2405.  00:5974  91 04               	db $91, $04		;[FM drum] 5
    2406.  00:5976  C3                  	db $C3		;[Wait] 4
    2407.  00:5977  26                  	db $26		;[Note] 39
    2408.  00:5978  78                  	db $78		;[Instrument] 9
    2409.  00:5979  91 02               	db $91, $02		;[FM drum] 2
    2410.  00:597B  C1                  	db $C1		;[Wait] 2
    2411.  00:597C  26                  	db $26		;[Note] 39
    2412.  00:597D  69                  	db $69		;[Volume] 9
    2413.  00:597E                      				;[Skip delay] 2
    2414.  00:597E  20                  	db $20		;[Note] 33
    2415.  00:597F  6F                  	db $6F		;[Volume] 15
    2416.  00:5980  7F                  	db $7F		;[Instrument] 16
    2417.  00:5981  91 01               	db $91, $01		;[FM drum] 1
    2418.  00:5983  C3                  	db $C3		;[Wait] 4
    2419.  00:5984  91 03               	db $91, $03		;[FM drum] 4
    2420.  00:5986                      				;[Skip delay] 4
    2421.  00:5986  1E                  	db $1E		;[Note] 31
    2422.  00:5987  C1                  	db $C1		;[Wait] 2
    2423.  00:5988  25                  	db $25		;[Note] 38
    2424.  00:5989  6C                  	db $6C		;[Volume] 12
    2425.  00:598A  99                  	db $99			;Note link
    2426.  00:598B                      				;[Skip delay] 2
    2427.  00:598B  20                  	db $20		;[Note] 33
    2428.  00:598C  6F                  	db $6F		;[Volume] 15
    2429.  00:598D  91 07               	db $91, $07		;[FM drum] 12
    2430.  00:598F                      				;[Skip delay] 2
    2431.  00:598F  91 01               	db $91, $01		;[FM drum] 1
    2432.  00:5991                      				;[Skip delay] 2
    2433.  00:5991  91 04               	db $91, $04		;[FM drum] 5
    2434.  00:5993  C3                  	db $C3		;[Wait] 4
    2435.  00:5994  91 03               	db $91, $03		;[FM drum] 4
    2436.  00:5996  C1                  	db $C1		;[Wait] 2
    2437.  00:5997  91 01               	db $91, $01		;[FM drum] 1
    2438.  00:5999                      				;[Skip delay] 2
    2439.  00:5999  91 04               	db $91, $04		;[FM drum] 5
    2440.  00:599B  C3                  	db $C3		;[Wait] 4
    2441.  00:599C  26                  	db $26		;[Note] 39
    2442.  00:599D  78                  	db $78		;[Instrument] 9
    2443.  00:599E  91 02               	db $91, $02		;[FM drum] 2
    2444.  00:59A0  C1                  	db $C1		;[Wait] 2
    2445.  00:59A1  26                  	db $26		;[Note] 39
    2446.  00:59A2  69                  	db $69		;[Volume] 9
    2447.  00:59A3                      				;[Skip delay] 2
    2448.  00:59A3  1E                  	db $1E		;[Note] 31
    2449.  00:59A4  6F                  	db $6F		;[Volume] 15
    2450.  00:59A5  7F                  	db $7F		;[Instrument] 16
    2451.  00:59A6  91 01               	db $91, $01		;[FM drum] 1
    2452.  00:59A8  C0                  	db $C0		;[Wait] 1
    2453.  00:59A9  20                  	db $20		;[Note] 33
    2454.  00:59AA  99                  	db $99			;Note link
    2455.  00:59AB                      				;[Skip delay] 1
    2456.  00:59AB  1E                  	db $1E		;[Note] 31
    2457.  00:59AC  C1                  	db $C1		;[Wait] 2
    2458.  00:59AD  91 03               	db $91, $03		;[FM drum] 4
    2459.  00:59AF  C3                  	db $C3		;[Wait] 4
    2460.  00:59B0  26                  	db $26		;[Note] 39
    2461.  00:59B1  78                  	db $78		;[Instrument] 9
    2462.  00:59B2  91 02               	db $91, $02		;[FM drum] 2
    2463.  00:59B4  C1                  	db $C1		;[Wait] 2
    2464.  00:59B5  26                  	db $26		;[Note] 39
    2465.  00:59B6  69                  	db $69		;[Volume] 9
    2466.  00:59B7  91 04               	db $91, $04		;[FM drum] 5
    2467.  00:59B9                      				;[Skip delay] 2
    2468.  00:59B9  BF                  	db $BF		;[End-Of-Track]
    2469.  00:59BA                      .track_49:
    2470.  00:59BA  17                  	db $17		;[Note] 24
    2471.  00:59BB  6A                  	db $6A		;[Volume] 10
    2472.  00:59BC  C1                  	db $C1		;[Wait] 2
    2473.  00:59BD  0B                  	db $0B		;[Note] 12
    2474.  00:59BE  C0                  	db $C0		;[Wait] 1
    2475.  00:59BF  17                  	db $17		;[Note] 24
    2476.  00:59C0  67                  	db $67		;[Volume] 7
    2477.  00:59C1  95 00               	db $95, $00		; track detune
    2478.  00:59C3  C1                  	db $C1		;[Wait] 2
    2479.  00:59C4  0B                  	db $0B		;[Note] 12
    2480.  00:59C5  C0                  	db $C0		;[Wait] 1
    2481.  00:59C6  0B                  	db $0B		;[Note] 12
    2482.  00:59C7  6A                  	db $6A		;[Volume] 10
    2483.  00:59C8  95 03               	db $95, $03		; track detune
    2484.  00:59CA  C2                  	db $C2		;[Wait] 3
    2485.  00:59CB  0B                  	db $0B		;[Note] 12
    2486.  00:59CC  67                  	db $67		;[Volume] 7
    2487.  00:59CD  C0                  	db $C0		;[Wait] 1
    2488.  00:59CE  0F                  	db $0F		;[Note] 16
    2489.  00:59CF  6A                  	db $6A		;[Volume] 10
    2490.  00:59D0                      				;[Skip delay] 1
    2491.  00:59D0  60                  	db $60		;[Note] 97
    2492.  00:59D1                      				;[Skip delay] 1
    2493.  00:59D1  0B                  	db $0B		;[Note] 12
    2494.  00:59D2                      				;[Skip delay] 1
    2495.  00:59D2  60                  	db $60		;[Note] 97
    2496.  00:59D3                      				;[Skip delay] 1
    2497.  00:59D3  16                  	db $16		;[Note] 23
    2498.  00:59D4                      				;[Skip delay] 1
    2499.  00:59D4  17                  	db $17		;[Note] 24
    2500.  00:59D5  C6                  	db $C6		;[Wait] 7
    2501.  00:59D6  A7 75               	db $A7, $75		;[CMD vibrato]
    2502.  00:59D8  C0                  	db $C0		;[Wait] 1
    2503.  00:59D9  B1 09               	db $B1, $09		;[CMD vibrato] rep
    2504.  00:59DB  C8                  	db $C8		;[Wait] 9
    2505.  00:59DC  19                  	db $19		;[Note] 26
    2506.  00:59DD  C1                  	db $C1		;[Wait] 2
    2507.  00:59DE  0D                  	db $0D		;[Note] 14
    2508.  00:59DF  C0                  	db $C0		;[Wait] 1
    2509.  00:59E0  19                  	db $19		;[Note] 26
    2510.  00:59E1  67                  	db $67		;[Volume] 7
    2511.  00:59E2  C1                  	db $C1		;[Wait] 2
    2512.  00:59E3  0D                  	db $0D		;[Note] 14
    2513.  00:59E4  C0                  	db $C0		;[Wait] 1
    2514.  00:59E5  0D                  	db $0D		;[Note] 14
    2515.  00:59E6  6A                  	db $6A		;[Volume] 10
    2516.  00:59E7  95 00               	db $95, $00		; track detune
    2517.  00:59E9  C2                  	db $C2		;[Wait] 3
    2518.  00:59EA  0D                  	db $0D		;[Note] 14
    2519.  00:59EB  67                  	db $67		;[Volume] 7
    2520.  00:59EC  95 03               	db $95, $03		; track detune
    2521.  00:59EE  C0                  	db $C0		;[Wait] 1
    2522.  00:59EF  0B                  	db $0B		;[Note] 12
    2523.  00:59F0  6A                  	db $6A		;[Volume] 10
    2524.  00:59F1                      				;[Skip delay] 1
    2525.  00:59F1  60                  	db $60		;[Note] 97
    2526.  00:59F2                      				;[Skip delay] 1
    2527.  00:59F2  14                  	db $14		;[Note] 21
    2528.  00:59F3                      				;[Skip delay] 1
    2529.  00:59F3  60                  	db $60		;[Note] 97
    2530.  00:59F4                      				;[Skip delay] 1
    2531.  00:59F4  17                  	db $17		;[Note] 24
    2532.  00:59F5                      				;[Skip delay] 1
    2533.  00:59F5  19                  	db $19		;[Note] 26
    2534.  00:59F6  C6                  	db $C6		;[Wait] 7
    2535.  00:59F7  A7 77               	db $A7, $77		;[CMD vibrato]
    2536.  00:59F9  C0                  	db $C0		;[Wait] 1
    2537.  00:59FA  B1 09               	db $B1, $09		;[CMD vibrato] rep
    2538.  00:59FC  C8                  	db $C8		;[Wait] 9
    2539.  00:59FD  BF                  	db $BF		;[End-Of-Track]
    2540.  00:59FE                      .track_50:
    2541.  00:59FE  17                  	db $17		;[Note] 24
    2542.  00:59FF  6F                  	db $6F		;[Volume] 15
    2543.  00:5A00  C1                  	db $C1		;[Wait] 2
    2544.  00:5A01  0B                  	db $0B		;[Note] 12
    2545.  00:5A02  C0                  	db $C0		;[Wait] 1
    2546.  00:5A03  17                  	db $17		;[Note] 24
    2547.  00:5A04  6B                  	db $6B		;[Volume] 11
    2548.  00:5A05  95 02               	db $95, $02		; track detune
    2549.  00:5A07  C1                  	db $C1		;[Wait] 2
    2550.  00:5A08  0B                  	db $0B		;[Note] 12
    2551.  00:5A09  C0                  	db $C0		;[Wait] 1
    2552.  00:5A0A  0B                  	db $0B		;[Note] 12
    2553.  00:5A0B  6F                  	db $6F		;[Volume] 15
    2554.  00:5A0C  95 00               	db $95, $00		; track detune
    2555.  00:5A0E  C2                  	db $C2		;[Wait] 3
    2556.  00:5A0F  0B                  	db $0B		;[Note] 12
    2557.  00:5A10  6B                  	db $6B		;[Volume] 11
    2558.  00:5A11  95 03               	db $95, $03		; track detune
    2559.  00:5A13  C0                  	db $C0		;[Wait] 1
    2560.  00:5A14  0F                  	db $0F		;[Note] 16
    2561.  00:5A15  6F                  	db $6F		;[Volume] 15
    2562.  00:5A16  95 00               	db $95, $00		; track detune
    2563.  00:5A18                      				;[Skip delay] 1
    2564.  00:5A18  60                  	db $60		;[Note] 97
    2565.  00:5A19                      				;[Skip delay] 1
    2566.  00:5A19  0B                  	db $0B		;[Note] 12
    2567.  00:5A1A                      				;[Skip delay] 1
    2568.  00:5A1A  60                  	db $60		;[Note] 97
    2569.  00:5A1B                      				;[Skip delay] 1
    2570.  00:5A1B  16                  	db $16		;[Note] 23
    2571.  00:5A1C  A6 0C               	db $A6, $0C		; tone-slide
    2572.  00:5A1E                      				;[Skip delay] 1
    2573.  00:5A1E  17                  	db $17		;[Note] 24
    2574.  00:5A1F  B0 03               	db $B0, $03		; tone-slide rep
    2575.  00:5A21  C6                  	db $C6		;[Wait] 7
    2576.  00:5A22  A7 75               	db $A7, $75		;[CMD vibrato]
    2577.  00:5A24  C0                  	db $C0		;[Wait] 1
    2578.  00:5A25  B1 09               	db $B1, $09		;[CMD vibrato] rep
    2579.  00:5A27  C8                  	db $C8		;[Wait] 9
    2580.  00:5A28  19                  	db $19		;[Note] 26
    2581.  00:5A29  C1                  	db $C1		;[Wait] 2
    2582.  00:5A2A  0D                  	db $0D		;[Note] 14
    2583.  00:5A2B  C0                  	db $C0		;[Wait] 1
    2584.  00:5A2C  19                  	db $19		;[Note] 26
    2585.  00:5A2D  6B                  	db $6B		;[Volume] 11
    2586.  00:5A2E  95 02               	db $95, $02		; track detune
    2587.  00:5A30  C1                  	db $C1		;[Wait] 2
    2588.  00:5A31  0D                  	db $0D		;[Note] 14
    2589.  00:5A32  C0                  	db $C0		;[Wait] 1
    2590.  00:5A33  0D                  	db $0D		;[Note] 14
    2591.  00:5A34  6F                  	db $6F		;[Volume] 15
    2592.  00:5A35  95 00               	db $95, $00		; track detune
    2593.  00:5A37  C2                  	db $C2		;[Wait] 3
    2594.  00:5A38  0D                  	db $0D		;[Note] 14
    2595.  00:5A39  6B                  	db $6B		;[Volume] 11
    2596.  00:5A3A  95 03               	db $95, $03		; track detune
    2597.  00:5A3C  C0                  	db $C0		;[Wait] 1
    2598.  00:5A3D  0B                  	db $0B		;[Note] 12
    2599.  00:5A3E  6F                  	db $6F		;[Volume] 15
    2600.  00:5A3F  95 00               	db $95, $00		; track detune
    2601.  00:5A41                      				;[Skip delay] 1
    2602.  00:5A41  60                  	db $60		;[Note] 97
    2603.  00:5A42                      				;[Skip delay] 1
    2604.  00:5A42  14                  	db $14		;[Note] 21
    2605.  00:5A43                      				;[Skip delay] 1
    2606.  00:5A43  60                  	db $60		;[Note] 97
    2607.  00:5A44                      				;[Skip delay] 1
    2608.  00:5A44  17                  	db $17		;[Note] 24
    2609.  00:5A45                      				;[Skip delay] 1
    2610.  00:5A45  19                  	db $19		;[Note] 26
    2611.  00:5A46  A6 02               	db $A6, $02		; tone-slide
    2612.  00:5A48                      				;[Skip delay] 1
    2613.  00:5A48  B0 03               	db $B0, $03		; tone-slide rep
    2614.  00:5A4A  C5                  	db $C5		;[Wait] 6
    2615.  00:5A4B  A7 77               	db $A7, $77		;[CMD vibrato]
    2616.  00:5A4D  C0                  	db $C0		;[Wait] 1
    2617.  00:5A4E  B1 09               	db $B1, $09		;[CMD vibrato] rep
    2618.  00:5A50  C8                  	db $C8		;[Wait] 9
    2619.  00:5A51  BF                  	db $BF		;[End-Of-Track]
    2620.  00:5A52                      .track_51:
    2621.  00:5A52  3F                  	db $3F		;[Note] 64
    2622.  00:5A53  67                  	db $67		;[Volume] 7
    2623.  00:5A54  76                  	db $76		;[Instrument] 7
    2624.  00:5A55  C0                  	db $C0		;[Wait] 1
    2625.  00:5A56  68                  	db $68		;[Volume] 8
    2626.  00:5A57                      				;[Skip delay] 1
    2627.  00:5A57  69                  	db $69		;[Volume] 9
    2628.  00:5A58                      				;[Skip delay] 1
    2629.  00:5A58  6A                  	db $6A		;[Volume] 10
    2630.  00:5A59                      				;[Skip delay] 1
    2631.  00:5A59  6B                  	db $6B		;[Volume] 11
    2632.  00:5A5A  A7 78               	db $A7, $78		;[CMD vibrato]
    2633.  00:5A5C                      				;[Skip delay] 1
    2634.  00:5A5C  B1 07               	db $B1, $07		;[CMD vibrato] rep
    2635.  00:5A5E  C6                  	db $C6		;[Wait] 7
    2636.  00:5A5F  A7 77               	db $A7, $77		;[CMD vibrato]
    2637.  00:5A61  C0                  	db $C0		;[Wait] 1
    2638.  00:5A62  B1 07               	db $B1, $07		;[CMD vibrato] rep
    2639.  00:5A64  C2                  	db $C2		;[Wait] 3
    2640.  00:5A65  6C                  	db $6C		;[Volume] 12
    2641.  00:5A66  C3                  	db $C3		;[Wait] 4
    2642.  00:5A67  A7 76               	db $A7, $76		;[CMD vibrato]
    2643.  00:5A69  C0                  	db $C0		;[Wait] 1
    2644.  00:5A6A  B1 07               	db $B1, $07		;[CMD vibrato] rep
    2645.  00:5A6C  C6                  	db $C6		;[Wait] 7
    2646.  00:5A6D  A7 77               	db $A7, $77		;[CMD vibrato]
    2647.  00:5A6F  C0                  	db $C0		;[Wait] 1
    2648.  00:5A70  B1 07               	db $B1, $07		;[CMD vibrato] rep
    2649.  00:5A72  C2                  	db $C2		;[Wait] 3
    2650.  00:5A73  6D                  	db $6D		;[Volume] 13
    2651.  00:5A74  C3                  	db $C3		;[Wait] 4
    2652.  00:5A75  A7 78               	db $A7, $78		;[CMD vibrato]
    2653.  00:5A77  C0                  	db $C0		;[Wait] 1
    2654.  00:5A78  B1 07               	db $B1, $07		;[CMD vibrato] rep
    2655.  00:5A7A  C6                  	db $C6		;[Wait] 7
    2656.  00:5A7B  3D                  	db $3D		;[Note] 62
    2657.  00:5A7C  6C                  	db $6C		;[Volume] 12
    2658.  00:5A7D  C3                  	db $C3		;[Wait] 4
    2659.  00:5A7E  A7 76               	db $A7, $76		;[CMD vibrato]
    2660.  00:5A80  C0                  	db $C0		;[Wait] 1
    2661.  00:5A81  B1 03               	db $B1, $03		;[CMD vibrato] rep
    2662.  00:5A83  C2                  	db $C2		;[Wait] 3
    2663.  00:5A84  3A                  	db $3A		;[Note] 59
    2664.  00:5A85  C3                  	db $C3		;[Wait] 4
    2665.  00:5A86  A7 76               	db $A7, $76		;[CMD vibrato]
    2666.  00:5A88  C0                  	db $C0		;[Wait] 1
    2667.  00:5A89  B1 03               	db $B1, $03		;[CMD vibrato] rep
    2668.  00:5A8B  C2                  	db $C2		;[Wait] 3
    2669.  00:5A8C  6D                  	db $6D		;[Volume] 13
    2670.  00:5A8D  A7 75               	db $A7, $75		;[CMD vibrato]
    2671.  00:5A8F  C0                  	db $C0		;[Wait] 1
    2672.  00:5A90  B1 03               	db $B1, $03		;[CMD vibrato] rep
    2673.  00:5A92                      				;[Skip delay] 1
    2674.  00:5A92  6E                  	db $6E		;[Volume] 14
    2675.  00:5A93  C1                  	db $C1		;[Wait] 2
    2676.  00:5A94  BF                  	db $BF		;[End-Of-Track]
    2677.  00:5A95                      .track_52:
    2678.  00:5A95  3A                  	db $3A		;[Note] 59
    2679.  00:5A96  6D                  	db $6D		;[Volume] 13
    2680.  00:5A97  77                  	db $77		;[Instrument] 8
    2681.  00:5A98  C0                  	db $C0		;[Wait] 1
    2682.  00:5A99  3F                  	db $3F		;[Note] 64
    2683.  00:5A9A                      				;[Skip delay] 1
    2684.  00:5A9A  41                  	db $41		;[Note] 66
    2685.  00:5A9B                      				;[Skip delay] 1
    2686.  00:5A9B  42                  	db $42		;[Note] 67
    2687.  00:5A9C                      				;[Skip delay] 1
    2688.  00:5A9C  3A                  	db $3A		;[Note] 59
    2689.  00:5A9D                      				;[Skip delay] 1
    2690.  00:5A9D  3F                  	db $3F		;[Note] 64
    2691.  00:5A9E                      				;[Skip delay] 1
    2692.  00:5A9E  41                  	db $41		;[Note] 66
    2693.  00:5A9F                      				;[Skip delay] 1
    2694.  00:5A9F  42                  	db $42		;[Note] 67
    2695.  00:5AA0                      				;[Skip delay] 1
    2696.  00:5AA0  3A                  	db $3A		;[Note] 59
    2697.  00:5AA1                      				;[Skip delay] 1
    2698.  00:5AA1  3F                  	db $3F		;[Note] 64
    2699.  00:5AA2                      				;[Skip delay] 1
    2700.  00:5AA2  41                  	db $41		;[Note] 66
    2701.  00:5AA3                      				;[Skip delay] 1
    2702.  00:5AA3  42                  	db $42		;[Note] 67
    2703.  00:5AA4                      				;[Skip delay] 1
    2704.  00:5AA4  3A                  	db $3A		;[Note] 59
    2705.  00:5AA5                      				;[Skip delay] 1
    2706.  00:5AA5  3F                  	db $3F		;[Note] 64
    2707.  00:5AA6                      				;[Skip delay] 1
    2708.  00:5AA6  41                  	db $41		;[Note] 66
    2709.  00:5AA7                      				;[Skip delay] 1
    2710.  00:5AA7  42                  	db $42		;[Note] 67
    2711.  00:5AA8                      				;[Skip delay] 1
    2712.  00:5AA8  3A                  	db $3A		;[Note] 59
    2713.  00:5AA9                      				;[Skip delay] 1
    2714.  00:5AA9  3F                  	db $3F		;[Note] 64
    2715.  00:5AAA                      				;[Skip delay] 1
    2716.  00:5AAA  41                  	db $41		;[Note] 66
    2717.  00:5AAB                      				;[Skip delay] 1
    2718.  00:5AAB  42                  	db $42		;[Note] 67
    2719.  00:5AAC                      				;[Skip delay] 1
    2720.  00:5AAC  3A                  	db $3A		;[Note] 59
    2721.  00:5AAD                      				;[Skip delay] 1
    2722.  00:5AAD  3F                  	db $3F		;[Note] 64
    2723.  00:5AAE                      				;[Skip delay] 1
    2724.  00:5AAE  41                  	db $41		;[Note] 66
    2725.  00:5AAF                      				;[Skip delay] 1
    2726.  00:5AAF  42                  	db $42		;[Note] 67
    2727.  00:5AB0                      				;[Skip delay] 1
    2728.  00:5AB0  3A                  	db $3A		;[Note] 59
    2729.  00:5AB1                      				;[Skip delay] 1
    2730.  00:5AB1  3F                  	db $3F		;[Note] 64
    2731.  00:5AB2                      				;[Skip delay] 1
    2732.  00:5AB2  41                  	db $41		;[Note] 66
    2733.  00:5AB3                      				;[Skip delay] 1
    2734.  00:5AB3  42                  	db $42		;[Note] 67
    2735.  00:5AB4                      				;[Skip delay] 1
    2736.  00:5AB4  3A                  	db $3A		;[Note] 59
    2737.  00:5AB5                      				;[Skip delay] 1
    2738.  00:5AB5  3F                  	db $3F		;[Note] 64
    2739.  00:5AB6                      				;[Skip delay] 1
    2740.  00:5AB6  41                  	db $41		;[Note] 66
    2741.  00:5AB7                      				;[Skip delay] 1
    2742.  00:5AB7  42                  	db $42		;[Note] 67
    2743.  00:5AB8                      				;[Skip delay] 1
    2744.  00:5AB8  3A                  	db $3A		;[Note] 59
    2745.  00:5AB9                      				;[Skip delay] 1
    2746.  00:5AB9  3F                  	db $3F		;[Note] 64
    2747.  00:5ABA                      				;[Skip delay] 1
    2748.  00:5ABA  41                  	db $41		;[Note] 66
    2749.  00:5ABB                      				;[Skip delay] 1
    2750.  00:5ABB  42                  	db $42		;[Note] 67
    2751.  00:5ABC                      				;[Skip delay] 1
    2752.  00:5ABC  3A                  	db $3A		;[Note] 59
    2753.  00:5ABD                      				;[Skip delay] 1
    2754.  00:5ABD  3F                  	db $3F		;[Note] 64
    2755.  00:5ABE                      				;[Skip delay] 1
    2756.  00:5ABE  41                  	db $41		;[Note] 66
    2757.  00:5ABF                      				;[Skip delay] 1
    2758.  00:5ABF  42                  	db $42		;[Note] 67
    2759.  00:5AC0                      				;[Skip delay] 1
    2760.  00:5AC0  3A                  	db $3A		;[Note] 59
    2761.  00:5AC1                      				;[Skip delay] 1
    2762.  00:5AC1  3F                  	db $3F		;[Note] 64
    2763.  00:5AC2                      				;[Skip delay] 1
    2764.  00:5AC2  41                  	db $41		;[Note] 66
    2765.  00:5AC3                      				;[Skip delay] 1
    2766.  00:5AC3  42                  	db $42		;[Note] 67
    2767.  00:5AC4                      				;[Skip delay] 1
    2768.  00:5AC4  3A                  	db $3A		;[Note] 59
    2769.  00:5AC5                      				;[Skip delay] 1
    2770.  00:5AC5  3F                  	db $3F		;[Note] 64
    2771.  00:5AC6                      				;[Skip delay] 1
    2772.  00:5AC6  41                  	db $41		;[Note] 66
    2773.  00:5AC7                      				;[Skip delay] 1
    2774.  00:5AC7  42                  	db $42		;[Note] 67
    2775.  00:5AC8                      				;[Skip delay] 1
    2776.  00:5AC8  3A                  	db $3A		;[Note] 59
    2777.  00:5AC9                      				;[Skip delay] 1
    2778.  00:5AC9  3F                  	db $3F		;[Note] 64
    2779.  00:5ACA                      				;[Skip delay] 1
    2780.  00:5ACA  41                  	db $41		;[Note] 66
    2781.  00:5ACB                      				;[Skip delay] 1
    2782.  00:5ACB  42                  	db $42		;[Note] 67
    2783.  00:5ACC                      				;[Skip delay] 1
    2784.  00:5ACC  3A                  	db $3A		;[Note] 59
    2785.  00:5ACD                      				;[Skip delay] 1
    2786.  00:5ACD  3F                  	db $3F		;[Note] 64
    2787.  00:5ACE                      				;[Skip delay] 1
    2788.  00:5ACE  41                  	db $41		;[Note] 66
    2789.  00:5ACF                      				;[Skip delay] 1
    2790.  00:5ACF  42                  	db $42		;[Note] 67
    2791.  00:5AD0                      				;[Skip delay] 1
    2792.  00:5AD0  3A                  	db $3A		;[Note] 59
    2793.  00:5AD1                      				;[Skip delay] 1
    2794.  00:5AD1  3F                  	db $3F		;[Note] 64
    2795.  00:5AD2                      				;[Skip delay] 1
    2796.  00:5AD2  41                  	db $41		;[Note] 66
    2797.  00:5AD3                      				;[Skip delay] 1
    2798.  00:5AD3  42                  	db $42		;[Note] 67
    2799.  00:5AD4                      				;[Skip delay] 1
    2800.  00:5AD4  3A                  	db $3A		;[Note] 59
    2801.  00:5AD5                      				;[Skip delay] 1
    2802.  00:5AD5  3F                  	db $3F		;[Note] 64
    2803.  00:5AD6                      				;[Skip delay] 1
    2804.  00:5AD6  41                  	db $41		;[Note] 66
    2805.  00:5AD7                      				;[Skip delay] 1
    2806.  00:5AD7  42                  	db $42		;[Note] 67
    2807.  00:5AD8                      				;[Skip delay] 1
    2808.  00:5AD8  BF                  	db $BF		;[End-Of-Track]
    2809.  00:5AD9                      .track_53:
    2810.  00:5AD9  2E                  	db $2E		;[Note] 47
    2811.  00:5ADA  6D                  	db $6D		;[Volume] 13
    2812.  00:5ADB  7B                  	db $7B		;[Instrument] 12
    2813.  00:5ADC  C1                  	db $C1		;[Wait] 2
    2814.  00:5ADD  33                  	db $33		;[Note] 52
    2815.  00:5ADE  C0                  	db $C0		;[Wait] 1
    2816.  00:5ADF  2E                  	db $2E		;[Note] 47
    2817.  00:5AE0  68                  	db $68		;[Volume] 8
    2818.  00:5AE1  95 03               	db $95, $03		; track detune
    2819.  00:5AE3                      				;[Skip delay] 1
    2820.  00:5AE3  35                  	db $35		;[Note] 54
    2821.  00:5AE4  6E                  	db $6E		;[Volume] 14
    2822.  00:5AE5  7C                  	db $7C		;[Instrument] 13
    2823.  00:5AE6  95 00               	db $95, $00		; track detune
    2824.  00:5AE8                      				;[Skip delay] 1
    2825.  00:5AE8  33                  	db $33		;[Note] 52
    2826.  00:5AE9  68                  	db $68		;[Volume] 8
    2827.  00:5AEA  7B                  	db $7B		;[Instrument] 12
    2828.  00:5AEB  95 03               	db $95, $03		; track detune
    2829.  00:5AED                      				;[Skip delay] 1
    2830.  00:5AED  2E                  	db $2E		;[Note] 47
    2831.  00:5AEE  6E                  	db $6E		;[Volume] 14
    2832.  00:5AEF  95 00               	db $95, $00		; track detune
    2833.  00:5AF1                      				;[Skip delay] 1
    2834.  00:5AF1  35                  	db $35		;[Note] 54
    2835.  00:5AF2  69                  	db $69		;[Volume] 9
    2836.  00:5AF3  95 03               	db $95, $03		; track detune
    2837.  00:5AF5                      				;[Skip delay] 1
    2838.  00:5AF5  35                  	db $35		;[Note] 54
    2839.  00:5AF6  6F                  	db $6F		;[Volume] 15
    2840.  00:5AF7  7D                  	db $7D		;[Instrument] 14
    2841.  00:5AF8  95 00               	db $95, $00		; track detune
    2842.  00:5AFA                      				;[Skip delay] 1
    2843.  00:5AFA  2E                  	db $2E		;[Note] 47
    2844.  00:5AFB  69                  	db $69		;[Volume] 9
    2845.  00:5AFC  7C                  	db $7C		;[Instrument] 13
    2846.  00:5AFD  95 03               	db $95, $03		; track detune
    2847.  00:5AFF                      				;[Skip delay] 1
    2848.  00:5AFF  36                  	db $36		;[Note] 55
    2849.  00:5B00  6F                  	db $6F		;[Volume] 15
    2850.  00:5B01  7D                  	db $7D		;[Instrument] 14
    2851.  00:5B02  95 00               	db $95, $00		; track detune
    2852.  00:5B04                      				;[Skip delay] 1
    2853.  00:5B04  35                  	db $35		;[Note] 54
    2854.  00:5B05  6A                  	db $6A		;[Volume] 10
    2855.  00:5B06  95 03               	db $95, $03		; track detune
    2856.  00:5B08                      				;[Skip delay] 1
    2857.  00:5B08  2E                  	db $2E		;[Note] 47
    2858.  00:5B09  6E                  	db $6E		;[Volume] 14
    2859.  00:5B0A  7C                  	db $7C		;[Instrument] 13
    2860.  00:5B0B  95 00               	db $95, $00		; track detune
    2861.  00:5B0D                      				;[Skip delay] 1
    2862.  00:5B0D  36                  	db $36		;[Note] 55
    2863.  00:5B0E  6A                  	db $6A		;[Volume] 10
    2864.  00:5B0F  7D                  	db $7D		;[Instrument] 14
    2865.  00:5B10  95 03               	db $95, $03		; track detune
    2866.  00:5B12                      				;[Skip delay] 1
    2867.  00:5B12  36                  	db $36		;[Note] 55
    2868.  00:5B13  6E                  	db $6E		;[Volume] 14
    2869.  00:5B14  7C                  	db $7C		;[Instrument] 13
    2870.  00:5B15  95 00               	db $95, $00		; track detune
    2871.  00:5B17                      				;[Skip delay] 1
    2872.  00:5B17  2E                  	db $2E		;[Note] 47
    2873.  00:5B18  69                  	db $69		;[Volume] 9
    2874.  00:5B19  95 03               	db $95, $03		; track detune
    2875.  00:5B1B                      				;[Skip delay] 1
    2876.  00:5B1B  35                  	db $35		;[Note] 54
    2877.  00:5B1C  6D                  	db $6D		;[Volume] 13
    2878.  00:5B1D  7B                  	db $7B		;[Instrument] 12
    2879.  00:5B1E  95 00               	db $95, $00		; track detune
    2880.  00:5B20                      				;[Skip delay] 1
    2881.  00:5B20  36                  	db $36		;[Note] 55
    2882.  00:5B21  69                  	db $69		;[Volume] 9
    2883.  00:5B22  7C                  	db $7C		;[Instrument] 13
    2884.  00:5B23  95 03               	db $95, $03		; track detune
    2885.  00:5B25                      				;[Skip delay] 1
    2886.  00:5B25  33                  	db $33		;[Note] 52
    2887.  00:5B26  6D                  	db $6D		;[Volume] 13
    2888.  00:5B27  7B                  	db $7B		;[Instrument] 12
    2889.  00:5B28  95 00               	db $95, $00		; track detune
    2890.  00:5B2A                      				;[Skip delay] 1
    2891.  00:5B2A  35                  	db $35		;[Note] 54
    2892.  00:5B2B  68                  	db $68		;[Volume] 8
    2893.  00:5B2C  95 03               	db $95, $03		; track detune
    2894.  00:5B2E                      				;[Skip delay] 1
    2895.  00:5B2E  2E                  	db $2E		;[Note] 47
    2896.  00:5B2F  6E                  	db $6E		;[Volume] 14
    2897.  00:5B30  7C                  	db $7C		;[Instrument] 13
    2898.  00:5B31  95 00               	db $95, $00		; track detune
    2899.  00:5B33                      				;[Skip delay] 1
    2900.  00:5B33  33                  	db $33		;[Note] 52
    2901.  00:5B34  68                  	db $68		;[Volume] 8
    2902.  00:5B35  7B                  	db $7B		;[Instrument] 12
    2903.  00:5B36  95 03               	db $95, $03		; track detune
    2904.  00:5B38                      				;[Skip delay] 1
    2905.  00:5B38  35                  	db $35		;[Note] 54
    2906.  00:5B39  6E                  	db $6E		;[Volume] 14
    2907.  00:5B3A  7C                  	db $7C		;[Instrument] 13
    2908.  00:5B3B  95 00               	db $95, $00		; track detune
    2909.  00:5B3D                      				;[Skip delay] 1
    2910.  00:5B3D  2E                  	db $2E		;[Note] 47
    2911.  00:5B3E  69                  	db $69		;[Volume] 9
    2912.  00:5B3F  95 03               	db $95, $03		; track detune
    2913.  00:5B41                      				;[Skip delay] 1
    2914.  00:5B41  2E                  	db $2E		;[Note] 47
    2915.  00:5B42  6F                  	db $6F		;[Volume] 15
    2916.  00:5B43  7D                  	db $7D		;[Instrument] 14
    2917.  00:5B44  95 00               	db $95, $00		; track detune
    2918.  00:5B46                      				;[Skip delay] 1
    2919.  00:5B46  35                  	db $35		;[Note] 54
    2920.  00:5B47  69                  	db $69		;[Volume] 9
    2921.  00:5B48  7C                  	db $7C		;[Instrument] 13
    2922.  00:5B49  95 03               	db $95, $03		; track detune
    2923.  00:5B4B                      				;[Skip delay] 1
    2924.  00:5B4B  33                  	db $33		;[Note] 52
    2925.  00:5B4C  6F                  	db $6F		;[Volume] 15
    2926.  00:5B4D  7D                  	db $7D		;[Instrument] 14
    2927.  00:5B4E  95 00               	db $95, $00		; track detune
    2928.  00:5B50                      				;[Skip delay] 1
    2929.  00:5B50  2E                  	db $2E		;[Note] 47
    2930.  00:5B51  6A                  	db $6A		;[Volume] 10
    2931.  00:5B52  95 03               	db $95, $03		; track detune
    2932.  00:5B54                      				;[Skip delay] 1
    2933.  00:5B54  35                  	db $35		;[Note] 54
    2934.  00:5B55  6E                  	db $6E		;[Volume] 14
    2935.  00:5B56  7C                  	db $7C		;[Instrument] 13
    2936.  00:5B57  95 00               	db $95, $00		; track detune
    2937.  00:5B59                      				;[Skip delay] 1
    2938.  00:5B59  33                  	db $33		;[Note] 52
    2939.  00:5B5A  6A                  	db $6A		;[Volume] 10
    2940.  00:5B5B  7D                  	db $7D		;[Instrument] 14
    2941.  00:5B5C  95 03               	db $95, $03		; track detune
    2942.  00:5B5E                      				;[Skip delay] 1
    2943.  00:5B5E  36                  	db $36		;[Note] 55
    2944.  00:5B5F  6E                  	db $6E		;[Volume] 14
    2945.  00:5B60  7C                  	db $7C		;[Instrument] 13
    2946.  00:5B61  95 00               	db $95, $00		; track detune
    2947.  00:5B63                      				;[Skip delay] 1
    2948.  00:5B63  35                  	db $35		;[Note] 54
    2949.  00:5B64  69                  	db $69		;[Volume] 9
    2950.  00:5B65  95 03               	db $95, $03		; track detune
    2951.  00:5B67                      				;[Skip delay] 1
    2952.  00:5B67  2E                  	db $2E		;[Note] 47
    2953.  00:5B68  6D                  	db $6D		;[Volume] 13
    2954.  00:5B69  7B                  	db $7B		;[Instrument] 12
    2955.  00:5B6A  95 00               	db $95, $00		; track detune
    2956.  00:5B6C                      				;[Skip delay] 1
    2957.  00:5B6C  36                  	db $36		;[Note] 55
    2958.  00:5B6D  69                  	db $69		;[Volume] 9
    2959.  00:5B6E  7C                  	db $7C		;[Instrument] 13
    2960.  00:5B6F  95 03               	db $95, $03		; track detune
    2961.  00:5B71                      				;[Skip delay] 1
    2962.  00:5B71  33                  	db $33		;[Note] 52
    2963.  00:5B72  6D                  	db $6D		;[Volume] 13
    2964.  00:5B73  95 00               	db $95, $00		; track detune
    2965.  00:5B75                      				;[Skip delay] 1
    2966.  00:5B75  2E                  	db $2E		;[Note] 47
    2967.  00:5B76  68                  	db $68		;[Volume] 8
    2968.  00:5B77  95 03               	db $95, $03		; track detune
    2969.  00:5B79                      				;[Skip delay] 1
    2970.  00:5B79  35                  	db $35		;[Note] 54
    2971.  00:5B7A  6E                  	db $6E		;[Volume] 14
    2972.  00:5B7B  95 00               	db $95, $00		; track detune
    2973.  00:5B7D                      				;[Skip delay] 1
    2974.  00:5B7D  33                  	db $33		;[Note] 52
    2975.  00:5B7E  68                  	db $68		;[Volume] 8
    2976.  00:5B7F  7B                  	db $7B		;[Instrument] 12
    2977.  00:5B80  95 03               	db $95, $03		; track detune
    2978.  00:5B82                      				;[Skip delay] 1
    2979.  00:5B82  2E                  	db $2E		;[Note] 47
    2980.  00:5B83  6E                  	db $6E		;[Volume] 14
    2981.  00:5B84  7C                  	db $7C		;[Instrument] 13
    2982.  00:5B85  95 00               	db $95, $00		; track detune
    2983.  00:5B87                      				;[Skip delay] 1
    2984.  00:5B87  35                  	db $35		;[Note] 54
    2985.  00:5B88  69                  	db $69		;[Volume] 9
    2986.  00:5B89  95 03               	db $95, $03		; track detune
    2987.  00:5B8B                      				;[Skip delay] 1
    2988.  00:5B8B  35                  	db $35		;[Note] 54
    2989.  00:5B8C  6F                  	db $6F		;[Volume] 15
    2990.  00:5B8D  7D                  	db $7D		;[Instrument] 14
    2991.  00:5B8E  95 00               	db $95, $00		; track detune
    2992.  00:5B90                      				;[Skip delay] 1
    2993.  00:5B90  2E                  	db $2E		;[Note] 47
    2994.  00:5B91  69                  	db $69		;[Volume] 9
    2995.  00:5B92  7C                  	db $7C		;[Instrument] 13
    2996.  00:5B93  95 03               	db $95, $03		; track detune
    2997.  00:5B95                      				;[Skip delay] 1
    2998.  00:5B95  36                  	db $36		;[Note] 55
    2999.  00:5B96  6F                  	db $6F		;[Volume] 15
    3000.  00:5B97  7D                  	db $7D		;[Instrument] 14
    3001.  00:5B98  95 00               	db $95, $00		; track detune
    3002.  00:5B9A                      				;[Skip delay] 1
    3003.  00:5B9A  35                  	db $35		;[Note] 54
    3004.  00:5B9B  6A                  	db $6A		;[Volume] 10
    3005.  00:5B9C  95 03               	db $95, $03		; track detune
    3006.  00:5B9E                      				;[Skip delay] 1
    3007.  00:5B9E  2E                  	db $2E		;[Note] 47
    3008.  00:5B9F  6E                  	db $6E		;[Volume] 14
    3009.  00:5BA0  7C                  	db $7C		;[Instrument] 13
    3010.  00:5BA1  95 00               	db $95, $00		; track detune
    3011.  00:5BA3                      				;[Skip delay] 1
    3012.  00:5BA3  36                  	db $36		;[Note] 55
    3013.  00:5BA4  6A                  	db $6A		;[Volume] 10
    3014.  00:5BA5  7D                  	db $7D		;[Instrument] 14
    3015.  00:5BA6  95 03               	db $95, $03		; track detune
    3016.  00:5BA8                      				;[Skip delay] 1
    3017.  00:5BA8  36                  	db $36		;[Note] 55
    3018.  00:5BA9  6E                  	db $6E		;[Volume] 14
    3019.  00:5BAA  7C                  	db $7C		;[Instrument] 13
    3020.  00:5BAB  95 00               	db $95, $00		; track detune
    3021.  00:5BAD                      				;[Skip delay] 1
    3022.  00:5BAD  2E                  	db $2E		;[Note] 47
    3023.  00:5BAE  69                  	db $69		;[Volume] 9
    3024.  00:5BAF  95 03               	db $95, $03		; track detune
    3025.  00:5BB1                      				;[Skip delay] 1
    3026.  00:5BB1  35                  	db $35		;[Note] 54
    3027.  00:5BB2  6D                  	db $6D		;[Volume] 13
    3028.  00:5BB3  7B                  	db $7B		;[Instrument] 12
    3029.  00:5BB4  95 00               	db $95, $00		; track detune
    3030.  00:5BB6                      				;[Skip delay] 1
    3031.  00:5BB6  36                  	db $36		;[Note] 55
    3032.  00:5BB7  69                  	db $69		;[Volume] 9
    3033.  00:5BB8  7C                  	db $7C		;[Instrument] 13
    3034.  00:5BB9  95 03               	db $95, $03		; track detune
    3035.  00:5BBB                      				;[Skip delay] 1
    3036.  00:5BBB  33                  	db $33		;[Note] 52
    3037.  00:5BBC  6D                  	db $6D		;[Volume] 13
    3038.  00:5BBD  7B                  	db $7B		;[Instrument] 12
    3039.  00:5BBE  95 00               	db $95, $00		; track detune
    3040.  00:5BC0                      				;[Skip delay] 1
    3041.  00:5BC0  35                  	db $35		;[Note] 54
    3042.  00:5BC1  68                  	db $68		;[Volume] 8
    3043.  00:5BC2  95 03               	db $95, $03		; track detune
    3044.  00:5BC4                      				;[Skip delay] 1
    3045.  00:5BC4  2E                  	db $2E		;[Note] 47
    3046.  00:5BC5  6E                  	db $6E		;[Volume] 14
    3047.  00:5BC6  7C                  	db $7C		;[Instrument] 13
    3048.  00:5BC7  95 00               	db $95, $00		; track detune
    3049.  00:5BC9                      				;[Skip delay] 1
    3050.  00:5BC9  33                  	db $33		;[Note] 52
    3051.  00:5BCA  68                  	db $68		;[Volume] 8
    3052.  00:5BCB  7B                  	db $7B		;[Instrument] 12
    3053.  00:5BCC  95 03               	db $95, $03		; track detune
    3054.  00:5BCE                      				;[Skip delay] 1
    3055.  00:5BCE  35                  	db $35		;[Note] 54
    3056.  00:5BCF  6E                  	db $6E		;[Volume] 14
    3057.  00:5BD0  7C                  	db $7C		;[Instrument] 13
    3058.  00:5BD1  95 00               	db $95, $00		; track detune
    3059.  00:5BD3                      				;[Skip delay] 1
    3060.  00:5BD3  2E                  	db $2E		;[Note] 47
    3061.  00:5BD4  69                  	db $69		;[Volume] 9
    3062.  00:5BD5  95 03               	db $95, $03		; track detune
    3063.  00:5BD7                      				;[Skip delay] 1
    3064.  00:5BD7  2E                  	db $2E		;[Note] 47
    3065.  00:5BD8  6F                  	db $6F		;[Volume] 15
    3066.  00:5BD9  7D                  	db $7D		;[Instrument] 14
    3067.  00:5BDA  95 00               	db $95, $00		; track detune
    3068.  00:5BDC                      				;[Skip delay] 1
    3069.  00:5BDC  35                  	db $35		;[Note] 54
    3070.  00:5BDD  69                  	db $69		;[Volume] 9
    3071.  00:5BDE  7C                  	db $7C		;[Instrument] 13
    3072.  00:5BDF  95 03               	db $95, $03		; track detune
    3073.  00:5BE1                      				;[Skip delay] 1
    3074.  00:5BE1  33                  	db $33		;[Note] 52
    3075.  00:5BE2  6F                  	db $6F		;[Volume] 15
    3076.  00:5BE3  7D                  	db $7D		;[Instrument] 14
    3077.  00:5BE4  95 00               	db $95, $00		; track detune
    3078.  00:5BE6                      				;[Skip delay] 1
    3079.  00:5BE6  2E                  	db $2E		;[Note] 47
    3080.  00:5BE7  6A                  	db $6A		;[Volume] 10
    3081.  00:5BE8  95 03               	db $95, $03		; track detune
    3082.  00:5BEA                      				;[Skip delay] 1
    3083.  00:5BEA  35                  	db $35		;[Note] 54
    3084.  00:5BEB  6E                  	db $6E		;[Volume] 14
    3085.  00:5BEC  7C                  	db $7C		;[Instrument] 13
    3086.  00:5BED  95 00               	db $95, $00		; track detune
    3087.  00:5BEF                      				;[Skip delay] 1
    3088.  00:5BEF  33                  	db $33		;[Note] 52
    3089.  00:5BF0  6A                  	db $6A		;[Volume] 10
    3090.  00:5BF1  7D                  	db $7D		;[Instrument] 14
    3091.  00:5BF2  95 03               	db $95, $03		; track detune
    3092.  00:5BF4                      				;[Skip delay] 1
    3093.  00:5BF4  36                  	db $36		;[Note] 55
    3094.  00:5BF5  6E                  	db $6E		;[Volume] 14
    3095.  00:5BF6  7C                  	db $7C		;[Instrument] 13
    3096.  00:5BF7  95 00               	db $95, $00		; track detune
    3097.  00:5BF9                      				;[Skip delay] 1
    3098.  00:5BF9  35                  	db $35		;[Note] 54
    3099.  00:5BFA  69                  	db $69		;[Volume] 9
    3100.  00:5BFB  95 03               	db $95, $03		; track detune
    3101.  00:5BFD                      				;[Skip delay] 1
    3102.  00:5BFD  BF                  	db $BF		;[End-Of-Track]
    3103.  00:5BFE                      .track_54:
    3104.  00:5BFE  2A                  	db $2A		;[Note] 43
    3105.  00:5BFF  6D                  	db $6D		;[Volume] 13
    3106.  00:5C00  75                  	db $75		;[Instrument] 6
    3107.  00:5C01  C1                  	db $C1		;[Wait] 2
    3108.  00:5C02  6E                  	db $6E		;[Volume] 14
    3109.  00:5C03  A7 75               	db $A7, $75		;[CMD vibrato]
    3110.  00:5C05  C0                  	db $C0		;[Wait] 1
    3111.  00:5C06  B1 11               	db $B1, $11		;[CMD vibrato] rep
    3112.  00:5C08                      				;[Skip delay] 1
    3113.  00:5C08  6F                  	db $6F		;[Volume] 15
    3114.  00:5C09  CF                  	db $CF		;[Wait] 16
    3115.  00:5C0A  2C                  	db $2C		;[Note] 45
    3116.  00:5C0B  C3                  	db $C3		;[Wait] 4
    3117.  00:5C0C  A7 75               	db $A7, $75		;[CMD vibrato]
    3118.  00:5C0E  C0                  	db $C0		;[Wait] 1
    3119.  00:5C0F  B1 03               	db $B1, $03		;[CMD vibrato] rep
    3120.  00:5C11  C2                  	db $C2		;[Wait] 3
    3121.  00:5C12  2A                  	db $2A		;[Note] 43
    3122.  00:5C13  C1                  	db $C1		;[Wait] 2
    3123.  00:5C14  31                  	db $31		;[Note] 50
    3124.  00:5C15  69                  	db $69		;[Volume] 9
    3125.  00:5C16                      				;[Skip delay] 2
    3126.  00:5C16  2C                  	db $2C		;[Note] 45
    3127.  00:5C17  6D                  	db $6D		;[Volume] 13
    3128.  00:5C18                      				;[Skip delay] 2
    3129.  00:5C18  6E                  	db $6E		;[Volume] 14
    3130.  00:5C19  A7 75               	db $A7, $75		;[CMD vibrato]
    3131.  00:5C1B  C0                  	db $C0		;[Wait] 1
    3132.  00:5C1C  B1 11               	db $B1, $11		;[CMD vibrato] rep
    3133.  00:5C1E                      				;[Skip delay] 1
    3134.  00:5C1E  6F                  	db $6F		;[Volume] 15
    3135.  00:5C1F  CF                  	db $CF		;[Wait] 16
    3136.  00:5C20  2A                  	db $2A		;[Note] 43
    3137.  00:5C21  C1                  	db $C1		;[Wait] 2
    3138.  00:5C22  A7 75               	db $A7, $75		;[CMD vibrato]
    3139.  00:5C24  C0                  	db $C0		;[Wait] 1
    3140.  00:5C25  B1 03               	db $B1, $03		;[CMD vibrato] rep
    3141.  00:5C27  C2                  	db $C2		;[Wait] 3
    3142.  00:5C28  31                  	db $31		;[Note] 50
    3143.  00:5C29  69                  	db $69		;[Volume] 9
    3144.  00:5C2A  C1                  	db $C1		;[Wait] 2
    3145.  00:5C2B  2C                  	db $2C		;[Note] 45
    3146.  00:5C2C  6F                  	db $6F		;[Volume] 15
    3147.  00:5C2D                      				;[Skip delay] 2
    3148.  00:5C2D  31                  	db $31		;[Note] 50
    3149.  00:5C2E  69                  	db $69		;[Volume] 9
    3150.  00:5C2F                      				;[Skip delay] 2
    3151.  00:5C2F  BF                  	db $BF		;[End-Of-Track]
    3152.  00:5C30                      .track_55:
    3153.  00:5C30  C1                  	db $C1		;[Wait] 2
    3154.  00:5C31  60                  	db $60		;[Note] 97
    3155.  00:5C32  C0                  	db $C0		;[Wait] 1
    3156.  00:5C33  2A                  	db $2A		;[Note] 43
    3157.  00:5C34  6D                  	db $6D		;[Volume] 13
    3158.  00:5C35  75                  	db $75		;[Instrument] 6
    3159.  00:5C36  95 01               	db $95, $01		; track detune
    3160.  00:5C38  C1                  	db $C1		;[Wait] 2
    3161.  00:5C39  A7 76               	db $A7, $76		;[CMD vibrato]
    3162.  00:5C3B  C0                  	db $C0		;[Wait] 1
    3163.  00:5C3C  B1 11               	db $B1, $11		;[CMD vibrato] rep
    3164.  00:5C3E  D0                  	db $D0		;[Wait] 17
    3165.  00:5C3F  2C                  	db $2C		;[Note] 45
    3166.  00:5C40  C3                  	db $C3		;[Wait] 4
    3167.  00:5C41  A7 76               	db $A7, $76		;[CMD vibrato]
    3168.  00:5C43  C0                  	db $C0		;[Wait] 1
    3169.  00:5C44  B1 03               	db $B1, $03		;[CMD vibrato] rep
    3170.  00:5C46  C2                  	db $C2		;[Wait] 3
    3171.  00:5C47  2A                  	db $2A		;[Note] 43
    3172.  00:5C48  C0                  	db $C0		;[Wait] 1
    3173.  00:5C49  35                  	db $35		;[Note] 54
    3174.  00:5C4A  6B                  	db $6B		;[Volume] 11
    3175.  00:5C4B  7A                  	db $7A		;[Instrument] 11
    3176.  00:5C4C  95 00               	db $95, $00		; track detune
    3177.  00:5C4E  C3                  	db $C3		;[Wait] 4
    3178.  00:5C4F  6A                  	db $6A		;[Volume] 10
    3179.  00:5C50  A7 76               	db $A7, $76		;[CMD vibrato]
    3180.  00:5C52  C0                  	db $C0		;[Wait] 1
    3181.  00:5C53  B1 07               	db $B1, $07		;[CMD vibrato] rep
    3182.  00:5C55  C2                  	db $C2		;[Wait] 3
    3183.  00:5C56  6B                  	db $6B		;[Volume] 11
    3184.  00:5C57  C3                  	db $C3		;[Wait] 4
    3185.  00:5C58  33                  	db $33		;[Note] 52
    3186.  00:5C59  C3                  	db $C3		;[Wait..] 4
    3187.  00:5C5A  6A                  	db $6A		;[Volume] 10
    3188.  00:5C5B                      				;[Skip delay] 4
    3189.  00:5C5B  36                  	db $36		;[Note] 55
    3190.  00:5C5C  6B                  	db $6B		;[Volume] 11
    3191.  00:5C5D  C1                  	db $C1		;[Wait] 2
    3192.  00:5C5E  A7 76               	db $A7, $76		;[CMD vibrato]
    3193.  00:5C60  C0                  	db $C0		;[Wait] 1
    3194.  00:5C61  B1 09               	db $B1, $09		;[CMD vibrato] rep
    3195.  00:5C63  C2                  	db $C2		;[Wait] 3
    3196.  00:5C64  6C                  	db $6C		;[Volume] 12
    3197.  00:5C65  C3                  	db $C3		;[Wait] 4
    3198.  00:5C66  6D                  	db $6D		;[Volume] 13
    3199.  00:5C67  C1                  	db $C1		;[Wait] 2
    3200.  00:5C68  BF                  	db $BF		;[End-Of-Track]
    3201.  00:5C69                      .track_56:
    3202.  00:5C69  22                  	db $22		;[Note] 35
    3203.  00:5C6A  6F                  	db $6F		;[Volume] 15
    3204.  00:5C6B  7F                  	db $7F		;[Instrument] 16
    3205.  00:5C6C  A3 01               	db $A3, $01		; arpegio
    3206.  00:5C6E  C1                  	db $C1		;[Wait] 2
    3207.  00:5C6F  20                  	db $20		;[Note] 33
    3208.  00:5C70  99                  	db $99			;Note link
    3209.  00:5C71                      				;[Skip delay] 2
    3210.  00:5C71  22                  	db $22		;[Note] 35
    3211.  00:5C72  99                  	db $99			;Note link
    3212.  00:5C73  C0                  	db $C0		;[Wait] 1
    3213.  00:5C74  6E                  	db $6E		;[Volume] 14
    3214.  00:5C75                      				;[Skip delay] 1
    3215.  00:5C75  6D                  	db $6D		;[Volume] 13
    3216.  00:5C76                      				;[Skip delay] 1
    3217.  00:5C76  6C                  	db $6C		;[Volume] 12
    3218.  00:5C77                      				;[Skip delay] 1
    3219.  00:5C77  26                  	db $26		;[Note] 39
    3220.  00:5C78  6F                  	db $6F		;[Volume] 15
    3221.  00:5C79  78                  	db $78		;[Instrument] 9
    3222.  00:5C7A  C1                  	db $C1		;[Wait] 2
    3223.  00:5C7B  26                  	db $26		;[Note] 39
    3224.  00:5C7C  69                  	db $69		;[Volume] 9
    3225.  00:5C7D                      				;[Skip delay] 2
    3226.  00:5C7D  2E                  	db $2E		;[Note] 47
    3227.  00:5C7E  6F                  	db $6F		;[Volume] 15
    3228.  00:5C7F  7F                  	db $7F		;[Instrument] 16
    3229.  00:5C80  A7 78               	db $A7, $78		;[CMD vibrato]
    3230.  00:5C82  C0                  	db $C0		;[Wait] 1
    3231.  00:5C83  B1 05               	db $B1, $05		;[CMD vibrato] rep
    3232.  00:5C85                      				;[Skip delay] 1
    3233.  00:5C85  6E                  	db $6E		;[Volume] 14
    3234.  00:5C86  C1                  	db $C1		;[Wait] 2
    3235.  00:5C87  6D                  	db $6D		;[Volume] 13
    3236.  00:5C88                      				;[Skip delay] 2
    3237.  00:5C88  26                  	db $26		;[Note] 39
    3238.  00:5C89  6F                  	db $6F		;[Volume] 15
    3239.  00:5C8A  78                  	db $78		;[Instrument] 9
    3240.  00:5C8B                      				;[Skip delay] 2
    3241.  00:5C8B  26                  	db $26		;[Note] 39
    3242.  00:5C8C  69                  	db $69		;[Volume] 9
    3243.  00:5C8D                      				;[Skip delay] 2
    3244.  00:5C8D  26                  	db $26		;[Note] 39
    3245.  00:5C8E  6F                  	db $6F		;[Volume] 15
    3246.  00:5C8F                      				;[Skip delay] 2
    3247.  00:5C8F  26                  	db $26		;[Note] 39
    3248.  00:5C90  69                  	db $69		;[Volume] 9
    3249.  00:5C91  C7                  	db $C7		;[Wait] 8
    3250.  00:5C92  22                  	db $22		;[Note] 35
    3251.  00:5C93  6F                  	db $6F		;[Volume] 15
    3252.  00:5C94  7F                  	db $7F		;[Instrument] 16
    3253.  00:5C95  C1                  	db $C1		;[Wait] 2
    3254.  00:5C96  20                  	db $20		;[Note] 33
    3255.  00:5C97  99                  	db $99			;Note link
    3256.  00:5C98                      				;[Skip delay] 2
    3257.  00:5C98  22                  	db $22		;[Note] 35
    3258.  00:5C99  99                  	db $99			;Note link
    3259.  00:5C9A  C0                  	db $C0		;[Wait] 1
    3260.  00:5C9B  6E                  	db $6E		;[Volume] 14
    3261.  00:5C9C                      				;[Skip delay] 1
    3262.  00:5C9C  6D                  	db $6D		;[Volume] 13
    3263.  00:5C9D                      				;[Skip delay] 1
    3264.  00:5C9D  6C                  	db $6C		;[Volume] 12
    3265.  00:5C9E                      				;[Skip delay] 1
    3266.  00:5C9E  26                  	db $26		;[Note] 39
    3267.  00:5C9F  6F                  	db $6F		;[Volume] 15
    3268.  00:5CA0  78                  	db $78		;[Instrument] 9
    3269.  00:5CA1  C1                  	db $C1		;[Wait] 2
    3270.  00:5CA2  26                  	db $26		;[Note] 39
    3271.  00:5CA3  69                  	db $69		;[Volume] 9
    3272.  00:5CA4                      				;[Skip delay] 2
    3273.  00:5CA4  2E                  	db $2E		;[Note] 47
    3274.  00:5CA5  6F                  	db $6F		;[Volume] 15
    3275.  00:5CA6  7F                  	db $7F		;[Instrument] 16
    3276.  00:5CA7  A7 78               	db $A7, $78		;[CMD vibrato]
    3277.  00:5CA9  C0                  	db $C0		;[Wait] 1
    3278.  00:5CAA  B1 0B               	db $B1, $0B		;[CMD vibrato] rep
    3279.  00:5CAC                      				;[Skip delay] 1
    3280.  00:5CAC  6E                  	db $6E		;[Volume] 14
    3281.  00:5CAD  C1                  	db $C1		;[Wait] 2
    3282.  00:5CAE  6D                  	db $6D		;[Volume] 13
    3283.  00:5CAF                      				;[Skip delay] 2
    3284.  00:5CAF  6C                  	db $6C		;[Volume] 12
    3285.  00:5CB0                      				;[Skip delay] 2
    3286.  00:5CB0  6B                  	db $6B		;[Volume] 11
    3287.  00:5CB1                      				;[Skip delay] 2
    3288.  00:5CB1  6A                  	db $6A		;[Volume] 10
    3289.  00:5CB2                      				;[Skip delay] 2
    3290.  00:5CB2  26                  	db $26		;[Note] 39
    3291.  00:5CB3  6F                  	db $6F		;[Volume] 15
    3292.  00:5CB4  78                  	db $78		;[Instrument] 9
    3293.  00:5CB5                      				;[Skip delay] 2
    3294.  00:5CB5  26                  	db $26		;[Note] 39
    3295.  00:5CB6  69                  	db $69		;[Volume] 9
    3296.  00:5CB7                      				;[Skip delay] 2
    3297.  00:5CB7  26                  	db $26		;[Note] 39
    3298.  00:5CB8  6F                  	db $6F		;[Volume] 15
    3299.  00:5CB9                      				;[Skip delay] 2
    3300.  00:5CB9  26                  	db $26		;[Note] 39
    3301.  00:5CBA  69                  	db $69		;[Volume] 9
    3302.  00:5CBB                      				;[Skip delay] 2
    3303.  00:5CBB  BF                  	db $BF		;[End-Of-Track]
    3304.  00:5CBC                      .track_57:
    3305.  00:5CBC  1B                  	db $1B		;[Note] 28
    3306.  00:5CBD  91 05               	db $91, $05		;[FM drum] 6
    3307.  00:5CBF  C1                  	db $C1		;[Wait] 2
    3308.  00:5CC0  0F                  	db $0F		;[Note] 16
    3309.  00:5CC1  C0                  	db $C0		;[Wait] 1
    3310.  00:5CC2  1B                  	db $1B		;[Note] 28
    3311.  00:5CC3  67                  	db $67		;[Volume] 7
    3312.  00:5CC4  95 00               	db $95, $00		; track detune
    3313.  00:5CC6                      				;[Skip delay] 1
    3314.  00:5CC6  91 05               	db $91, $05		;[FM drum] 6
    3315.  00:5CC8                      				;[Skip delay] 1
    3316.  00:5CC8  0F                  	db $0F		;[Note] 16
    3317.  00:5CC9                      				;[Skip delay] 1
    3318.  00:5CC9  0F                  	db $0F		;[Note] 16
    3319.  00:5CCA  6A                  	db $6A		;[Volume] 10
    3320.  00:5CCB  95 03               	db $95, $03		; track detune
    3321.  00:5CCD  C1                  	db $C1		;[Wait] 2
    3322.  00:5CCE  0D                  	db $0D		;[Note] 14
    3323.  00:5CCF  91 02               	db $91, $02		;[FM drum] 2
    3324.  00:5CD1  C0                  	db $C0		;[Wait] 1
    3325.  00:5CD2  60                  	db $60		;[Note] 97
    3326.  00:5CD3                      				;[Skip delay] 1
    3327.  00:5CD3  0F                  	db $0F		;[Note] 16
    3328.  00:5CD4  91 01               	db $91, $01		;[FM drum] 1
    3329.  00:5CD6                      				;[Skip delay] 1
    3330.  00:5CD6  60                  	db $60		;[Note] 97
    3331.  00:5CD7                      				;[Skip delay] 1
    3332.  00:5CD7  16                  	db $16		;[Note] 23
    3333.  00:5CD8                      				;[Skip delay] 1
    3334.  00:5CD8  60                  	db $60		;[Note] 97
    3335.  00:5CD9                      				;[Skip delay] 1
    3336.  00:5CD9  19                  	db $19		;[Note] 26
    3337.  00:5CDA  91 04               	db $91, $04		;[FM drum] 5
    3338.  00:5CDC                      				;[Skip delay] 1
    3339.  00:5CDC  1B                  	db $1B		;[Note] 28
    3340.  00:5CDD  C0                  	db $C0		;[Wait..] 1
    3341.  00:5CDE  91 01               	db $91, $01		;[FM drum] 1
    3342.  00:5CE0                      				;[Skip delay] 1
    3343.  00:5CE0  60                  	db $60		;[Note] 97
    3344.  00:5CE1                      				;[Skip delay] 1
    3345.  00:5CE1  16                  	db $16		;[Note] 23
    3346.  00:5CE2  91 02               	db $91, $02		;[FM drum] 2
    3347.  00:5CE4  C1                  	db $C1		;[Wait] 2
    3348.  00:5CE5  0F                  	db $0F		;[Note] 16
    3349.  00:5CE6  C0                  	db $C0		;[Wait] 1
    3350.  00:5CE7  60                  	db $60		;[Note] 97
    3351.  00:5CE8                      				;[Skip delay] 1
    3352.  00:5CE8  1B                  	db $1B		;[Note] 28
    3353.  00:5CE9  91 02               	db $91, $02		;[FM drum] 2
    3354.  00:5CEB  C1                  	db $C1		;[Wait] 2
    3355.  00:5CEC  12                  	db $12		;[Note] 19
    3356.  00:5CED  91 05               	db $91, $05		;[FM drum] 6
    3357.  00:5CEF                      				;[Skip delay] 2
    3358.  00:5CEF  0F                  	db $0F		;[Note] 16
    3359.  00:5CF0  C0                  	db $C0		;[Wait] 1
    3360.  00:5CF1  60                  	db $60		;[Note] 97
    3361.  00:5CF2                      				;[Skip delay] 1
    3362.  00:5CF2  12                  	db $12		;[Note] 19
    3363.  00:5CF3  91 03               	db $91, $03		;[FM drum] 4
    3364.  00:5CF5                      				;[Skip delay] 1
    3365.  00:5CF5  60                  	db $60		;[Note] 97
    3366.  00:5CF6                      				;[Skip delay] 1
    3367.  00:5CF6  0F                  	db $0F		;[Note] 16
    3368.  00:5CF7  91 05               	db $91, $05		;[FM drum] 6
    3369.  00:5CF9                      				;[Skip delay] 1
    3370.  00:5CF9  60                  	db $60		;[Note] 97
    3371.  00:5CFA                      				;[Skip delay] 1
    3372.  00:5CFA  22                  	db $22		;[Note] 35
    3373.  00:5CFB  91 05               	db $91, $05		;[FM drum] 6
    3374.  00:5CFD  C1                  	db $C1		;[Wait] 2
    3375.  00:5CFE  16                  	db $16		;[Note] 23
    3376.  00:5CFF  91 01               	db $91, $01		;[FM drum] 1
    3377.  00:5D01  C0                  	db $C0		;[Wait] 1
    3378.  00:5D02  22                  	db $22		;[Note] 35
    3379.  00:5D03  67                  	db $67		;[Volume] 7
    3380.  00:5D04  95 00               	db $95, $00		; track detune
    3381.  00:5D06                      				;[Skip delay] 1
    3382.  00:5D06  91 04               	db $91, $04		;[FM drum] 5
    3383.  00:5D08                      				;[Skip delay] 1
    3384.  00:5D08  16                  	db $16		;[Note] 23
    3385.  00:5D09                      				;[Skip delay] 1
    3386.  00:5D09  16                  	db $16		;[Note] 23
    3387.  00:5D0A  6A                  	db $6A		;[Volume] 10
    3388.  00:5D0B  95 03               	db $95, $03		; track detune
    3389.  00:5D0D  C1                  	db $C1		;[Wait] 2
    3390.  00:5D0E  14                  	db $14		;[Note] 21
    3391.  00:5D0F  91 02               	db $91, $02		;[FM drum] 2
    3392.  00:5D11  C0                  	db $C0		;[Wait] 1
    3393.  00:5D12  60                  	db $60		;[Note] 97
    3394.  00:5D13                      				;[Skip delay] 1
    3395.  00:5D13  1A                  	db $1A		;[Note] 27
    3396.  00:5D14                      				;[Skip delay] 1
    3397.  00:5D14  60                  	db $60		;[Note] 97
    3398.  00:5D15                      				;[Skip delay] 1
    3399.  00:5D15  16                  	db $16		;[Note] 23
    3400.  00:5D16  91 01               	db $91, $01		;[FM drum] 1
    3401.  00:5D18                      				;[Skip delay] 1
    3402.  00:5D18  60                  	db $60		;[Note] 97
    3403.  00:5D19                      				;[Skip delay] 1
    3404.  00:5D19  1E                  	db $1E		;[Note] 31
    3405.  00:5D1A  91 04               	db $91, $04		;[FM drum] 5
    3406.  00:5D1C                      				;[Skip delay] 1
    3407.  00:5D1C  20                  	db $20		;[Note] 33
    3408.  00:5D1D  C0                  	db $C0		;[Wait..] 1
    3409.  00:5D1E  91 01               	db $91, $01		;[FM drum] 1
    3410.  00:5D20                      				;[Skip delay] 1
    3411.  00:5D20  60                  	db $60		;[Note] 97
    3412.  00:5D21                      				;[Skip delay] 1
    3413.  00:5D21  1D                  	db $1D		;[Note] 30
    3414.  00:5D22  91 03               	db $91, $03		;[FM drum] 4
    3415.  00:5D24  C1                  	db $C1		;[Wait] 2
    3416.  00:5D25  16                  	db $16		;[Note] 23
    3417.  00:5D26  91 01               	db $91, $01		;[FM drum] 1
    3418.  00:5D28  C0                  	db $C0		;[Wait] 1
    3419.  00:5D29  60                  	db $60		;[Note] 97
    3420.  00:5D2A                      				;[Skip delay] 1
    3421.  00:5D2A  22                  	db $22		;[Note] 35
    3422.  00:5D2B  91 05               	db $91, $05		;[FM drum] 6
    3423.  00:5D2D  C1                  	db $C1		;[Wait] 2
    3424.  00:5D2E  14                  	db $14		;[Note] 21
    3425.  00:5D2F  91 02               	db $91, $02		;[FM drum] 2
    3426.  00:5D31                      				;[Skip delay] 2
    3427.  00:5D31  16                  	db $16		;[Note] 23
    3428.  00:5D32  91 01               	db $91, $01		;[FM drum] 1
    3429.  00:5D34  C0                  	db $C0		;[Wait] 1
    3430.  00:5D35  60                  	db $60		;[Note] 97
    3431.  00:5D36                      				;[Skip delay] 1
    3432.  00:5D36  19                  	db $19		;[Note] 26
    3433.  00:5D37  91 02               	db $91, $02		;[FM drum] 2
    3434.  00:5D39                      				;[Skip delay] 1
    3435.  00:5D39  60                  	db $60		;[Note] 97
    3436.  00:5D3A                      				;[Skip delay] 1
    3437.  00:5D3A  16                  	db $16		;[Note] 23
    3438.  00:5D3B  91 04               	db $91, $04		;[FM drum] 5
    3439.  00:5D3D                      				;[Skip delay] 1
    3440.  00:5D3D  60                  	db $60		;[Note] 97
    3441.  00:5D3E                      				;[Skip delay] 1
    3442.  00:5D3E  BF                  	db $BF		;[End-Of-Track]
    3443.  00:5D3F                      .track_58:
    3444.  00:5D3F  1B                  	db $1B		;[Note] 28
    3445.  00:5D40  C1                  	db $C1		;[Wait] 2
    3446.  00:5D41  0F                  	db $0F		;[Note] 16
    3447.  00:5D42  C0                  	db $C0		;[Wait] 1
    3448.  00:5D43  1B                  	db $1B		;[Note] 28
    3449.  00:5D44  6B                  	db $6B		;[Volume] 11
    3450.  00:5D45  95 02               	db $95, $02		; track detune
    3451.  00:5D47  C1                  	db $C1		;[Wait] 2
    3452.  00:5D48  0F                  	db $0F		;[Note] 16
    3453.  00:5D49  C0                  	db $C0		;[Wait] 1
    3454.  00:5D4A  0F                  	db $0F		;[Note] 16
    3455.  00:5D4B  6F                  	db $6F		;[Volume] 15
    3456.  00:5D4C  95 00               	db $95, $00		; track detune
    3457.  00:5D4E  C1                  	db $C1		;[Wait] 2
    3458.  00:5D4F  0D                  	db $0D		;[Note] 14
    3459.  00:5D50  C0                  	db $C0		;[Wait] 1
    3460.  00:5D51  60                  	db $60		;[Note] 97
    3461.  00:5D52                      				;[Skip delay] 1
    3462.  00:5D52  0F                  	db $0F		;[Note] 16
    3463.  00:5D53                      				;[Skip delay] 1
    3464.  00:5D53  60                  	db $60		;[Note] 97
    3465.  00:5D54                      				;[Skip delay] 1
    3466.  00:5D54  16                  	db $16		;[Note] 23
    3467.  00:5D55                      				;[Skip delay] 1
    3468.  00:5D55  60                  	db $60		;[Note] 97
    3469.  00:5D56                      				;[Skip delay] 1
    3470.  00:5D56  19                  	db $19		;[Note] 26
    3471.  00:5D57  A6 06               	db $A6, $06		; tone-slide
    3472.  00:5D59                      				;[Skip delay] 1
    3473.  00:5D59  1B                  	db $1B		;[Note] 28
    3474.  00:5D5A  B0 02               	db $B0, $02		; tone-slide rep
    3475.  00:5D5C  C1                  	db $C1		;[Wait] 2
    3476.  00:5D5D  60                  	db $60		;[Note] 97
    3477.  00:5D5E  C0                  	db $C0		;[Wait] 1
    3478.  00:5D5F  16                  	db $16		;[Note] 23
    3479.  00:5D60  C1                  	db $C1		;[Wait] 2
    3480.  00:5D61  0F                  	db $0F		;[Note] 16
    3481.  00:5D62  C0                  	db $C0		;[Wait] 1
    3482.  00:5D63  60                  	db $60		;[Note] 97
    3483.  00:5D64                      				;[Skip delay] 1
    3484.  00:5D64  1B                  	db $1B		;[Note] 28
    3485.  00:5D65  C1                  	db $C1		;[Wait] 2
    3486.  00:5D66  12                  	db $12		;[Note] 19
    3487.  00:5D67                      				;[Skip delay] 2
    3488.  00:5D67  0F                  	db $0F		;[Note] 16
    3489.  00:5D68  C0                  	db $C0		;[Wait] 1
    3490.  00:5D69  60                  	db $60		;[Note] 97
    3491.  00:5D6A                      				;[Skip delay] 1
    3492.  00:5D6A  12                  	db $12		;[Note] 19
    3493.  00:5D6B                      				;[Skip delay] 1
    3494.  00:5D6B  60                  	db $60		;[Note] 97
    3495.  00:5D6C                      				;[Skip delay] 1
    3496.  00:5D6C  0F                  	db $0F		;[Note] 16
    3497.  00:5D6D                      				;[Skip delay] 1
    3498.  00:5D6D  60                  	db $60		;[Note] 97
    3499.  00:5D6E                      				;[Skip delay] 1
    3500.  00:5D6E  22                  	db $22		;[Note] 35
    3501.  00:5D6F  C1                  	db $C1		;[Wait] 2
    3502.  00:5D70  16                  	db $16		;[Note] 23
    3503.  00:5D71  C0                  	db $C0		;[Wait] 1
    3504.  00:5D72  22                  	db $22		;[Note] 35
    3505.  00:5D73  6B                  	db $6B		;[Volume] 11
    3506.  00:5D74  95 02               	db $95, $02		; track detune
    3507.  00:5D76  C1                  	db $C1		;[Wait] 2
    3508.  00:5D77  16                  	db $16		;[Note] 23
    3509.  00:5D78  C0                  	db $C0		;[Wait] 1
    3510.  00:5D79  16                  	db $16		;[Note] 23
    3511.  00:5D7A  6F                  	db $6F		;[Volume] 15
    3512.  00:5D7B  95 00               	db $95, $00		; track detune
    3513.  00:5D7D  C1                  	db $C1		;[Wait] 2
    3514.  00:5D7E  14                  	db $14		;[Note] 21
    3515.  00:5D7F  C0                  	db $C0		;[Wait] 1
    3516.  00:5D80  60                  	db $60		;[Note] 97
    3517.  00:5D81                      				;[Skip delay] 1
    3518.  00:5D81  1A                  	db $1A		;[Note] 27
    3519.  00:5D82                      				;[Skip delay] 1
    3520.  00:5D82  60                  	db $60		;[Note] 97
    3521.  00:5D83                      				;[Skip delay] 1
    3522.  00:5D83  16                  	db $16		;[Note] 23
    3523.  00:5D84                      				;[Skip delay] 1
    3524.  00:5D84  60                  	db $60		;[Note] 97
    3525.  00:5D85                      				;[Skip delay] 1
    3526.  00:5D85  1E                  	db $1E		;[Note] 31
    3527.  00:5D86  A6 0A               	db $A6, $0A		; tone-slide
    3528.  00:5D88                      				;[Skip delay] 1
    3529.  00:5D88  20                  	db $20		;[Note] 33
    3530.  00:5D89  B0 02               	db $B0, $02		; tone-slide rep
    3531.  00:5D8B  C1                  	db $C1		;[Wait] 2
    3532.  00:5D8C  60                  	db $60		;[Note] 97
    3533.  00:5D8D  C0                  	db $C0		;[Wait] 1
    3534.  00:5D8E  1D                  	db $1D		;[Note] 30
    3535.  00:5D8F  C1                  	db $C1		;[Wait] 2
    3536.  00:5D90  16                  	db $16		;[Note] 23
    3537.  00:5D91  C0                  	db $C0		;[Wait] 1
    3538.  00:5D92  60                  	db $60		;[Note] 97
    3539.  00:5D93                      				;[Skip delay] 1
    3540.  00:5D93  22                  	db $22		;[Note] 35
    3541.  00:5D94  C1                  	db $C1		;[Wait] 2
    3542.  00:5D95  14                  	db $14		;[Note] 21
    3543.  00:5D96                      				;[Skip delay] 2
    3544.  00:5D96  16                  	db $16		;[Note] 23
    3545.  00:5D97  C0                  	db $C0		;[Wait] 1
    3546.  00:5D98  60                  	db $60		;[Note] 97
    3547.  00:5D99                      				;[Skip delay] 1
    3548.  00:5D99  19                  	db $19		;[Note] 26
    3549.  00:5D9A                      				;[Skip delay] 1
    3550.  00:5D9A  60                  	db $60		;[Note] 97
    3551.  00:5D9B                      				;[Skip delay] 1
    3552.  00:5D9B  16                  	db $16		;[Note] 23
    3553.  00:5D9C                      				;[Skip delay] 1
    3554.  00:5D9C  60                  	db $60		;[Note] 97
    3555.  00:5D9D                      				;[Skip delay] 1
    3556.  00:5D9D  BF                  	db $BF		;[End-Of-Track]
    3557.  00:5D9E                      .track_59:
    3558.  00:5D9E  36                  	db $36		;[Note] 55
    3559.  00:5D9F  6F                  	db $6F		;[Volume] 15
    3560.  00:5DA0  76                  	db $76		;[Instrument] 7
    3561.  00:5DA1  95 02               	db $95, $02		; track detune
    3562.  00:5DA3  C1                  	db $C1		;[Wait] 2
    3563.  00:5DA4  35                  	db $35		;[Note] 54
    3564.  00:5DA5                      				;[Skip delay] 2
    3565.  00:5DA5  36                  	db $36		;[Note] 55
    3566.  00:5DA6                      				;[Skip delay] 2
    3567.  00:5DA6  35                  	db $35		;[Note] 54
    3568.  00:5DA7  69                  	db $69		;[Volume] 9
    3569.  00:5DA8  95 01               	db $95, $01		; track detune
    3570.  00:5DAA                      				;[Skip delay] 2
    3571.  00:5DAA  4E                  	db $4E		;[Note] 79
    3572.  00:5DAB  6B                  	db $6B		;[Volume] 11
    3573.  00:5DAC  71                  	db $71		;[Instrument] 2
    3574.  00:5DAD  95 00               	db $95, $00		; track detune
    3575.  00:5DAF                      				;[Skip delay] 2
    3576.  00:5DAF  6C                  	db $6C		;[Volume] 12
    3577.  00:5DB0                      				;[Skip delay] 2
    3578.  00:5DB0  6D                  	db $6D		;[Volume] 13
    3579.  00:5DB1  A7 75               	db $A7, $75		;[CMD vibrato]
    3580.  00:5DB3  C0                  	db $C0		;[Wait] 1
    3581.  00:5DB4  B1 01               	db $B1, $01		;[CMD vibrato] rep
    3582.  00:5DB6                      				;[Skip delay] 1
    3583.  00:5DB6  6E                  	db $6E		;[Volume] 14
    3584.  00:5DB7  A7 74               	db $A7, $74		;[CMD vibrato]
    3585.  00:5DB9                      				;[Skip delay] 1
    3586.  00:5DB9  B1 01               	db $B1, $01		;[CMD vibrato] rep
    3587.  00:5DBB                      				;[Skip delay] 1
    3588.  00:5DBB  4D                  	db $4D		;[Note] 78
    3589.  00:5DBC  6C                  	db $6C		;[Volume] 12
    3590.  00:5DBD  C1                  	db $C1		;[Wait] 2
    3591.  00:5DBE  4B                  	db $4B		;[Note] 76
    3592.  00:5DBF                      				;[Skip delay] 2
    3593.  00:5DBF  46                  	db $46		;[Note] 71
    3594.  00:5DC0  C3                  	db $C3		;[Wait] 4
    3595.  00:5DC1  A7 76               	db $A7, $76		;[CMD vibrato]
    3596.  00:5DC3  C0                  	db $C0		;[Wait] 1
    3597.  00:5DC4  B1 03               	db $B1, $03		;[CMD vibrato] rep
    3598.  00:5DC6                      				;[Skip delay] 1
    3599.  00:5DC6  6B                  	db $6B		;[Volume] 11
    3600.  00:5DC7  C1                  	db $C1		;[Wait] 2
    3601.  00:5DC8  6C                  	db $6C		;[Volume] 12
    3602.  00:5DC9  A7 75               	db $A7, $75		;[CMD vibrato]
    3603.  00:5DCB  C0                  	db $C0		;[Wait] 1
    3604.  00:5DCC  B1 03               	db $B1, $03		;[CMD vibrato] rep
    3605.  00:5DCE                      				;[Skip delay] 1
    3606.  00:5DCE  6D                  	db $6D		;[Volume] 13
    3607.  00:5DCF  C1                  	db $C1		;[Wait] 2
    3608.  00:5DD0  35                  	db $35		;[Note] 54
    3609.  00:5DD1  6F                  	db $6F		;[Volume] 15
    3610.  00:5DD2  76                  	db $76		;[Instrument] 7
    3611.  00:5DD3  95 02               	db $95, $02		; track detune
    3612.  00:5DD5                      				;[Skip delay] 2
    3613.  00:5DD5  33                  	db $33		;[Note] 52
    3614.  00:5DD6                      				;[Skip delay] 2
    3615.  00:5DD6  35                  	db $35		;[Note] 54
    3616.  00:5DD7                      				;[Skip delay] 2
    3617.  00:5DD7  33                  	db $33		;[Note] 52
    3618.  00:5DD8  69                  	db $69		;[Volume] 9
    3619.  00:5DD9  95 01               	db $95, $01		; track detune
    3620.  00:5DDB                      				;[Skip delay] 2
    3621.  00:5DDB  4D                  	db $4D		;[Note] 78
    3622.  00:5DDC  6A                  	db $6A		;[Volume] 10
    3623.  00:5DDD  71                  	db $71		;[Instrument] 2
    3624.  00:5DDE  95 00               	db $95, $00		; track detune
    3625.  00:5DE0                      				;[Skip delay] 2
    3626.  00:5DE0  6B                  	db $6B		;[Volume] 11
    3627.  00:5DE1                      				;[Skip delay] 2
    3628.  00:5DE1  6C                  	db $6C		;[Volume] 12
    3629.  00:5DE2  A7 75               	db $A7, $75		;[CMD vibrato]
    3630.  00:5DE4  C0                  	db $C0		;[Wait] 1
    3631.  00:5DE5  B1 01               	db $B1, $01		;[CMD vibrato] rep
    3632.  00:5DE7                      				;[Skip delay] 1
    3633.  00:5DE7  6D                  	db $6D		;[Volume] 13
    3634.  00:5DE8  A7 74               	db $A7, $74		;[CMD vibrato]
    3635.  00:5DEA                      				;[Skip delay] 1
    3636.  00:5DEA  B1 01               	db $B1, $01		;[CMD vibrato] rep
    3637.  00:5DEC                      				;[Skip delay] 1
    3638.  00:5DEC  4B                  	db $4B		;[Note] 76
    3639.  00:5DED  6C                  	db $6C		;[Volume] 12
    3640.  00:5DEE  C1                  	db $C1		;[Wait] 2
    3641.  00:5DEF  49                  	db $49		;[Note] 74
    3642.  00:5DF0                      				;[Skip delay] 2
    3643.  00:5DF0  46                  	db $46		;[Note] 71
    3644.  00:5DF1  C3                  	db $C3		;[Wait] 4
    3645.  00:5DF2  A7 76               	db $A7, $76		;[CMD vibrato]
    3646.  00:5DF4  C0                  	db $C0		;[Wait] 1
    3647.  00:5DF5  B1 03               	db $B1, $03		;[CMD vibrato] rep
    3648.  00:5DF7  C2                  	db $C2		;[Wait] 3
    3649.  00:5DF8  6D                  	db $6D		;[Volume] 13
    3650.  00:5DF9  A7 75               	db $A7, $75		;[CMD vibrato]
    3651.  00:5DFB  C0                  	db $C0		;[Wait] 1
    3652.  00:5DFC  B1 03               	db $B1, $03		;[CMD vibrato] rep
    3653.  00:5DFE                      				;[Skip delay] 1
    3654.  00:5DFE  6E                  	db $6E		;[Volume] 14
    3655.  00:5DFF  C1                  	db $C1		;[Wait] 2
    3656.  00:5E00  BF                  	db $BF		;[End-Of-Track]
    3657.  00:5E01                      .track_60:
    3658.  00:5E01  3A                  	db $3A		;[Note] 59
    3659.  00:5E02  C0                  	db $C0		;[Wait] 1
    3660.  00:5E03  3F                  	db $3F		;[Note] 64
    3661.  00:5E04                      				;[Skip delay] 1
    3662.  00:5E04  41                  	db $41		;[Note] 66
    3663.  00:5E05                      				;[Skip delay] 1
    3664.  00:5E05  42                  	db $42		;[Note] 67
    3665.  00:5E06                      				;[Skip delay] 1
    3666.  00:5E06  3A                  	db $3A		;[Note] 59
    3667.  00:5E07                      				;[Skip delay] 1
    3668.  00:5E07  3F                  	db $3F		;[Note] 64
    3669.  00:5E08                      				;[Skip delay] 1
    3670.  00:5E08  41                  	db $41		;[Note] 66
    3671.  00:5E09                      				;[Skip delay] 1
    3672.  00:5E09  42                  	db $42		;[Note] 67
    3673.  00:5E0A                      				;[Skip delay] 1
    3674.  00:5E0A  3A                  	db $3A		;[Note] 59
    3675.  00:5E0B                      				;[Skip delay] 1
    3676.  00:5E0B  3F                  	db $3F		;[Note] 64
    3677.  00:5E0C                      				;[Skip delay] 1
    3678.  00:5E0C  41                  	db $41		;[Note] 66
    3679.  00:5E0D                      				;[Skip delay] 1
    3680.  00:5E0D  42                  	db $42		;[Note] 67
    3681.  00:5E0E                      				;[Skip delay] 1
    3682.  00:5E0E  3A                  	db $3A		;[Note] 59
    3683.  00:5E0F                      				;[Skip delay] 1
    3684.  00:5E0F  3F                  	db $3F		;[Note] 64
    3685.  00:5E10                      				;[Skip delay] 1
    3686.  00:5E10  41                  	db $41		;[Note] 66
    3687.  00:5E11                      				;[Skip delay] 1
    3688.  00:5E11  42                  	db $42		;[Note] 67
    3689.  00:5E12                      				;[Skip delay] 1
    3690.  00:5E12  3A                  	db $3A		;[Note] 59
    3691.  00:5E13                      				;[Skip delay] 1
    3692.  00:5E13  3F                  	db $3F		;[Note] 64
    3693.  00:5E14                      				;[Skip delay] 1
    3694.  00:5E14  41                  	db $41		;[Note] 66
    3695.  00:5E15                      				;[Skip delay] 1
    3696.  00:5E15  42                  	db $42		;[Note] 67
    3697.  00:5E16                      				;[Skip delay] 1
    3698.  00:5E16  3A                  	db $3A		;[Note] 59
    3699.  00:5E17                      				;[Skip delay] 1
    3700.  00:5E17  3F                  	db $3F		;[Note] 64
    3701.  00:5E18                      				;[Skip delay] 1
    3702.  00:5E18  41                  	db $41		;[Note] 66
    3703.  00:5E19                      				;[Skip delay] 1
    3704.  00:5E19  42                  	db $42		;[Note] 67
    3705.  00:5E1A                      				;[Skip delay] 1
    3706.  00:5E1A  3A                  	db $3A		;[Note] 59
    3707.  00:5E1B                      				;[Skip delay] 1
    3708.  00:5E1B  3F                  	db $3F		;[Note] 64
    3709.  00:5E1C                      				;[Skip delay] 1
    3710.  00:5E1C  41                  	db $41		;[Note] 66
    3711.  00:5E1D                      				;[Skip delay] 1
    3712.  00:5E1D  42                  	db $42		;[Note] 67
    3713.  00:5E1E                      				;[Skip delay] 1
    3714.  00:5E1E  3A                  	db $3A		;[Note] 59
    3715.  00:5E1F                      				;[Skip delay] 1
    3716.  00:5E1F  3F                  	db $3F		;[Note] 64
    3717.  00:5E20                      				;[Skip delay] 1
    3718.  00:5E20  41                  	db $41		;[Note] 66
    3719.  00:5E21                      				;[Skip delay] 1
    3720.  00:5E21  42                  	db $42		;[Note] 67
    3721.  00:5E22                      				;[Skip delay] 1
    3722.  00:5E22  3A                  	db $3A		;[Note] 59
    3723.  00:5E23                      				;[Skip delay] 1
    3724.  00:5E23  3F                  	db $3F		;[Note] 64
    3725.  00:5E24                      				;[Skip delay] 1
    3726.  00:5E24  41                  	db $41		;[Note] 66
    3727.  00:5E25                      				;[Skip delay] 1
    3728.  00:5E25  42                  	db $42		;[Note] 67
    3729.  00:5E26                      				;[Skip delay] 1
    3730.  00:5E26  3A                  	db $3A		;[Note] 59
    3731.  00:5E27                      				;[Skip delay] 1
    3732.  00:5E27  3F                  	db $3F		;[Note] 64
    3733.  00:5E28                      				;[Skip delay] 1
    3734.  00:5E28  41                  	db $41		;[Note] 66
    3735.  00:5E29                      				;[Skip delay] 1
    3736.  00:5E29  42                  	db $42		;[Note] 67
    3737.  00:5E2A                      				;[Skip delay] 1
    3738.  00:5E2A  3A                  	db $3A		;[Note] 59
    3739.  00:5E2B                      				;[Skip delay] 1
    3740.  00:5E2B  3F                  	db $3F		;[Note] 64
    3741.  00:5E2C                      				;[Skip delay] 1
    3742.  00:5E2C  41                  	db $41		;[Note] 66
    3743.  00:5E2D                      				;[Skip delay] 1
    3744.  00:5E2D  42                  	db $42		;[Note] 67
    3745.  00:5E2E                      				;[Skip delay] 1
    3746.  00:5E2E  3A                  	db $3A		;[Note] 59
    3747.  00:5E2F                      				;[Skip delay] 1
    3748.  00:5E2F  3F                  	db $3F		;[Note] 64
    3749.  00:5E30                      				;[Skip delay] 1
    3750.  00:5E30  41                  	db $41		;[Note] 66
    3751.  00:5E31                      				;[Skip delay] 1
    3752.  00:5E31  42                  	db $42		;[Note] 67
    3753.  00:5E32                      				;[Skip delay] 1
    3754.  00:5E32  3A                  	db $3A		;[Note] 59
    3755.  00:5E33                      				;[Skip delay] 1
    3756.  00:5E33  3F                  	db $3F		;[Note] 64
    3757.  00:5E34                      				;[Skip delay] 1
    3758.  00:5E34  41                  	db $41		;[Note] 66
    3759.  00:5E35                      				;[Skip delay] 1
    3760.  00:5E35  42                  	db $42		;[Note] 67
    3761.  00:5E36                      				;[Skip delay] 1
    3762.  00:5E36  3A                  	db $3A		;[Note] 59
    3763.  00:5E37                      				;[Skip delay] 1
    3764.  00:5E37  3F                  	db $3F		;[Note] 64
    3765.  00:5E38                      				;[Skip delay] 1
    3766.  00:5E38  41                  	db $41		;[Note] 66
    3767.  00:5E39                      				;[Skip delay] 1
    3768.  00:5E39  42                  	db $42		;[Note] 67
    3769.  00:5E3A                      				;[Skip delay] 1
    3770.  00:5E3A  3A                  	db $3A		;[Note] 59
    3771.  00:5E3B                      				;[Skip delay] 1
    3772.  00:5E3B  3F                  	db $3F		;[Note] 64
    3773.  00:5E3C                      				;[Skip delay] 1
    3774.  00:5E3C  41                  	db $41		;[Note] 66
    3775.  00:5E3D                      				;[Skip delay] 1
    3776.  00:5E3D  42                  	db $42		;[Note] 67
    3777.  00:5E3E                      				;[Skip delay] 1
    3778.  00:5E3E  3A                  	db $3A		;[Note] 59
    3779.  00:5E3F                      				;[Skip delay] 1
    3780.  00:5E3F  3F                  	db $3F		;[Note] 64
    3781.  00:5E40                      				;[Skip delay] 1
    3782.  00:5E40  41                  	db $41		;[Note] 66
    3783.  00:5E41                      				;[Skip delay] 1
    3784.  00:5E41  42                  	db $42		;[Note] 67
    3785.  00:5E42                      				;[Skip delay] 1
    3786.  00:5E42  BF                  	db $BF		;[End-Of-Track]
    3787.  00:5E43                      .track_61:
    3788.  00:5E43  2E                  	db $2E		;[Note] 47
    3789.  00:5E44  6D                  	db $6D		;[Volume] 13
    3790.  00:5E45  7B                  	db $7B		;[Instrument] 12
    3791.  00:5E46  95 00               	db $95, $00		; track detune
    3792.  00:5E48  C0                  	db $C0		;[Wait] 1
    3793.  00:5E49  36                  	db $36		;[Note] 55
    3794.  00:5E4A  69                  	db $69		;[Volume] 9
    3795.  00:5E4B  95 03               	db $95, $03		; track detune
    3796.  00:5E4D                      				;[Skip delay] 1
    3797.  00:5E4D  33                  	db $33		;[Note] 52
    3798.  00:5E4E  6D                  	db $6D		;[Volume] 13
    3799.  00:5E4F  95 00               	db $95, $00		; track detune
    3800.  00:5E51                      				;[Skip delay] 1
    3801.  00:5E51  2E                  	db $2E		;[Note] 47
    3802.  00:5E52  68                  	db $68		;[Volume] 8
    3803.  00:5E53  95 03               	db $95, $03		; track detune
    3804.  00:5E55                      				;[Skip delay] 1
    3805.  00:5E55  35                  	db $35		;[Note] 54
    3806.  00:5E56  6E                  	db $6E		;[Volume] 14
    3807.  00:5E57  7C                  	db $7C		;[Instrument] 13
    3808.  00:5E58  95 00               	db $95, $00		; track detune
    3809.  00:5E5A                      				;[Skip delay] 1
    3810.  00:5E5A  33                  	db $33		;[Note] 52
    3811.  00:5E5B  68                  	db $68		;[Volume] 8
    3812.  00:5E5C  7B                  	db $7B		;[Instrument] 12
    3813.  00:5E5D  95 03               	db $95, $03		; track detune
    3814.  00:5E5F                      				;[Skip delay] 1
    3815.  00:5E5F  2E                  	db $2E		;[Note] 47
    3816.  00:5E60  6E                  	db $6E		;[Volume] 14
    3817.  00:5E61  95 00               	db $95, $00		; track detune
    3818.  00:5E63                      				;[Skip delay] 1
    3819.  00:5E63  35                  	db $35		;[Note] 54
    3820.  00:5E64  69                  	db $69		;[Volume] 9
    3821.  00:5E65  95 03               	db $95, $03		; track detune
    3822.  00:5E67                      				;[Skip delay] 1
    3823.  00:5E67  35                  	db $35		;[Note] 54
    3824.  00:5E68  6F                  	db $6F		;[Volume] 15
    3825.  00:5E69  7D                  	db $7D		;[Instrument] 14
    3826.  00:5E6A  95 00               	db $95, $00		; track detune
    3827.  00:5E6C                      				;[Skip delay] 1
    3828.  00:5E6C  2E                  	db $2E		;[Note] 47
    3829.  00:5E6D  69                  	db $69		;[Volume] 9
    3830.  00:5E6E  7C                  	db $7C		;[Instrument] 13
    3831.  00:5E6F  95 03               	db $95, $03		; track detune
    3832.  00:5E71                      				;[Skip delay] 1
    3833.  00:5E71  36                  	db $36		;[Note] 55
    3834.  00:5E72  6F                  	db $6F		;[Volume] 15
    3835.  00:5E73  7D                  	db $7D		;[Instrument] 14
    3836.  00:5E74  95 00               	db $95, $00		; track detune
    3837.  00:5E76                      				;[Skip delay] 1
    3838.  00:5E76  35                  	db $35		;[Note] 54
    3839.  00:5E77  6A                  	db $6A		;[Volume] 10
    3840.  00:5E78  95 03               	db $95, $03		; track detune
    3841.  00:5E7A                      				;[Skip delay] 1
    3842.  00:5E7A  2E                  	db $2E		;[Note] 47
    3843.  00:5E7B  6E                  	db $6E		;[Volume] 14
    3844.  00:5E7C  7C                  	db $7C		;[Instrument] 13
    3845.  00:5E7D  95 00               	db $95, $00		; track detune
    3846.  00:5E7F                      				;[Skip delay] 1
    3847.  00:5E7F  36                  	db $36		;[Note] 55
    3848.  00:5E80  6A                  	db $6A		;[Volume] 10
    3849.  00:5E81  7D                  	db $7D		;[Instrument] 14
    3850.  00:5E82  95 03               	db $95, $03		; track detune
    3851.  00:5E84                      				;[Skip delay] 1
    3852.  00:5E84  36                  	db $36		;[Note] 55
    3853.  00:5E85  6E                  	db $6E		;[Volume] 14
    3854.  00:5E86  7C                  	db $7C		;[Instrument] 13
    3855.  00:5E87  95 00               	db $95, $00		; track detune
    3856.  00:5E89                      				;[Skip delay] 1
    3857.  00:5E89  2E                  	db $2E		;[Note] 47
    3858.  00:5E8A  69                  	db $69		;[Volume] 9
    3859.  00:5E8B  95 03               	db $95, $03		; track detune
    3860.  00:5E8D                      				;[Skip delay] 1
    3861.  00:5E8D  35                  	db $35		;[Note] 54
    3862.  00:5E8E  6D                  	db $6D		;[Volume] 13
    3863.  00:5E8F  7B                  	db $7B		;[Instrument] 12
    3864.  00:5E90  95 00               	db $95, $00		; track detune
    3865.  00:5E92                      				;[Skip delay] 1
    3866.  00:5E92  36                  	db $36		;[Note] 55
    3867.  00:5E93  69                  	db $69		;[Volume] 9
    3868.  00:5E94  7C                  	db $7C		;[Instrument] 13
    3869.  00:5E95  95 03               	db $95, $03		; track detune
    3870.  00:5E97                      				;[Skip delay] 1
    3871.  00:5E97  33                  	db $33		;[Note] 52
    3872.  00:5E98  6D                  	db $6D		;[Volume] 13
    3873.  00:5E99  7B                  	db $7B		;[Instrument] 12
    3874.  00:5E9A  95 00               	db $95, $00		; track detune
    3875.  00:5E9C                      				;[Skip delay] 1
    3876.  00:5E9C  35                  	db $35		;[Note] 54
    3877.  00:5E9D  68                  	db $68		;[Volume] 8
    3878.  00:5E9E  95 03               	db $95, $03		; track detune
    3879.  00:5EA0                      				;[Skip delay] 1
    3880.  00:5EA0  2E                  	db $2E		;[Note] 47
    3881.  00:5EA1  6E                  	db $6E		;[Volume] 14
    3882.  00:5EA2  7C                  	db $7C		;[Instrument] 13
    3883.  00:5EA3  95 00               	db $95, $00		; track detune
    3884.  00:5EA5                      				;[Skip delay] 1
    3885.  00:5EA5  33                  	db $33		;[Note] 52
    3886.  00:5EA6  68                  	db $68		;[Volume] 8
    3887.  00:5EA7  7B                  	db $7B		;[Instrument] 12
    3888.  00:5EA8  95 03               	db $95, $03		; track detune
    3889.  00:5EAA                      				;[Skip delay] 1
    3890.  00:5EAA  35                  	db $35		;[Note] 54
    3891.  00:5EAB  6E                  	db $6E		;[Volume] 14
    3892.  00:5EAC  7C                  	db $7C		;[Instrument] 13
    3893.  00:5EAD  95 00               	db $95, $00		; track detune
    3894.  00:5EAF                      				;[Skip delay] 1
    3895.  00:5EAF  2E                  	db $2E		;[Note] 47
    3896.  00:5EB0  69                  	db $69		;[Volume] 9
    3897.  00:5EB1  95 03               	db $95, $03		; track detune
    3898.  00:5EB3                      				;[Skip delay] 1
    3899.  00:5EB3  2E                  	db $2E		;[Note] 47
    3900.  00:5EB4  6F                  	db $6F		;[Volume] 15
    3901.  00:5EB5  7D                  	db $7D		;[Instrument] 14
    3902.  00:5EB6  95 00               	db $95, $00		; track detune
    3903.  00:5EB8                      				;[Skip delay] 1
    3904.  00:5EB8  35                  	db $35		;[Note] 54
    3905.  00:5EB9  69                  	db $69		;[Volume] 9
    3906.  00:5EBA  7C                  	db $7C		;[Instrument] 13
    3907.  00:5EBB  95 03               	db $95, $03		; track detune
    3908.  00:5EBD                      				;[Skip delay] 1
    3909.  00:5EBD  33                  	db $33		;[Note] 52
    3910.  00:5EBE  6F                  	db $6F		;[Volume] 15
    3911.  00:5EBF  7D                  	db $7D		;[Instrument] 14
    3912.  00:5EC0  95 00               	db $95, $00		; track detune
    3913.  00:5EC2                      				;[Skip delay] 1
    3914.  00:5EC2  2E                  	db $2E		;[Note] 47
    3915.  00:5EC3  6A                  	db $6A		;[Volume] 10
    3916.  00:5EC4  95 03               	db $95, $03		; track detune
    3917.  00:5EC6                      				;[Skip delay] 1
    3918.  00:5EC6  35                  	db $35		;[Note] 54
    3919.  00:5EC7  6E                  	db $6E		;[Volume] 14
    3920.  00:5EC8  7C                  	db $7C		;[Instrument] 13
    3921.  00:5EC9  95 00               	db $95, $00		; track detune
    3922.  00:5ECB                      				;[Skip delay] 1
    3923.  00:5ECB  33                  	db $33		;[Note] 52
    3924.  00:5ECC  6A                  	db $6A		;[Volume] 10
    3925.  00:5ECD  7D                  	db $7D		;[Instrument] 14
    3926.  00:5ECE  95 03               	db $95, $03		; track detune
    3927.  00:5ED0                      				;[Skip delay] 1
    3928.  00:5ED0  36                  	db $36		;[Note] 55
    3929.  00:5ED1  6E                  	db $6E		;[Volume] 14
    3930.  00:5ED2  7C                  	db $7C		;[Instrument] 13
    3931.  00:5ED3  95 00               	db $95, $00		; track detune
    3932.  00:5ED5                      				;[Skip delay] 1
    3933.  00:5ED5  35                  	db $35		;[Note] 54
    3934.  00:5ED6  69                  	db $69		;[Volume] 9
    3935.  00:5ED7  95 03               	db $95, $03		; track detune
    3936.  00:5ED9                      				;[Skip delay] 1
    3937.  00:5ED9  2E                  	db $2E		;[Note] 47
    3938.  00:5EDA  6D                  	db $6D		;[Volume] 13
    3939.  00:5EDB  7B                  	db $7B		;[Instrument] 12
    3940.  00:5EDC  95 00               	db $95, $00		; track detune
    3941.  00:5EDE                      				;[Skip delay] 1
    3942.  00:5EDE  36                  	db $36		;[Note] 55
    3943.  00:5EDF  69                  	db $69		;[Volume] 9
    3944.  00:5EE0  7C                  	db $7C		;[Instrument] 13
    3945.  00:5EE1  95 03               	db $95, $03		; track detune
    3946.  00:5EE3                      				;[Skip delay] 1
    3947.  00:5EE3  33                  	db $33		;[Note] 52
    3948.  00:5EE4  6D                  	db $6D		;[Volume] 13
    3949.  00:5EE5  95 00               	db $95, $00		; track detune
    3950.  00:5EE7                      				;[Skip delay] 1
    3951.  00:5EE7  2E                  	db $2E		;[Note] 47
    3952.  00:5EE8  68                  	db $68		;[Volume] 8
    3953.  00:5EE9  95 03               	db $95, $03		; track detune
    3954.  00:5EEB                      				;[Skip delay] 1
    3955.  00:5EEB  35                  	db $35		;[Note] 54
    3956.  00:5EEC  6E                  	db $6E		;[Volume] 14
    3957.  00:5EED  95 00               	db $95, $00		; track detune
    3958.  00:5EEF                      				;[Skip delay] 1
    3959.  00:5EEF  33                  	db $33		;[Note] 52
    3960.  00:5EF0  68                  	db $68		;[Volume] 8
    3961.  00:5EF1  7B                  	db $7B		;[Instrument] 12
    3962.  00:5EF2  95 03               	db $95, $03		; track detune
    3963.  00:5EF4                      				;[Skip delay] 1
    3964.  00:5EF4  2E                  	db $2E		;[Note] 47
    3965.  00:5EF5  6E                  	db $6E		;[Volume] 14
    3966.  00:5EF6  7C                  	db $7C		;[Instrument] 13
    3967.  00:5EF7  95 00               	db $95, $00		; track detune
    3968.  00:5EF9                      				;[Skip delay] 1
    3969.  00:5EF9  35                  	db $35		;[Note] 54
    3970.  00:5EFA  69                  	db $69		;[Volume] 9
    3971.  00:5EFB  95 03               	db $95, $03		; track detune
    3972.  00:5EFD                      				;[Skip delay] 1
    3973.  00:5EFD  35                  	db $35		;[Note] 54
    3974.  00:5EFE  6F                  	db $6F		;[Volume] 15
    3975.  00:5EFF  7D                  	db $7D		;[Instrument] 14
    3976.  00:5F00  95 00               	db $95, $00		; track detune
    3977.  00:5F02                      				;[Skip delay] 1
    3978.  00:5F02  2E                  	db $2E		;[Note] 47
    3979.  00:5F03  69                  	db $69		;[Volume] 9
    3980.  00:5F04  7C                  	db $7C		;[Instrument] 13
    3981.  00:5F05  95 03               	db $95, $03		; track detune
    3982.  00:5F07                      				;[Skip delay] 1
    3983.  00:5F07  36                  	db $36		;[Note] 55
    3984.  00:5F08  6F                  	db $6F		;[Volume] 15
    3985.  00:5F09  7D                  	db $7D		;[Instrument] 14
    3986.  00:5F0A  95 00               	db $95, $00		; track detune
    3987.  00:5F0C                      				;[Skip delay] 1
    3988.  00:5F0C  35                  	db $35		;[Note] 54
    3989.  00:5F0D  6A                  	db $6A		;[Volume] 10
    3990.  00:5F0E  95 03               	db $95, $03		; track detune
    3991.  00:5F10                      				;[Skip delay] 1
    3992.  00:5F10  2E                  	db $2E		;[Note] 47
    3993.  00:5F11  6E                  	db $6E		;[Volume] 14
    3994.  00:5F12  7C                  	db $7C		;[Instrument] 13
    3995.  00:5F13  95 00               	db $95, $00		; track detune
    3996.  00:5F15                      				;[Skip delay] 1
    3997.  00:5F15  36                  	db $36		;[Note] 55
    3998.  00:5F16  6A                  	db $6A		;[Volume] 10
    3999.  00:5F17  7D                  	db $7D		;[Instrument] 14
    4000.  00:5F18  95 03               	db $95, $03		; track detune
    4001.  00:5F1A                      				;[Skip delay] 1
    4002.  00:5F1A  36                  	db $36		;[Note] 55
    4003.  00:5F1B  6E                  	db $6E		;[Volume] 14
    4004.  00:5F1C  7C                  	db $7C		;[Instrument] 13
    4005.  00:5F1D  95 00               	db $95, $00		; track detune
    4006.  00:5F1F                      				;[Skip delay] 1
    4007.  00:5F1F  2E                  	db $2E		;[Note] 47
    4008.  00:5F20  69                  	db $69		;[Volume] 9
    4009.  00:5F21  95 03               	db $95, $03		; track detune
    4010.  00:5F23                      				;[Skip delay] 1
    4011.  00:5F23  35                  	db $35		;[Note] 54
    4012.  00:5F24  6D                  	db $6D		;[Volume] 13
    4013.  00:5F25  7B                  	db $7B		;[Instrument] 12
    4014.  00:5F26  95 00               	db $95, $00		; track detune
    4015.  00:5F28                      				;[Skip delay] 1
    4016.  00:5F28  36                  	db $36		;[Note] 55
    4017.  00:5F29  69                  	db $69		;[Volume] 9
    4018.  00:5F2A  7C                  	db $7C		;[Instrument] 13
    4019.  00:5F2B  95 03               	db $95, $03		; track detune
    4020.  00:5F2D                      				;[Skip delay] 1
    4021.  00:5F2D  33                  	db $33		;[Note] 52
    4022.  00:5F2E  6D                  	db $6D		;[Volume] 13
    4023.  00:5F2F  7B                  	db $7B		;[Instrument] 12
    4024.  00:5F30  95 00               	db $95, $00		; track detune
    4025.  00:5F32                      				;[Skip delay] 1
    4026.  00:5F32  35                  	db $35		;[Note] 54
    4027.  00:5F33  68                  	db $68		;[Volume] 8
    4028.  00:5F34  95 03               	db $95, $03		; track detune
    4029.  00:5F36                      				;[Skip delay] 1
    4030.  00:5F36  2E                  	db $2E		;[Note] 47
    4031.  00:5F37  6E                  	db $6E		;[Volume] 14
    4032.  00:5F38  7C                  	db $7C		;[Instrument] 13
    4033.  00:5F39  95 00               	db $95, $00		; track detune
    4034.  00:5F3B                      				;[Skip delay] 1
    4035.  00:5F3B  33                  	db $33		;[Note] 52
    4036.  00:5F3C  68                  	db $68		;[Volume] 8
    4037.  00:5F3D  7B                  	db $7B		;[Instrument] 12
    4038.  00:5F3E  95 03               	db $95, $03		; track detune
    4039.  00:5F40                      				;[Skip delay] 1
    4040.  00:5F40  35                  	db $35		;[Note] 54
    4041.  00:5F41  6E                  	db $6E		;[Volume] 14
    4042.  00:5F42  7C                  	db $7C		;[Instrument] 13
    4043.  00:5F43  95 00               	db $95, $00		; track detune
    4044.  00:5F45                      				;[Skip delay] 1
    4045.  00:5F45  2E                  	db $2E		;[Note] 47
    4046.  00:5F46  69                  	db $69		;[Volume] 9
    4047.  00:5F47  95 03               	db $95, $03		; track detune
    4048.  00:5F49                      				;[Skip delay] 1
    4049.  00:5F49  2E                  	db $2E		;[Note] 47
    4050.  00:5F4A  6F                  	db $6F		;[Volume] 15
    4051.  00:5F4B  7D                  	db $7D		;[Instrument] 14
    4052.  00:5F4C  95 00               	db $95, $00		; track detune
    4053.  00:5F4E                      				;[Skip delay] 1
    4054.  00:5F4E  35                  	db $35		;[Note] 54
    4055.  00:5F4F  69                  	db $69		;[Volume] 9
    4056.  00:5F50  7C                  	db $7C		;[Instrument] 13
    4057.  00:5F51  95 03               	db $95, $03		; track detune
    4058.  00:5F53                      				;[Skip delay] 1
    4059.  00:5F53  33                  	db $33		;[Note] 52
    4060.  00:5F54  6F                  	db $6F		;[Volume] 15
    4061.  00:5F55  7D                  	db $7D		;[Instrument] 14
    4062.  00:5F56  95 00               	db $95, $00		; track detune
    4063.  00:5F58                      				;[Skip delay] 1
    4064.  00:5F58  2E                  	db $2E		;[Note] 47
    4065.  00:5F59  6A                  	db $6A		;[Volume] 10
    4066.  00:5F5A  95 03               	db $95, $03		; track detune
    4067.  00:5F5C                      				;[Skip delay] 1
    4068.  00:5F5C  35                  	db $35		;[Note] 54
    4069.  00:5F5D  6E                  	db $6E		;[Volume] 14
    4070.  00:5F5E  7C                  	db $7C		;[Instrument] 13
    4071.  00:5F5F  95 00               	db $95, $00		; track detune
    4072.  00:5F61                      				;[Skip delay] 1
    4073.  00:5F61  33                  	db $33		;[Note] 52
    4074.  00:5F62  6A                  	db $6A		;[Volume] 10
    4075.  00:5F63  7D                  	db $7D		;[Instrument] 14
    4076.  00:5F64  95 03               	db $95, $03		; track detune
    4077.  00:5F66                      				;[Skip delay] 1
    4078.  00:5F66  36                  	db $36		;[Note] 55
    4079.  00:5F67  6E                  	db $6E		;[Volume] 14
    4080.  00:5F68  7C                  	db $7C		;[Instrument] 13
    4081.  00:5F69  95 00               	db $95, $00		; track detune
    4082.  00:5F6B                      				;[Skip delay] 1
    4083.  00:5F6B  35                  	db $35		;[Note] 54
    4084.  00:5F6C  69                  	db $69		;[Volume] 9
    4085.  00:5F6D  95 03               	db $95, $03		; track detune
    4086.  00:5F6F                      				;[Skip delay] 1
    4087.  00:5F6F  BF                  	db $BF		;[End-Of-Track]
    4088.  00:5F70                      .track_62:
    4089.  00:5F70  2E                  	db $2E		;[Note] 47
    4090.  00:5F71  6F                  	db $6F		;[Volume] 15
    4091.  00:5F72  75                  	db $75		;[Instrument] 6
    4092.  00:5F73  C1                  	db $C1		;[Wait] 2
    4093.  00:5F74  2C                  	db $2C		;[Note] 45
    4094.  00:5F75                      				;[Skip delay] 2
    4095.  00:5F75  2E                  	db $2E		;[Note] 47
    4096.  00:5F76  C0                  	db $C0		;[Wait] 1
    4097.  00:5F77  6E                  	db $6E		;[Volume] 14
    4098.  00:5F78                      				;[Skip delay] 1
    4099.  00:5F78  6D                  	db $6D		;[Volume] 13
    4100.  00:5F79                      				;[Skip delay] 1
    4101.  00:5F79  6C                  	db $6C		;[Volume] 12
    4102.  00:5F7A                      				;[Skip delay] 1
    4103.  00:5F7A  3A                  	db $3A		;[Note] 59
    4104.  00:5F7B  6D                  	db $6D		;[Volume] 13
    4105.  00:5F7C  C1                  	db $C1		;[Wait] 2
    4106.  00:5F7D  A7 75               	db $A7, $75		;[CMD vibrato]
    4107.  00:5F7F  C0                  	db $C0		;[Wait] 1
    4108.  00:5F80  B1 15               	db $B1, $15		;[CMD vibrato] rep
    4109.  00:5F82  C4                  	db $C4		;[Wait] 5
    4110.  00:5F83  6E                  	db $6E		;[Volume] 14
    4111.  00:5F84  C3                  	db $C3		;[Wait] 4
    4112.  00:5F85  6F                  	db $6F		;[Volume] 15
    4113.  00:5F86  C1                  	db $C1		;[Wait] 2
    4114.  00:5F87  6E                  	db $6E		;[Volume] 14
    4115.  00:5F88                      				;[Skip delay] 2
    4116.  00:5F88  6D                  	db $6D		;[Volume] 13
    4117.  00:5F89                      				;[Skip delay] 2
    4118.  00:5F89  6C                  	db $6C		;[Volume] 12
    4119.  00:5F8A                      				;[Skip delay] 2
    4120.  00:5F8A  6B                  	db $6B		;[Volume] 11
    4121.  00:5F8B                      				;[Skip delay] 2
    4122.  00:5F8B  6A                  	db $6A		;[Volume] 10
    4123.  00:5F8C                      				;[Skip delay] 2
    4124.  00:5F8C  2E                  	db $2E		;[Note] 47
    4125.  00:5F8D  6F                  	db $6F		;[Volume] 15
    4126.  00:5F8E                      				;[Skip delay] 2
    4127.  00:5F8E  2C                  	db $2C		;[Note] 45
    4128.  00:5F8F                      				;[Skip delay] 2
    4129.  00:5F8F  2E                  	db $2E		;[Note] 47
    4130.  00:5F90  C0                  	db $C0		;[Wait] 1
    4131.  00:5F91  6E                  	db $6E		;[Volume] 14
    4132.  00:5F92                      				;[Skip delay] 1
    4133.  00:5F92  6D                  	db $6D		;[Volume] 13
    4134.  00:5F93                      				;[Skip delay] 1
    4135.  00:5F93  6C                  	db $6C		;[Volume] 12
    4136.  00:5F94                      				;[Skip delay] 1
    4137.  00:5F94  3A                  	db $3A		;[Note] 59
    4138.  00:5F95  6D                  	db $6D		;[Volume] 13
    4139.  00:5F96  C1                  	db $C1		;[Wait] 2
    4140.  00:5F97  A7 75               	db $A7, $75		;[CMD vibrato]
    4141.  00:5F99  C0                  	db $C0		;[Wait] 1
    4142.  00:5F9A  B1 15               	db $B1, $15		;[CMD vibrato] rep
    4143.  00:5F9C  C4                  	db $C4		;[Wait] 5
    4144.  00:5F9D  6E                  	db $6E		;[Volume] 14
    4145.  00:5F9E  C3                  	db $C3		;[Wait] 4
    4146.  00:5F9F  6F                  	db $6F		;[Volume] 15
    4147.  00:5FA0  C1                  	db $C1		;[Wait] 2
    4148.  00:5FA1  6E                  	db $6E		;[Volume] 14
    4149.  00:5FA2                      				;[Skip delay] 2
    4150.  00:5FA2  6D                  	db $6D		;[Volume] 13
    4151.  00:5FA3                      				;[Skip delay] 2
    4152.  00:5FA3  6C                  	db $6C		;[Volume] 12
    4153.  00:5FA4                      				;[Skip delay] 2
    4154.  00:5FA4  6B                  	db $6B		;[Volume] 11
    4155.  00:5FA5                      				;[Skip delay] 2
    4156.  00:5FA5  6A                  	db $6A		;[Volume] 10
    4157.  00:5FA6                      				;[Skip delay] 2
    4158.  00:5FA6  BF                  	db $BF		;[End-Of-Track]
    4159.  00:5FA7                      .track_63:
    4160.  00:5FA7  33                  	db $33		;[Note] 52
    4161.  00:5FA8  6B                  	db $6B		;[Volume] 11
    4162.  00:5FA9  7A                  	db $7A		;[Instrument] 11
    4163.  00:5FAA  C1                  	db $C1		;[Wait] 2
    4164.  00:5FAB  6C                  	db $6C		;[Volume] 12
    4165.  00:5FAC                      				;[Skip delay] 2
    4166.  00:5FAC  6D                  	db $6D		;[Volume] 13
    4167.  00:5FAD  A7 76               	db $A7, $76		;[CMD vibrato]
    4168.  00:5FAF  C0                  	db $C0		;[Wait] 1
    4169.  00:5FB0  B1 03               	db $B1, $03		;[CMD vibrato] rep
    4170.  00:5FB2  C1                  	db $C1		;[Wait] 2
    4171.  00:5FB3  69                  	db $69		;[Volume] 9
    4172.  00:5FB4  C0                  	db $C0		;[Wait] 1
    4173.  00:5FB5  3A                  	db $3A		;[Note] 59
    4174.  00:5FB6  6B                  	db $6B		;[Volume] 11
    4175.  00:5FB7  C1                  	db $C1		;[Wait] 2
    4176.  00:5FB8  6C                  	db $6C		;[Volume] 12
    4177.  00:5FB9                      				;[Skip delay] 2
    4178.  00:5FB9  6D                  	db $6D		;[Volume] 13
    4179.  00:5FBA  A7 76               	db $A7, $76		;[CMD vibrato]
    4180.  00:5FBC  C0                  	db $C0		;[Wait] 1
    4181.  00:5FBD  B1 03               	db $B1, $03		;[CMD vibrato] rep
    4182.  00:5FBF  C2                  	db $C2		;[Wait] 3
    4183.  00:5FC0  38                  	db $38		;[Note] 57
    4184.  00:5FC1  6C                  	db $6C		;[Volume] 12
    4185.  00:5FC2  C1                  	db $C1		;[Wait] 2
    4186.  00:5FC3  36                  	db $36		;[Note] 55
    4187.  00:5FC4                      				;[Skip delay] 2
    4188.  00:5FC4  35                  	db $35		;[Note] 54
    4189.  00:5FC5  C3                  	db $C3		;[Wait] 4
    4190.  00:5FC6  6D                  	db $6D		;[Volume] 13
    4191.  00:5FC7  A7 78               	db $A7, $78		;[CMD vibrato]
    4192.  00:5FC9  C0                  	db $C0		;[Wait] 1
    4193.  00:5FCA  B1 03               	db $B1, $03		;[CMD vibrato] rep
    4194.  00:5FCC  C2                  	db $C2		;[Wait] 3
    4195.  00:5FCD  6E                  	db $6E		;[Volume] 14
    4196.  00:5FCE  A7 77               	db $A7, $77		;[CMD vibrato]
    4197.  00:5FD0  C0                  	db $C0		;[Wait] 1
    4198.  00:5FD1  6D                  	db $6D		;[Volume] 13
    4199.  00:5FD2  B1 03               	db $B1, $03		;[CMD vibrato] rep
    4200.  00:5FD4                      				;[Skip delay] 1
    4201.  00:5FD4  6C                  	db $6C		;[Volume] 12
    4202.  00:5FD5                      				;[Skip delay] 1
    4203.  00:5FD5  6B                  	db $6B		;[Volume] 11
    4204.  00:5FD6                      				;[Skip delay] 1
    4205.  00:5FD6  35                  	db $35		;[Note] 54
    4206.  00:5FD7  C1                  	db $C1		;[Wait] 2
    4207.  00:5FD8  6C                  	db $6C		;[Volume] 12
    4208.  00:5FD9                      				;[Skip delay] 2
    4209.  00:5FD9  6D                  	db $6D		;[Volume] 13
    4210.  00:5FDA  A7 76               	db $A7, $76		;[CMD vibrato]
    4211.  00:5FDC  C0                  	db $C0		;[Wait] 1
    4212.  00:5FDD  B1 03               	db $B1, $03		;[CMD vibrato] rep
    4213.  00:5FDF  C1                  	db $C1		;[Wait] 2
    4214.  00:5FE0  69                  	db $69		;[Volume] 9
    4215.  00:5FE1  C0                  	db $C0		;[Wait] 1
    4216.  00:5FE2  3A                  	db $3A		;[Note] 59
    4217.  00:5FE3  6B                  	db $6B		;[Volume] 11
    4218.  00:5FE4  C1                  	db $C1		;[Wait] 2
    4219.  00:5FE5  6C                  	db $6C		;[Volume] 12
    4220.  00:5FE6                      				;[Skip delay] 2
    4221.  00:5FE6  6D                  	db $6D		;[Volume] 13
    4222.  00:5FE7  A7 76               	db $A7, $76		;[CMD vibrato]
    4223.  00:5FE9  C0                  	db $C0		;[Wait] 1
    4224.  00:5FEA  B1 03               	db $B1, $03		;[CMD vibrato] rep
    4225.  00:5FEC  C2                  	db $C2		;[Wait] 3
    4226.  00:5FED  38                  	db $38		;[Note] 57
    4227.  00:5FEE  C1                  	db $C1		;[Wait] 2
    4228.  00:5FEF  36                  	db $36		;[Note] 55
    4229.  00:5FF0                      				;[Skip delay] 2
    4230.  00:5FF0  35                  	db $35		;[Note] 54
    4231.  00:5FF1  6C                  	db $6C		;[Volume] 12
    4232.  00:5FF2  C3                  	db $C3		;[Wait] 4
    4233.  00:5FF3  6D                  	db $6D		;[Volume] 13
    4234.  00:5FF4  A7 78               	db $A7, $78		;[CMD vibrato]
    4235.  00:5FF6  C0                  	db $C0		;[Wait] 1
    4236.  00:5FF7  B1 03               	db $B1, $03		;[CMD vibrato] rep
    4237.  00:5FF9  C2                  	db $C2		;[Wait] 3
    4238.  00:5FFA  6E                  	db $6E		;[Volume] 14
    4239.  00:5FFB  A7 77               	db $A7, $77		;[CMD vibrato]
    4240.  00:5FFD  C0                  	db $C0		;[Wait] 1
    4241.  00:5FFE  6D                  	db $6D		;[Volume] 13
    4242.  00:5FFF  B1 03               	db $B1, $03		;[CMD vibrato] rep
    4243.  00:6001                      				;[Skip delay] 1
    4244.  00:6001  6C                  	db $6C		;[Volume] 12
    4245.  00:6002                      				;[Skip delay] 1
    4246.  00:6002  6B                  	db $6B		;[Volume] 11
    4247.  00:6003                      				;[Skip delay] 1
    4248.  00:6003  BF                  	db $BF		;[End-Of-Track]
    4249.  00:6004                      .track_64:
    4250.  00:6004  22                  	db $22		;[Note] 35
    4251.  00:6005  6F                  	db $6F		;[Volume] 15
    4252.  00:6006  7F                  	db $7F		;[Instrument] 16
    4253.  00:6007  91 05               	db $91, $05		;[FM drum] 6
    4254.  00:6009  C1                  	db $C1		;[Wait] 2
    4255.  00:600A  91 01               	db $91, $01		;[FM drum] 1
    4256.  00:600C                      				;[Skip delay] 2
    4257.  00:600C  91 04               	db $91, $04		;[FM drum] 5
    4258.  00:600E  C3                  	db $C3		;[Wait] 4
    4259.  00:600F  91 03               	db $91, $03		;[FM drum] 4
    4260.  00:6011  C1                  	db $C1		;[Wait] 2
    4261.  00:6012  91 01               	db $91, $01		;[FM drum] 1
    4262.  00:6014                      				;[Skip delay] 2
    4263.  00:6014  91 04               	db $91, $04		;[FM drum] 5
    4264.  00:6016  C3                  	db $C3		;[Wait] 4
    4265.  00:6017  26                  	db $26		;[Note] 39
    4266.  00:6018  78                  	db $78		;[Instrument] 9
    4267.  00:6019  91 02               	db $91, $02		;[FM drum] 2
    4268.  00:601B  C1                  	db $C1		;[Wait] 2
    4269.  00:601C  26                  	db $26		;[Note] 39
    4270.  00:601D  69                  	db $69		;[Volume] 9
    4271.  00:601E                      				;[Skip delay] 2
    4272.  00:601E  25                  	db $25		;[Note] 38
    4273.  00:601F  6F                  	db $6F		;[Volume] 15
    4274.  00:6020  7F                  	db $7F		;[Instrument] 16
    4275.  00:6021  91 01               	db $91, $01		;[FM drum] 1
    4276.  00:6023  C3                  	db $C3		;[Wait] 4
    4277.  00:6024  91 03               	db $91, $03		;[FM drum] 4
    4278.  00:6026                      				;[Skip delay] 4
    4279.  00:6026  23                  	db $23		;[Note] 36
    4280.  00:6027  C1                  	db $C1		;[Wait] 2
    4281.  00:6028  25                  	db $25		;[Note] 38
    4282.  00:6029  6C                  	db $6C		;[Volume] 12
    4283.  00:602A  99                  	db $99			;Note link
    4284.  00:602B                      				;[Skip delay] 2
    4285.  00:602B  22                  	db $22		;[Note] 35
    4286.  00:602C  91 07               	db $91, $07		;[FM drum] 12
    4287.  00:602E                      				;[Skip delay] 2
    4288.  00:602E  91 01               	db $91, $01		;[FM drum] 1
    4289.  00:6030                      				;[Skip delay] 2
    4290.  00:6030  91 04               	db $91, $04		;[FM drum] 5
    4291.  00:6032  C3                  	db $C3		;[Wait] 4
    4292.  00:6033  91 03               	db $91, $03		;[FM drum] 4
    4293.  00:6035  C1                  	db $C1		;[Wait] 2
    4294.  00:6036  91 01               	db $91, $01		;[FM drum] 1
    4295.  00:6038                      				;[Skip delay] 2
    4296.  00:6038  91 04               	db $91, $04		;[FM drum] 5
    4297.  00:603A  C3                  	db $C3		;[Wait] 4
    4298.  00:603B  26                  	db $26		;[Note] 39
    4299.  00:603C  6F                  	db $6F		;[Volume] 15
    4300.  00:603D  78                  	db $78		;[Instrument] 9
    4301.  00:603E  91 02               	db $91, $02		;[FM drum] 2
    4302.  00:6040  C1                  	db $C1		;[Wait] 2
    4303.  00:6041  26                  	db $26		;[Note] 39
    4304.  00:6042  69                  	db $69		;[Volume] 9
    4305.  00:6043                      				;[Skip delay] 2
    4306.  00:6043  1D                  	db $1D		;[Note] 30
    4307.  00:6044  6F                  	db $6F		;[Volume] 15
    4308.  00:6045  7F                  	db $7F		;[Instrument] 16
    4309.  00:6046  91 01               	db $91, $01		;[FM drum] 1
    4310.  00:6048  C3                  	db $C3		;[Wait] 4
    4311.  00:6049  91 03               	db $91, $03		;[FM drum] 4
    4312.  00:604B                      				;[Skip delay] 4
    4313.  00:604B  1B                  	db $1B		;[Note] 28
    4314.  00:604C  C1                  	db $C1		;[Wait] 2
    4315.  00:604D  22                  	db $22		;[Note] 35
    4316.  00:604E  6C                  	db $6C		;[Volume] 12
    4317.  00:604F  99                  	db $99			;Note link
    4318.  00:6050                      				;[Skip delay] 2
    4319.  00:6050  BF                  	db $BF		;[End-Of-Track]
    4320.  00:6051                      .track_65:
    4321.  00:6051  17                  	db $17		;[Note] 24
    4322.  00:6052  6A                  	db $6A		;[Volume] 10
    4323.  00:6053  C1                  	db $C1		;[Wait] 2
    4324.  00:6054  0B                  	db $0B		;[Note] 12
    4325.  00:6055  C0                  	db $C0		;[Wait] 1
    4326.  00:6056  17                  	db $17		;[Note] 24
    4327.  00:6057  67                  	db $67		;[Volume] 7
    4328.  00:6058  95 00               	db $95, $00		; track detune
    4329.  00:605A  C1                  	db $C1		;[Wait] 2
    4330.  00:605B  0B                  	db $0B		;[Note] 12
    4331.  00:605C  C0                  	db $C0		;[Wait] 1
    4332.  00:605D  0B                  	db $0B		;[Note] 12
    4333.  00:605E  6A                  	db $6A		;[Volume] 10
    4334.  00:605F  95 03               	db $95, $03		; track detune
    4335.  00:6061  C2                  	db $C2		;[Wait] 3
    4336.  00:6062  0B                  	db $0B		;[Note] 12
    4337.  00:6063  67                  	db $67		;[Volume] 7
    4338.  00:6064  C0                  	db $C0		;[Wait] 1
    4339.  00:6065  0F                  	db $0F		;[Note] 16
    4340.  00:6066  6A                  	db $6A		;[Volume] 10
    4341.  00:6067                      				;[Skip delay] 1
    4342.  00:6067  60                  	db $60		;[Note] 97
    4343.  00:6068                      				;[Skip delay] 1
    4344.  00:6068  0B                  	db $0B		;[Note] 12
    4345.  00:6069                      				;[Skip delay] 1
    4346.  00:6069  60                  	db $60		;[Note] 97
    4347.  00:606A                      				;[Skip delay] 1
    4348.  00:606A  16                  	db $16		;[Note] 23
    4349.  00:606B                      				;[Skip delay] 1
    4350.  00:606B  17                  	db $17		;[Note] 24
    4351.  00:606C  C6                  	db $C6		;[Wait] 7
    4352.  00:606D  A7 75               	db $A7, $75		;[CMD vibrato]
    4353.  00:606F  C0                  	db $C0		;[Wait] 1
    4354.  00:6070  B1 09               	db $B1, $09		;[CMD vibrato] rep
    4355.  00:6072  C8                  	db $C8		;[Wait] 9
    4356.  00:6073  1D                  	db $1D		;[Note] 30
    4357.  00:6074  C1                  	db $C1		;[Wait] 2
    4358.  00:6075  11                  	db $11		;[Note] 18
    4359.  00:6076  C0                  	db $C0		;[Wait] 1
    4360.  00:6077  1D                  	db $1D		;[Note] 30
    4361.  00:6078  67                  	db $67		;[Volume] 7
    4362.  00:6079  95 00               	db $95, $00		; track detune
    4363.  00:607B  C1                  	db $C1		;[Wait] 2
    4364.  00:607C  11                  	db $11		;[Note] 18
    4365.  00:607D  C0                  	db $C0		;[Wait] 1
    4366.  00:607E  11                  	db $11		;[Note] 18
    4367.  00:607F  6A                  	db $6A		;[Volume] 10
    4368.  00:6080  95 03               	db $95, $03		; track detune
    4369.  00:6082  C2                  	db $C2		;[Wait] 3
    4370.  00:6083  11                  	db $11		;[Note] 18
    4371.  00:6084  67                  	db $67		;[Volume] 7
    4372.  00:6085  95 00               	db $95, $00		; track detune
    4373.  00:6087  C0                  	db $C0		;[Wait] 1
    4374.  00:6088  0F                  	db $0F		;[Note] 16
    4375.  00:6089  6A                  	db $6A		;[Volume] 10
    4376.  00:608A  95 03               	db $95, $03		; track detune
    4377.  00:608C                      				;[Skip delay] 1
    4378.  00:608C  60                  	db $60		;[Note] 97
    4379.  00:608D                      				;[Skip delay] 1
    4380.  00:608D  11                  	db $11		;[Note] 18
    4381.  00:608E                      				;[Skip delay] 1
    4382.  00:608E  60                  	db $60		;[Note] 97
    4383.  00:608F                      				;[Skip delay] 1
    4384.  00:608F  1B                  	db $1B		;[Note] 28
    4385.  00:6090                      				;[Skip delay] 1
    4386.  00:6090  1D                  	db $1D		;[Note] 30
    4387.  00:6091  D0                  	db $D0		;[Wait] 17
    4388.  00:6092  BF                  	db $BF		;[End-Of-Track]
    4389.  00:6093                      .track_66:
    4390.  00:6093  17                  	db $17		;[Note] 24
    4391.  00:6094  6F                  	db $6F		;[Volume] 15
    4392.  00:6095  C1                  	db $C1		;[Wait] 2
    4393.  00:6096  0B                  	db $0B		;[Note] 12
    4394.  00:6097  C0                  	db $C0		;[Wait] 1
    4395.  00:6098  17                  	db $17		;[Note] 24
    4396.  00:6099  6B                  	db $6B		;[Volume] 11
    4397.  00:609A  95 02               	db $95, $02		; track detune
    4398.  00:609C  C1                  	db $C1		;[Wait] 2
    4399.  00:609D  0B                  	db $0B		;[Note] 12
    4400.  00:609E  C0                  	db $C0		;[Wait] 1
    4401.  00:609F  0B                  	db $0B		;[Note] 12
    4402.  00:60A0  6F                  	db $6F		;[Volume] 15
    4403.  00:60A1  95 00               	db $95, $00		; track detune
    4404.  00:60A3  C2                  	db $C2		;[Wait] 3
    4405.  00:60A4  0B                  	db $0B		;[Note] 12
    4406.  00:60A5  6B                  	db $6B		;[Volume] 11
    4407.  00:60A6  95 03               	db $95, $03		; track detune
    4408.  00:60A8  C0                  	db $C0		;[Wait] 1
    4409.  00:60A9  0F                  	db $0F		;[Note] 16
    4410.  00:60AA  6F                  	db $6F		;[Volume] 15
    4411.  00:60AB  95 00               	db $95, $00		; track detune
    4412.  00:60AD                      				;[Skip delay] 1
    4413.  00:60AD  60                  	db $60		;[Note] 97
    4414.  00:60AE                      				;[Skip delay] 1
    4415.  00:60AE  0B                  	db $0B		;[Note] 12
    4416.  00:60AF                      				;[Skip delay] 1
    4417.  00:60AF  60                  	db $60		;[Note] 97
    4418.  00:60B0                      				;[Skip delay] 1
    4419.  00:60B0  16                  	db $16		;[Note] 23
    4420.  00:60B1  A6 0C               	db $A6, $0C		; tone-slide
    4421.  00:60B3                      				;[Skip delay] 1
    4422.  00:60B3  17                  	db $17		;[Note] 24
    4423.  00:60B4  B0 03               	db $B0, $03		; tone-slide rep
    4424.  00:60B6  C6                  	db $C6		;[Wait] 7
    4425.  00:60B7  A7 75               	db $A7, $75		;[CMD vibrato]
    4426.  00:60B9  C0                  	db $C0		;[Wait] 1
    4427.  00:60BA  B1 09               	db $B1, $09		;[CMD vibrato] rep
    4428.  00:60BC  C8                  	db $C8		;[Wait] 9
    4429.  00:60BD  1D                  	db $1D		;[Note] 30
    4430.  00:60BE  C1                  	db $C1		;[Wait] 2
    4431.  00:60BF  11                  	db $11		;[Note] 18
    4432.  00:60C0  C0                  	db $C0		;[Wait] 1
    4433.  00:60C1  1D                  	db $1D		;[Note] 30
    4434.  00:60C2  6B                  	db $6B		;[Volume] 11
    4435.  00:60C3  95 02               	db $95, $02		; track detune
    4436.  00:60C5  C1                  	db $C1		;[Wait] 2
    4437.  00:60C6  11                  	db $11		;[Note] 18
    4438.  00:60C7  C0                  	db $C0		;[Wait] 1
    4439.  00:60C8  11                  	db $11		;[Note] 18
    4440.  00:60C9  6F                  	db $6F		;[Volume] 15
    4441.  00:60CA  95 00               	db $95, $00		; track detune
    4442.  00:60CC  C2                  	db $C2		;[Wait] 3
    4443.  00:60CD  11                  	db $11		;[Note] 18
    4444.  00:60CE  6B                  	db $6B		;[Volume] 11
    4445.  00:60CF  95 03               	db $95, $03		; track detune
    4446.  00:60D1  C0                  	db $C0		;[Wait] 1
    4447.  00:60D2  0F                  	db $0F		;[Note] 16
    4448.  00:60D3  6F                  	db $6F		;[Volume] 15
    4449.  00:60D4  95 00               	db $95, $00		; track detune
    4450.  00:60D6                      				;[Skip delay] 1
    4451.  00:60D6  60                  	db $60		;[Note] 97
    4452.  00:60D7                      				;[Skip delay] 1
    4453.  00:60D7  11                  	db $11		;[Note] 18
    4454.  00:60D8                      				;[Skip delay] 1
    4455.  00:60D8  60                  	db $60		;[Note] 97
    4456.  00:60D9                      				;[Skip delay] 1
    4457.  00:60D9  1B                  	db $1B		;[Note] 28
    4458.  00:60DA  A6 0A               	db $A6, $0A		; tone-slide
    4459.  00:60DC                      				;[Skip delay] 1
    4460.  00:60DC  1D                  	db $1D		;[Note] 30
    4461.  00:60DD  B0 03               	db $B0, $03		; tone-slide rep
    4462.  00:60DF  C6                  	db $C6		;[Wait] 7
    4463.  00:60E0  A7 75               	db $A7, $75		;[CMD vibrato]
    4464.  00:60E2  C0                  	db $C0		;[Wait] 1
    4465.  00:60E3  B1 09               	db $B1, $09		;[CMD vibrato] rep
    4466.  00:60E5  C8                  	db $C8		;[Wait] 9
    4467.  00:60E6  BF                  	db $BF		;[End-Of-Track]
    4468.  00:60E7                      .track_67:
    4469.  00:60E7  3F                  	db $3F		;[Note] 64
    4470.  00:60E8  68                  	db $68		;[Volume] 8
    4471.  00:60E9  C0                  	db $C0		;[Wait] 1
    4472.  00:60EA  69                  	db $69		;[Volume] 9
    4473.  00:60EB                      				;[Skip delay] 1
    4474.  00:60EB  6A                  	db $6A		;[Volume] 10
    4475.  00:60EC                      				;[Skip delay] 1
    4476.  00:60EC  6B                  	db $6B		;[Volume] 11
    4477.  00:60ED                      				;[Skip delay] 1
    4478.  00:60ED  6C                  	db $6C		;[Volume] 12
    4479.  00:60EE  A7 78               	db $A7, $78		;[CMD vibrato]
    4480.  00:60F0                      				;[Skip delay] 1
    4481.  00:60F0  B1 07               	db $B1, $07		;[CMD vibrato] rep
    4482.  00:60F2  C6                  	db $C6		;[Wait] 7
    4483.  00:60F3  A7 77               	db $A7, $77		;[CMD vibrato]
    4484.  00:60F5  C0                  	db $C0		;[Wait] 1
    4485.  00:60F6  B1 07               	db $B1, $07		;[CMD vibrato] rep
    4486.  00:60F8  C2                  	db $C2		;[Wait] 3
    4487.  00:60F9  6D                  	db $6D		;[Volume] 13
    4488.  00:60FA  C3                  	db $C3		;[Wait] 4
    4489.  00:60FB  A7 76               	db $A7, $76		;[CMD vibrato]
    4490.  00:60FD  C0                  	db $C0		;[Wait] 1
    4491.  00:60FE  B1 13               	db $B1, $13		;[CMD vibrato] rep
    4492.  00:6100  CA                  	db $CA		;[Wait] 11
    4493.  00:6101  6C                  	db $6C		;[Volume] 12
    4494.  00:6102  C7                  	db $C7		;[Wait] 8
    4495.  00:6103  A7 77               	db $A7, $77		;[CMD vibrato]
    4496.  00:6105  C0                  	db $C0		;[Wait] 1
    4497.  00:6106  B1 03               	db $B1, $03		;[CMD vibrato] rep
    4498.  00:6108  C2                  	db $C2		;[Wait] 3
    4499.  00:6109  A7 78               	db $A7, $78		;[CMD vibrato]
    4500.  00:610B  C0                  	db $C0		;[Wait] 1
    4501.  00:610C  B1 03               	db $B1, $03		;[CMD vibrato] rep
    4502.  00:610E  C2                  	db $C2		;[Wait] 3
    4503.  00:610F  3A                  	db $3A		;[Note] 59
    4504.  00:6110  C3                  	db $C3		;[Wait] 4
    4505.  00:6111  A7 77               	db $A7, $77		;[CMD vibrato]
    4506.  00:6113  C0                  	db $C0		;[Wait] 1
    4507.  00:6114  B1 03               	db $B1, $03		;[CMD vibrato] rep
    4508.  00:6116  C2                  	db $C2		;[Wait] 3
    4509.  00:6117  6D                  	db $6D		;[Volume] 13
    4510.  00:6118  A7 76               	db $A7, $76		;[CMD vibrato]
    4511.  00:611A  C0                  	db $C0		;[Wait] 1
    4512.  00:611B  B1 03               	db $B1, $03		;[CMD vibrato] rep
    4513.  00:611D  C2                  	db $C2		;[Wait] 3
    4514.  00:611E  6E                  	db $6E		;[Volume] 14
    4515.  00:611F  A7 75               	db $A7, $75		;[CMD vibrato]
    4516.  00:6121  C0                  	db $C0		;[Wait] 1
    4517.  00:6122  B1 03               	db $B1, $03		;[CMD vibrato] rep
    4518.  00:6124  C2                  	db $C2		;[Wait] 3
    4519.  00:6125  BF                  	db $BF		;[End-Of-Track]
    4520.  00:6126                      .track_68:
    4521.  00:6126  2E                  	db $2E		;[Note] 47
    4522.  00:6127  6D                  	db $6D		;[Volume] 13
    4523.  00:6128  75                  	db $75		;[Instrument] 6
    4524.  00:6129  C1                  	db $C1		;[Wait] 2
    4525.  00:612A  6E                  	db $6E		;[Volume] 14
    4526.  00:612B  A7 75               	db $A7, $75		;[CMD vibrato]
    4527.  00:612D  C0                  	db $C0		;[Wait] 1
    4528.  00:612E  B1 11               	db $B1, $11		;[CMD vibrato] rep
    4529.  00:6130                      				;[Skip delay] 1
    4530.  00:6130  6F                  	db $6F		;[Volume] 15
    4531.  00:6131  CF                  	db $CF		;[Wait] 16
    4532.  00:6132  31                  	db $31		;[Note] 50
    4533.  00:6133  C3                  	db $C3		;[Wait] 4
    4534.  00:6134  A7 75               	db $A7, $75		;[CMD vibrato]
    4535.  00:6136  C0                  	db $C0		;[Wait] 1
    4536.  00:6137  B1 03               	db $B1, $03		;[CMD vibrato] rep
    4537.  00:6139  C2                  	db $C2		;[Wait] 3
    4538.  00:613A  2F                  	db $2F		;[Note] 48
    4539.  00:613B  C1                  	db $C1		;[Wait] 2
    4540.  00:613C  31                  	db $31		;[Note] 50
    4541.  00:613D  69                  	db $69		;[Volume] 9
    4542.  00:613E                      				;[Skip delay] 2
    4543.  00:613E  2E                  	db $2E		;[Note] 47
    4544.  00:613F  6D                  	db $6D		;[Volume] 13
    4545.  00:6140                      				;[Skip delay] 2
    4546.  00:6140  6E                  	db $6E		;[Volume] 14
    4547.  00:6141  A7 75               	db $A7, $75		;[CMD vibrato]
    4548.  00:6143  C0                  	db $C0		;[Wait] 1
    4549.  00:6144  B1 11               	db $B1, $11		;[CMD vibrato] rep
    4550.  00:6146                      				;[Skip delay] 1
    4551.  00:6146  6F                  	db $6F		;[Volume] 15
    4552.  00:6147  CF                  	db $CF		;[Wait] 16
    4553.  00:6148  29                  	db $29		;[Note] 42
    4554.  00:6149  C0                  	db $C0		;[Wait] 1
    4555.  00:614A  99                  	db $99			;Note link
    4556.  00:614B                      				;[Skip delay] 1
    4557.  00:614B  99                  	db $99			;Note link
    4558.  00:614C  C1                  	db $C1		;[Wait] 2
    4559.  00:614D  A7 75               	db $A7, $75		;[CMD vibrato]
    4560.  00:614F  C0                  	db $C0		;[Wait] 1
    4561.  00:6150  B1 03               	db $B1, $03		;[CMD vibrato] rep
    4562.  00:6152  C1                  	db $C1		;[Wait] 2
    4563.  00:6153  6D                  	db $6D		;[Volume] 13
    4564.  00:6154  C0                  	db $C0		;[Wait] 1
    4565.  00:6155  27                  	db $27		;[Note] 40
    4566.  00:6156  6F                  	db $6F		;[Volume] 15
    4567.  00:6157  C1                  	db $C1		;[Wait] 2
    4568.  00:6158  69                  	db $69		;[Volume] 9
    4569.  00:6159                      				;[Skip delay] 2
    4570.  00:6159  BF                  	db $BF		;[End-Of-Track]
    4571.  00:615A                      .track_69:
    4572.  00:615A  60                  	db $60		;[Note] 97
    4573.  00:615B  C2                  	db $C2		;[Wait] 3
    4574.  00:615C  2E                  	db $2E		;[Note] 47
    4575.  00:615D  6D                  	db $6D		;[Volume] 13
    4576.  00:615E  75                  	db $75		;[Instrument] 6
    4577.  00:615F  95 01               	db $95, $01		; track detune
    4578.  00:6161  C1                  	db $C1		;[Wait] 2
    4579.  00:6162  A7 76               	db $A7, $76		;[CMD vibrato]
    4580.  00:6164  C0                  	db $C0		;[Wait] 1
    4581.  00:6165  B1 11               	db $B1, $11		;[CMD vibrato] rep
    4582.  00:6167  D0                  	db $D0		;[Wait] 17
    4583.  00:6168  31                  	db $31		;[Note] 50
    4584.  00:6169  C3                  	db $C3		;[Wait] 4
    4585.  00:616A  A7 76               	db $A7, $76		;[CMD vibrato]
    4586.  00:616C  C0                  	db $C0		;[Wait] 1
    4587.  00:616D  B1 03               	db $B1, $03		;[CMD vibrato] rep
    4588.  00:616F  C2                  	db $C2		;[Wait] 3
    4589.  00:6170  2F                  	db $2F		;[Note] 48
    4590.  00:6171  C1                  	db $C1		;[Wait] 2
    4591.  00:6172  31                  	db $31		;[Note] 50
    4592.  00:6173  6A                  	db $6A		;[Volume] 10
    4593.  00:6174                      				;[Skip delay] 2
    4594.  00:6174  2E                  	db $2E		;[Note] 47
    4595.  00:6175  6D                  	db $6D		;[Volume] 13
    4596.  00:6176  C1                  	db $C1		;[Wait..] 2
    4597.  00:6177  A7 76               	db $A7, $76		;[CMD vibrato]
    4598.  00:6179  C0                  	db $C0		;[Wait] 1
    4599.  00:617A  B1 11               	db $B1, $11		;[CMD vibrato] rep
    4600.  00:617C  D0                  	db $D0		;[Wait] 17
    4601.  00:617D  29                  	db $29		;[Note] 42
    4602.  00:617E  C0                  	db $C0		;[Wait] 1
    4603.  00:617F  99                  	db $99			;Note link
    4604.  00:6180                      				;[Skip delay] 1
    4605.  00:6180  99                  	db $99			;Note link
    4606.  00:6181  C1                  	db $C1		;[Wait] 2
    4607.  00:6182  A7 76               	db $A7, $76		;[CMD vibrato]
    4608.  00:6184  C0                  	db $C0		;[Wait] 1
    4609.  00:6185  B1 03               	db $B1, $03		;[CMD vibrato] rep
    4610.  00:6187  C1                  	db $C1		;[Wait] 2
    4611.  00:6188  6B                  	db $6B		;[Volume] 11
    4612.  00:6189  C0                  	db $C0		;[Wait] 1
    4613.  00:618A  27                  	db $27		;[Note] 40
    4614.  00:618B  6D                  	db $6D		;[Volume] 13
    4615.  00:618C                      				;[Skip delay] 1
    4616.  00:618C  BF                  	db $BF		;[End-Of-Track]
    4617.  00:618D                      .track_70:
    4618.  00:618D  1D                  	db $1D		;[Note] 30
    4619.  00:618E  6F                  	db $6F		;[Volume] 15
    4620.  00:618F  7F                  	db $7F		;[Instrument] 16
    4621.  00:6190  91 05               	db $91, $05		;[FM drum] 6
    4622.  00:6192  C1                  	db $C1		;[Wait] 2
    4623.  00:6193  1B                  	db $1B		;[Note] 28
    4624.  00:6194  99                  	db $99			;Note link
    4625.  00:6195                      				;[Skip delay] 2
    4626.  00:6195  1D                  	db $1D		;[Note] 30
    4627.  00:6196  99                  	db $99			;Note link
    4628.  00:6197  C3                  	db $C3		;[Wait] 4
    4629.  00:6198  91 03               	db $91, $03		;[FM drum] 4
    4630.  00:619A  C7                  	db $C7		;[Wait] 8
    4631.  00:619B  26                  	db $26		;[Note] 39
    4632.  00:619C  78                  	db $78		;[Instrument] 9
    4633.  00:619D  91 02               	db $91, $02		;[FM drum] 2
    4634.  00:619F  C1                  	db $C1		;[Wait] 2
    4635.  00:61A0  26                  	db $26		;[Note] 39
    4636.  00:61A1  69                  	db $69		;[Volume] 9
    4637.  00:61A2  C5                  	db $C5		;[Wait] 6
    4638.  00:61A3  23                  	db $23		;[Note] 36
    4639.  00:61A4  6F                  	db $6F		;[Volume] 15
    4640.  00:61A5  7F                  	db $7F		;[Instrument] 16
    4641.  00:61A6  91 03               	db $91, $03		;[FM drum] 4
    4642.  00:61A8  C3                  	db $C3		;[Wait] 4
    4643.  00:61A9  91 01               	db $91, $01		;[FM drum] 1
    4644.  00:61AB  C1                  	db $C1		;[Wait] 2
    4645.  00:61AC  91 04               	db $91, $04		;[FM drum] 5
    4646.  00:61AE                      				;[Skip delay] 2
    4647.  00:61AE  22                  	db $22		;[Note] 35
    4648.  00:61AF  91 05               	db $91, $05		;[FM drum] 6
    4649.  00:61B1                      				;[Skip delay] 2
    4650.  00:61B1  20                  	db $20		;[Note] 33
    4651.  00:61B2  99                  	db $99			;Note link
    4652.  00:61B3                      				;[Skip delay] 2
    4653.  00:61B3  22                  	db $22		;[Note] 35
    4654.  00:61B4  99                  	db $99			;Note link
    4655.  00:61B5  C3                  	db $C3		;[Wait] 4
    4656.  00:61B6  91 03               	db $91, $03		;[FM drum] 4
    4657.  00:61B8  C1                  	db $C1		;[Wait] 2
    4658.  00:61B9  26                  	db $26		;[Note] 39
    4659.  00:61BA                      				;[Skip delay] 2
    4660.  00:61BA  24                  	db $24		;[Note] 37
    4661.  00:61BB  99                  	db $99			;Note link
    4662.  00:61BC                      				;[Skip delay] 2
    4663.  00:61BC  26                  	db $26		;[Note] 39
    4664.  00:61BD  99                  	db $99			;Note link
    4665.  00:61BE                      				;[Skip delay] 2
    4666.  00:61BE  26                  	db $26		;[Note] 39
    4667.  00:61BF  78                  	db $78		;[Instrument] 9
    4668.  00:61C0                      				;[Skip delay] 2
    4669.  00:61C0  26                  	db $26		;[Note] 39
    4670.  00:61C1  69                  	db $69		;[Volume] 9
    4671.  00:61C2  C5                  	db $C5		;[Wait] 6
    4672.  00:61C3  91 06               	db $91, $06		;[FM drum] 11
    4673.  00:61C5  C3                  	db $C3		;[Wait] 4
    4674.  00:61C6  26                  	db $26		;[Note] 39
    4675.  00:61C7  6F                  	db $6F		;[Volume] 15
    4676.  00:61C8  91 02               	db $91, $02		;[FM drum] 2
    4677.  00:61CA  C1                  	db $C1		;[Wait] 2
    4678.  00:61CB  26                  	db $26		;[Note] 39
    4679.  00:61CC  69                  	db $69		;[Volume] 9
    4680.  00:61CD                      				;[Skip delay] 2
    4681.  00:61CD  BF                  	db $BF		;[End-Of-Track]
    4682.  00:61CE                      .track_71:
    4683.  00:61CE  22                  	db $22		;[Note] 35
    4684.  00:61CF  C1                  	db $C1		;[Wait] 2
    4685.  00:61D0  16                  	db $16		;[Note] 23
    4686.  00:61D1  91 01               	db $91, $01		;[FM drum] 1
    4687.  00:61D3  C0                  	db $C0		;[Wait] 1
    4688.  00:61D4  22                  	db $22		;[Note] 35
    4689.  00:61D5  67                  	db $67		;[Volume] 7
    4690.  00:61D6  95 00               	db $95, $00		; track detune
    4691.  00:61D8  C1                  	db $C1		;[Wait] 2
    4692.  00:61D9  16                  	db $16		;[Note] 23
    4693.  00:61DA  C0                  	db $C0		;[Wait] 1
    4694.  00:61DB  16                  	db $16		;[Note] 23
    4695.  00:61DC  6A                  	db $6A		;[Volume] 10
    4696.  00:61DD  95 03               	db $95, $03		; track detune
    4697.  00:61DF  C1                  	db $C1		;[Wait] 2
    4698.  00:61E0  14                  	db $14		;[Note] 21
    4699.  00:61E1  C0                  	db $C0		;[Wait] 1
    4700.  00:61E2  60                  	db $60		;[Note] 97
    4701.  00:61E3                      				;[Skip delay] 1
    4702.  00:61E3  1A                  	db $1A		;[Note] 27
    4703.  00:61E4                      				;[Skip delay] 1
    4704.  00:61E4  60                  	db $60		;[Note] 97
    4705.  00:61E5                      				;[Skip delay] 1
    4706.  00:61E5  14                  	db $14		;[Note] 21
    4707.  00:61E6                      				;[Skip delay] 1
    4708.  00:61E6  60                  	db $60		;[Note] 97
    4709.  00:61E7                      				;[Skip delay] 1
    4710.  00:61E7  1D                  	db $1D		;[Note] 30
    4711.  00:61E8                      				;[Skip delay] 1
    4712.  00:61E8  20                  	db $20		;[Note] 33
    4713.  00:61E9  C1                  	db $C1		;[Wait] 2
    4714.  00:61EA  60                  	db $60		;[Note] 97
    4715.  00:61EB  C0                  	db $C0		;[Wait] 1
    4716.  00:61EC  1D                  	db $1D		;[Note] 30
    4717.  00:61ED  C2                  	db $C2		;[Wait] 3
    4718.  00:61EE  1D                  	db $1D		;[Note] 30
    4719.  00:61EF  67                  	db $67		;[Volume] 7
    4720.  00:61F0  95 00               	db $95, $00		; track detune
    4721.  00:61F2  C0                  	db $C0		;[Wait] 1
    4722.  00:61F3  22                  	db $22		;[Note] 35
    4723.  00:61F4  6A                  	db $6A		;[Volume] 10
    4724.  00:61F5  95 03               	db $95, $03		; track detune
    4725.  00:61F7  C1                  	db $C1		;[Wait] 2
    4726.  00:61F8  14                  	db $14		;[Note] 21
    4727.  00:61F9                      				;[Skip delay] 2
    4728.  00:61F9  16                  	db $16		;[Note] 23
    4729.  00:61FA  C0                  	db $C0		;[Wait] 1
    4730.  00:61FB  60                  	db $60		;[Note] 97
    4731.  00:61FC                      				;[Skip delay] 1
    4732.  00:61FC  19                  	db $19		;[Note] 26
    4733.  00:61FD                      				;[Skip delay] 1
    4734.  00:61FD  60                  	db $60		;[Note] 97
    4735.  00:61FE                      				;[Skip delay] 1
    4736.  00:61FE  16                  	db $16		;[Note] 23
    4737.  00:61FF                      				;[Skip delay] 1
    4738.  00:61FF  60                  	db $60		;[Note] 97
    4739.  00:6200                      				;[Skip delay] 1
    4740.  00:6200  22                  	db $22		;[Note] 35
    4741.  00:6201  C1                  	db $C1		;[Wait] 2
    4742.  00:6202  16                  	db $16		;[Note] 23
    4743.  00:6203  C0                  	db $C0		;[Wait] 1
    4744.  00:6204  22                  	db $22		;[Note] 35
    4745.  00:6205  67                  	db $67		;[Volume] 7
    4746.  00:6206  95 00               	db $95, $00		; track detune
    4747.  00:6208  C1                  	db $C1		;[Wait] 2
    4748.  00:6209  16                  	db $16		;[Note] 23
    4749.  00:620A  C0                  	db $C0		;[Wait] 1
    4750.  00:620B  16                  	db $16		;[Note] 23
    4751.  00:620C  6A                  	db $6A		;[Volume] 10
    4752.  00:620D  95 03               	db $95, $03		; track detune
    4753.  00:620F  C1                  	db $C1		;[Wait] 2
    4754.  00:6210  14                  	db $14		;[Note] 21
    4755.  00:6211  C0                  	db $C0		;[Wait] 1
    4756.  00:6212  60                  	db $60		;[Note] 97
    4757.  00:6213                      				;[Skip delay] 1
    4758.  00:6213  1A                  	db $1A		;[Note] 27
    4759.  00:6214                      				;[Skip delay] 1
    4760.  00:6214  60                  	db $60		;[Note] 97
    4761.  00:6215                      				;[Skip delay] 1
    4762.  00:6215  16                  	db $16		;[Note] 23
    4763.  00:6216                      				;[Skip delay] 1
    4764.  00:6216  60                  	db $60		;[Note] 97
    4765.  00:6217                      				;[Skip delay] 1
    4766.  00:6217  1E                  	db $1E		;[Note] 31
    4767.  00:6218                      				;[Skip delay] 1
    4768.  00:6218  20                  	db $20		;[Note] 33
    4769.  00:6219  C0                  	db $C0		;[Wait..] 1
    4770.  00:621A  91 02               	db $91, $02		;[FM drum] 2
    4771.  00:621C  C7                  	db $C7		;[Wait] 8
    4772.  00:621D  A5 01               	db $A5, $01		; slide-down
    4773.  00:621F  C0                  	db $C0		;[Wait] 1
    4774.  00:6220  AF 01               	db $AF, $01		; slide-down rep
    4775.  00:6222                      				;[Skip delay] 1
    4776.  00:6222  14                  	db $14		;[Note] 21
    4777.  00:6223  69                  	db $69		;[Volume] 9
    4778.  00:6224  C1                  	db $C1		;[Wait] 2
    4779.  00:6225  16                  	db $16		;[Note] 23
    4780.  00:6226                      				;[Skip delay] 2
    4781.  00:6226  17                  	db $17		;[Note] 24
    4782.  00:6227                      				;[Skip delay] 2
    4783.  00:6227  BF                  	db $BF		;[End-Of-Track]
    4784.  00:6228                      .track_72:
    4785.  00:6228  22                  	db $22		;[Note] 35
    4786.  00:6229  C1                  	db $C1		;[Wait] 2
    4787.  00:622A  16                  	db $16		;[Note] 23
    4788.  00:622B  C0                  	db $C0		;[Wait] 1
    4789.  00:622C  22                  	db $22		;[Note] 35
    4790.  00:622D  6B                  	db $6B		;[Volume] 11
    4791.  00:622E  95 02               	db $95, $02		; track detune
    4792.  00:6230  C1                  	db $C1		;[Wait] 2
    4793.  00:6231  16                  	db $16		;[Note] 23
    4794.  00:6232  C0                  	db $C0		;[Wait] 1
    4795.  00:6233  16                  	db $16		;[Note] 23
    4796.  00:6234  6F                  	db $6F		;[Volume] 15
    4797.  00:6235  95 00               	db $95, $00		; track detune
    4798.  00:6237  C1                  	db $C1		;[Wait] 2
    4799.  00:6238  14                  	db $14		;[Note] 21
    4800.  00:6239  C0                  	db $C0		;[Wait] 1
    4801.  00:623A  60                  	db $60		;[Note] 97
    4802.  00:623B                      				;[Skip delay] 1
    4803.  00:623B  1A                  	db $1A		;[Note] 27
    4804.  00:623C                      				;[Skip delay] 1
    4805.  00:623C  60                  	db $60		;[Note] 97
    4806.  00:623D                      				;[Skip delay] 1
    4807.  00:623D  14                  	db $14		;[Note] 21
    4808.  00:623E                      				;[Skip delay] 1
    4809.  00:623E  60                  	db $60		;[Note] 97
    4810.  00:623F                      				;[Skip delay] 1
    4811.  00:623F  1D                  	db $1D		;[Note] 30
    4812.  00:6240  A6 0D               	db $A6, $0D		; tone-slide
    4813.  00:6242                      				;[Skip delay] 1
    4814.  00:6242  20                  	db $20		;[Note] 33
    4815.  00:6243  B0 02               	db $B0, $02		; tone-slide rep
    4816.  00:6245  C1                  	db $C1		;[Wait] 2
    4817.  00:6246  60                  	db $60		;[Note] 97
    4818.  00:6247  C0                  	db $C0		;[Wait] 1
    4819.  00:6248  1D                  	db $1D		;[Note] 30
    4820.  00:6249  C2                  	db $C2		;[Wait] 3
    4821.  00:624A  1D                  	db $1D		;[Note] 30
    4822.  00:624B  6B                  	db $6B		;[Volume] 11
    4823.  00:624C  95 02               	db $95, $02		; track detune
    4824.  00:624E  C0                  	db $C0		;[Wait] 1
    4825.  00:624F  22                  	db $22		;[Note] 35
    4826.  00:6250  6F                  	db $6F		;[Volume] 15
    4827.  00:6251  95 00               	db $95, $00		; track detune
    4828.  00:6253  C1                  	db $C1		;[Wait] 2
    4829.  00:6254  14                  	db $14		;[Note] 21
    4830.  00:6255                      				;[Skip delay] 2
    4831.  00:6255  16                  	db $16		;[Note] 23
    4832.  00:6256  C0                  	db $C0		;[Wait] 1
    4833.  00:6257  60                  	db $60		;[Note] 97
    4834.  00:6258                      				;[Skip delay] 1
    4835.  00:6258  19                  	db $19		;[Note] 26
    4836.  00:6259                      				;[Skip delay] 1
    4837.  00:6259  60                  	db $60		;[Note] 97
    4838.  00:625A                      				;[Skip delay] 1
    4839.  00:625A  16                  	db $16		;[Note] 23
    4840.  00:625B                      				;[Skip delay] 1
    4841.  00:625B  60                  	db $60		;[Note] 97
    4842.  00:625C                      				;[Skip delay] 1
    4843.  00:625C  22                  	db $22		;[Note] 35
    4844.  00:625D  C1                  	db $C1		;[Wait] 2
    4845.  00:625E  16                  	db $16		;[Note] 23
    4846.  00:625F  C0                  	db $C0		;[Wait] 1
    4847.  00:6260  22                  	db $22		;[Note] 35
    4848.  00:6261  6B                  	db $6B		;[Volume] 11
    4849.  00:6262  95 02               	db $95, $02		; track detune
    4850.  00:6264  C1                  	db $C1		;[Wait] 2
    4851.  00:6265  16                  	db $16		;[Note] 23
    4852.  00:6266  C0                  	db $C0		;[Wait] 1
    4853.  00:6267  16                  	db $16		;[Note] 23
    4854.  00:6268  6F                  	db $6F		;[Volume] 15
    4855.  00:6269  95 00               	db $95, $00		; track detune
    4856.  00:626B  C1                  	db $C1		;[Wait] 2
    4857.  00:626C  14                  	db $14		;[Note] 21
    4858.  00:626D  C0                  	db $C0		;[Wait] 1
    4859.  00:626E  60                  	db $60		;[Note] 97
    4860.  00:626F                      				;[Skip delay] 1
    4861.  00:626F  1A                  	db $1A		;[Note] 27
    4862.  00:6270                      				;[Skip delay] 1
    4863.  00:6270  60                  	db $60		;[Note] 97
    4864.  00:6271                      				;[Skip delay] 1
    4865.  00:6271  16                  	db $16		;[Note] 23
    4866.  00:6272                      				;[Skip delay] 1
    4867.  00:6272  60                  	db $60		;[Note] 97
    4868.  00:6273                      				;[Skip delay] 1
    4869.  00:6273  1E                  	db $1E		;[Note] 31
    4870.  00:6274  A6 08               	db $A6, $08		; tone-slide
    4871.  00:6276                      				;[Skip delay] 1
    4872.  00:6276  20                  	db $20		;[Note] 33
    4873.  00:6277  B0 03               	db $B0, $03		; tone-slide rep
    4874.  00:6279  C4                  	db $C4		;[Wait] 5
    4875.  00:627A  A7 75               	db $A7, $75		;[CMD vibrato]
    4876.  00:627C  C0                  	db $C0		;[Wait] 1
    4877.  00:627D  B1 03               	db $B1, $03		;[CMD vibrato] rep
    4878.  00:627F  C2                  	db $C2		;[Wait] 3
    4879.  00:6280  A5 01               	db $A5, $01		; slide-down
    4880.  00:6282  C0                  	db $C0		;[Wait] 1
    4881.  00:6283  AF 01               	db $AF, $01		; slide-down rep
    4882.  00:6285                      				;[Skip delay] 1
    4883.  00:6285  14                  	db $14		;[Note] 21
    4884.  00:6286  C1                  	db $C1		;[Wait] 2
    4885.  00:6287  16                  	db $16		;[Note] 23
    4886.  00:6288                      				;[Skip delay] 2
    4887.  00:6288  17                  	db $17		;[Note] 24
    4888.  00:6289                      				;[Skip delay] 2
    4889.  00:6289  BF                  	db $BF		;[End-Of-Track]
    4890.  00:628A                      .track_73:
    4891.  00:628A  3E                  	db $3E		;[Note] 63
    4892.  00:628B  68                  	db $68		;[Volume] 8
    4893.  00:628C  C0                  	db $C0		;[Wait] 1
    4894.  00:628D  69                  	db $69		;[Volume] 9
    4895.  00:628E                      				;[Skip delay] 1
    4896.  00:628E  6A                  	db $6A		;[Volume] 10
    4897.  00:628F                      				;[Skip delay] 1
    4898.  00:628F  6B                  	db $6B		;[Volume] 11
    4899.  00:6290                      				;[Skip delay] 1
    4900.  00:6290  6C                  	db $6C		;[Volume] 12
    4901.  00:6291  A7 78               	db $A7, $78		;[CMD vibrato]
    4902.  00:6293                      				;[Skip delay] 1
    4903.  00:6293  B1 1B               	db $B1, $1B		;[CMD vibrato] rep
    4904.  00:6295  CA                  	db $CA		;[Wait] 11
    4905.  00:6296  6D                  	db $6D		;[Volume] 13
    4906.  00:6297  CF                  	db $CF		;[Wait] 16
    4907.  00:6298  47                  	db $47		;[Note] 72
    4908.  00:6299  6C                  	db $6C		;[Volume] 12
    4909.  00:629A  80                  	db $80		;[Instrument] 17
    4910.  00:629B  C1                  	db $C1		;[Wait] 2
    4911.  00:629C  46                  	db $46		;[Note] 71
    4912.  00:629D                      				;[Skip delay] 2
    4913.  00:629D  44                  	db $44		;[Note] 69
    4914.  00:629E                      				;[Skip delay] 2
    4915.  00:629E  46                  	db $46		;[Note] 71
    4916.  00:629F                      				;[Skip delay] 2
    4917.  00:629F  44                  	db $44		;[Note] 69
    4918.  00:62A0                      				;[Skip delay] 2
    4919.  00:62A0  46                  	db $46		;[Note] 71
    4920.  00:62A1                      				;[Skip delay] 2
    4921.  00:62A1  44                  	db $44		;[Note] 69
    4922.  00:62A2                      				;[Skip delay] 2
    4923.  00:62A2  42                  	db $42		;[Note] 67
    4924.  00:62A3                      				;[Skip delay] 2
    4925.  00:62A3  41                  	db $41		;[Note] 66
    4926.  00:62A4                      				;[Skip delay] 2
    4927.  00:62A4  42                  	db $42		;[Note] 67
    4928.  00:62A5                      				;[Skip delay] 2
    4929.  00:62A5  3E                  	db $3E		;[Note] 63
    4930.  00:62A6                      				;[Skip delay] 2
    4931.  00:62A6  3C                  	db $3C		;[Note] 61
    4932.  00:62A7                      				;[Skip delay] 2
    4933.  00:62A7  3E                  	db $3E		;[Note] 63
    4934.  00:62A8  C1                  	db $C1		;[Wait..] 2
    4935.  00:62A9  A7 75               	db $A7, $75		;[CMD vibrato]
    4936.  00:62AB  C0                  	db $C0		;[Wait] 1
    4937.  00:62AC  B1 01               	db $B1, $01		;[CMD vibrato] rep
    4938.  00:62AE                      				;[Skip delay] 1
    4939.  00:62AE  2E                  	db $2E		;[Note] 47
    4940.  00:62AF  C1                  	db $C1		;[Wait] 2
    4941.  00:62B0  69                  	db $69		;[Volume] 9
    4942.  00:62B1                      				;[Skip delay] 2
    4943.  00:62B1  BF                  	db $BF		;[End-Of-Track]
    4944.  00:62B2                      .track_74:
    4945.  00:62B2  29                  	db $29		;[Note] 42
    4946.  00:62B3  6F                  	db $6F		;[Volume] 15
    4947.  00:62B4  C1                  	db $C1		;[Wait] 2
    4948.  00:62B5  27                  	db $27		;[Note] 40
    4949.  00:62B6                      				;[Skip delay] 2
    4950.  00:62B6  29                  	db $29		;[Note] 42
    4951.  00:62B7  C1                  	db $C1		;[Wait..] 2
    4952.  00:62B8  A7 75               	db $A7, $75		;[CMD vibrato]
    4953.  00:62BA  C0                  	db $C0		;[Wait] 1
    4954.  00:62BB  B1 11               	db $B1, $11		;[CMD vibrato] rep
    4955.  00:62BD  CC                  	db $CC		;[Wait] 13
    4956.  00:62BE  6E                  	db $6E		;[Volume] 14
    4957.  00:62BF  C0                  	db $C0		;[Wait] 1
    4958.  00:62C0  6D                  	db $6D		;[Volume] 13
    4959.  00:62C1                      				;[Skip delay] 1
    4960.  00:62C1  6C                  	db $6C		;[Volume] 12
    4961.  00:62C2                      				;[Skip delay] 1
    4962.  00:62C2  6B                  	db $6B		;[Volume] 11
    4963.  00:62C3                      				;[Skip delay] 1
    4964.  00:62C3  2F                  	db $2F		;[Note] 48
    4965.  00:62C4  6D                  	db $6D		;[Volume] 13
    4966.  00:62C5  C1                  	db $C1		;[Wait] 2
    4967.  00:62C6  6E                  	db $6E		;[Volume] 14
    4968.  00:62C7  A7 75               	db $A7, $75		;[CMD vibrato]
    4969.  00:62C9  C0                  	db $C0		;[Wait] 1
    4970.  00:62CA  B1 05               	db $B1, $05		;[CMD vibrato] rep
    4971.  00:62CC                      				;[Skip delay] 1
    4972.  00:62CC  6F                  	db $6F		;[Volume] 15
    4973.  00:62CD  C3                  	db $C3		;[Wait] 4
    4974.  00:62CE  2E                  	db $2E		;[Note] 47
    4975.  00:62CF  C1                  	db $C1		;[Wait] 2
    4976.  00:62D0  2C                  	db $2C		;[Note] 45
    4977.  00:62D1                      				;[Skip delay] 2
    4978.  00:62D1  2E                  	db $2E		;[Note] 47
    4979.  00:62D2  C1                  	db $C1		;[Wait..] 2
    4980.  00:62D3  A7 75               	db $A7, $75		;[CMD vibrato]
    4981.  00:62D5  C0                  	db $C0		;[Wait] 1
    4982.  00:62D6  B1 03               	db $B1, $03		;[CMD vibrato] rep
    4983.  00:62D8  C2                  	db $C2		;[Wait] 3
    4984.  00:62D9  32                  	db $32		;[Note] 51
    4985.  00:62DA  C1                  	db $C1		;[Wait] 2
    4986.  00:62DB  30                  	db $30		;[Note] 49
    4987.  00:62DC                      				;[Skip delay] 2
    4988.  00:62DC  32                  	db $32		;[Note] 51
    4989.  00:62DD  C1                  	db $C1		;[Wait..] 2
    4990.  00:62DE  A7 75               	db $A7, $75		;[CMD vibrato]
    4991.  00:62E0  C0                  	db $C0		;[Wait] 1
    4992.  00:62E1  B1 0B               	db $B1, $0B		;[CMD vibrato] rep
    4993.  00:62E3  CA                  	db $CA		;[Wait] 11
    4994.  00:62E4  2E                  	db $2E		;[Note] 47
    4995.  00:62E5  6B                  	db $6B		;[Volume] 11
    4996.  00:62E6  74                  	db $74		;[Instrument] 5
    4997.  00:62E7  C3                  	db $C3		;[Wait] 4
    4998.  00:62E8  BF                  	db $BF		;[End-Of-Track]
    4999.  00:62E9                      .track_75:
    5000.  00:62E9  C2                  	db $C2		;[Wait] 3
    5001.  00:62EA  29                  	db $29		;[Note] 42
    5002.  00:62EB  C1                  	db $C1		;[Wait] 2
    5003.  00:62EC  27                  	db $27		;[Note] 40
    5004.  00:62ED                      				;[Skip delay] 2
    5005.  00:62ED  29                  	db $29		;[Note] 42
    5006.  00:62EE  C1                  	db $C1		;[Wait..] 2
    5007.  00:62EF  A7 75               	db $A7, $75		;[CMD vibrato]
    5008.  00:62F1  C0                  	db $C0		;[Wait] 1
    5009.  00:62F2  B1 11               	db $B1, $11		;[CMD vibrato] rep
    5010.  00:62F4  D0                  	db $D0		;[Wait] 17
    5011.  00:62F5  2F                  	db $2F		;[Note] 48
    5012.  00:62F6  6D                  	db $6D		;[Volume] 13
    5013.  00:62F7  C1                  	db $C1		;[Wait] 2
    5014.  00:62F8  A7 75               	db $A7, $75		;[CMD vibrato]
    5015.  00:62FA  C0                  	db $C0		;[Wait] 1
    5016.  00:62FB  B1 05               	db $B1, $05		;[CMD vibrato] rep
    5017.  00:62FD  C4                  	db $C4		;[Wait] 5
    5018.  00:62FE  2E                  	db $2E		;[Note] 47
    5019.  00:62FF  C1                  	db $C1		;[Wait] 2
    5020.  00:6300  2C                  	db $2C		;[Note] 45
    5021.  00:6301                      				;[Skip delay] 2
    5022.  00:6301  2E                  	db $2E		;[Note] 47
    5023.  00:6302  C1                  	db $C1		;[Wait..] 2
    5024.  00:6303  A7 75               	db $A7, $75		;[CMD vibrato]
    5025.  00:6305  C0                  	db $C0		;[Wait] 1
    5026.  00:6306  B1 03               	db $B1, $03		;[CMD vibrato] rep
    5027.  00:6308  C2                  	db $C2		;[Wait] 3
    5028.  00:6309  32                  	db $32		;[Note] 51
    5029.  00:630A  C1                  	db $C1		;[Wait] 2
    5030.  00:630B  30                  	db $30		;[Note] 49
    5031.  00:630C                      				;[Skip delay] 2
    5032.  00:630C  32                  	db $32		;[Note] 51
    5033.  00:630D  C1                  	db $C1		;[Wait..] 2
    5034.  00:630E  A7 75               	db $A7, $75		;[CMD vibrato]
    5035.  00:6310  C0                  	db $C0		;[Wait] 1
    5036.  00:6311  B1 08               	db $B1, $08		;[CMD vibrato] rep
    5037.  00:6313  C7                  	db $C7		;[Wait] 8
    5038.  00:6314  2E                  	db $2E		;[Note] 47
    5039.  00:6315  6F                  	db $6F		;[Volume] 15
    5040.  00:6316  82                  	db $82		;[Instrument] 19
    5041.  00:6317  95 00               	db $95, $00		; track detune
    5042.  00:6319  C1                  	db $C1		;[Wait] 2
    5043.  00:631A  60                  	db $60		;[Note] 97
    5044.  00:631B                      				;[Skip delay] 2
    5045.  00:631B  BF                  	db $BF		;[End-Of-Track]
    5046.  00:631C                      .track_76:
    5047.  00:631C  91 05               	db $91, $05		;[FM drum] 6
    5048.  00:631E  C1                  	db $C1		;[Wait] 2
    5049.  00:631F  91 01               	db $91, $01		;[FM drum] 1
    5050.  00:6321                      				;[Skip delay] 2
    5051.  00:6321  26                  	db $26		;[Note] 39
    5052.  00:6322  6F                  	db $6F		;[Volume] 15
    5053.  00:6323  78                  	db $78		;[Instrument] 9
    5054.  00:6324  91 02               	db $91, $02		;[FM drum] 2
    5055.  00:6326                      				;[Skip delay] 2
    5056.  00:6326  91 01               	db $91, $01		;[FM drum] 1
    5057.  00:6328                      				;[Skip delay] 2
    5058.  00:6328  91 06               	db $91, $06		;[FM drum] 11
    5059.  00:632A                      				;[Skip delay] 2
    5060.  00:632A  91 01               	db $91, $01		;[FM drum] 1
    5061.  00:632C                      				;[Skip delay] 2
    5062.  00:632C  26                  	db $26		;[Note] 39
    5063.  00:632D  91 02               	db $91, $02		;[FM drum] 2
    5064.  00:632F                      				;[Skip delay] 2
    5065.  00:632F  91 05               	db $91, $05		;[FM drum] 6
    5066.  00:6331  C3                  	db $C3		;[Wait] 4
    5067.  00:6332  91 01               	db $91, $01		;[FM drum] 1
    5068.  00:6334  C1                  	db $C1		;[Wait] 2
    5069.  00:6335  26                  	db $26		;[Note] 39
    5070.  00:6336  91 02               	db $91, $02		;[FM drum] 2
    5071.  00:6338                      				;[Skip delay] 2
    5072.  00:6338  91 01               	db $91, $01		;[FM drum] 1
    5073.  00:633A                      				;[Skip delay] 2
    5074.  00:633A  91 06               	db $91, $06		;[FM drum] 11
    5075.  00:633C  C3                  	db $C3		;[Wait] 4
    5076.  00:633D  26                  	db $26		;[Note] 39
    5077.  00:633E  91 02               	db $91, $02		;[FM drum] 2
    5078.  00:6340                      				;[Skip delay] 4
    5079.  00:6340  91 05               	db $91, $05		;[FM drum] 6
    5080.  00:6342  C1                  	db $C1		;[Wait] 2
    5081.  00:6343  91 01               	db $91, $01		;[FM drum] 1
    5082.  00:6345                      				;[Skip delay] 2
    5083.  00:6345  26                  	db $26		;[Note] 39
    5084.  00:6346  91 02               	db $91, $02		;[FM drum] 2
    5085.  00:6348                      				;[Skip delay] 2
    5086.  00:6348  91 01               	db $91, $01		;[FM drum] 1
    5087.  00:634A                      				;[Skip delay] 2
    5088.  00:634A  91 06               	db $91, $06		;[FM drum] 11
    5089.  00:634C                      				;[Skip delay] 2
    5090.  00:634C  91 01               	db $91, $01		;[FM drum] 1
    5091.  00:634E                      				;[Skip delay] 2
    5092.  00:634E  26                  	db $26		;[Note] 39
    5093.  00:634F  91 02               	db $91, $02		;[FM drum] 2
    5094.  00:6351                      				;[Skip delay] 2
    5095.  00:6351  91 05               	db $91, $05		;[FM drum] 6
    5096.  00:6353  C3                  	db $C3		;[Wait] 4
    5097.  00:6354  91 01               	db $91, $01		;[FM drum] 1
    5098.  00:6356  C1                  	db $C1		;[Wait] 2
    5099.  00:6357  26                  	db $26		;[Note] 39
    5100.  00:6358  91 02               	db $91, $02		;[FM drum] 2
    5101.  00:635A                      				;[Skip delay] 2
    5102.  00:635A  91 01               	db $91, $01		;[FM drum] 1
    5103.  00:635C                      				;[Skip delay] 2
    5104.  00:635C  91 06               	db $91, $06		;[FM drum] 11
    5105.  00:635E  C3                  	db $C3		;[Wait] 4
    5106.  00:635F  26                  	db $26		;[Note] 39
    5107.  00:6360  91 02               	db $91, $02		;[FM drum] 2
    5108.  00:6362                      				;[Skip delay] 4
    5109.  00:6362  BF                  	db $BF		;[End-Of-Track]
    5110.  00:6363                      .track_77:
    5111.  00:6363  A4 03               	db $A4, $03		; slide-up
    5112.  00:6365  C0                  	db $C0		;[Wait] 1
    5113.  00:6366  A5 03               	db $A5, $03		; slide-down
    5114.  00:6368                      				;[Skip delay] 1
    5115.  00:6368  17                  	db $17		;[Note] 24
    5116.  00:6369  C1                  	db $C1		;[Wait] 2
    5117.  00:636A  12                  	db $12		;[Note] 19
    5118.  00:636B                      				;[Skip delay] 2
    5119.  00:636B  0B                  	db $0B		;[Note] 12
    5120.  00:636C                      				;[Skip delay] 2
    5121.  00:636C  12                  	db $12		;[Note] 19
    5122.  00:636D                      				;[Skip delay] 2
    5123.  00:636D  17                  	db $17		;[Note] 24
    5124.  00:636E                      				;[Skip delay] 2
    5125.  00:636E  0B                  	db $0B		;[Note] 12
    5126.  00:636F                      				;[Skip delay] 2
    5127.  00:636F  19                  	db $19		;[Note] 26
    5128.  00:6370  C1                  	db $C1		;[Wait..] 2
    5129.  00:6371  A5 03               	db $A5, $03		; slide-down
    5130.  00:6373  C0                  	db $C0		;[Wait] 1
    5131.  00:6374  AF 01               	db $AF, $01		; slide-down rep
    5132.  00:6376                      				;[Skip delay] 1
    5133.  00:6376  14                  	db $14		;[Note] 21
    5134.  00:6377  C1                  	db $C1		;[Wait] 2
    5135.  00:6378  0D                  	db $0D		;[Note] 14
    5136.  00:6379                      				;[Skip delay] 2
    5137.  00:6379  19                  	db $19		;[Note] 26
    5138.  00:637A                      				;[Skip delay] 2
    5139.  00:637A  20                  	db $20		;[Note] 33
    5140.  00:637B  C2                  	db $C2		;[Wait] 3
    5141.  00:637C  60                  	db $60		;[Note] 97
    5142.  00:637D  C0                  	db $C0		;[Wait] 1
    5143.  00:637E  19                  	db $19		;[Note] 26
    5144.  00:637F  C1                  	db $C1		;[Wait] 2
    5145.  00:6380  1B                  	db $1B		;[Note] 28
    5146.  00:6381  C1                  	db $C1		;[Wait..] 2
    5147.  00:6382  A5 03               	db $A5, $03		; slide-down
    5148.  00:6384  C0                  	db $C0		;[Wait] 1
    5149.  00:6385  AF 01               	db $AF, $01		; slide-down rep
    5150.  00:6387                      				;[Skip delay] 1
    5151.  00:6387  1B                  	db $1B		;[Note] 28
    5152.  00:6388  C1                  	db $C1		;[Wait] 2
    5153.  00:6389  16                  	db $16		;[Note] 23
    5154.  00:638A                      				;[Skip delay] 2
    5155.  00:638A  12                  	db $12		;[Note] 19
    5156.  00:638B                      				;[Skip delay] 2
    5157.  00:638B  0F                  	db $0F		;[Note] 16
    5158.  00:638C  C3                  	db $C3		;[Wait] 4
    5159.  00:638D  16                  	db $16		;[Note] 23
    5160.  00:638E  C0                  	db $C0		;[Wait] 1
    5161.  00:638F  60                  	db $60		;[Note] 97
    5162.  00:6390                      				;[Skip delay] 1
    5163.  00:6390  0F                  	db $0F		;[Note] 16
    5164.  00:6391  C2                  	db $C2		;[Wait] 3
    5165.  00:6392  A4 09               	db $A4, $09		; slide-up
    5166.  00:6394  C0                  	db $C0		;[Wait] 1
    5167.  00:6395  16                  	db $16		;[Note] 23
    5168.  00:6396  C1                  	db $C1		;[Wait] 2
    5169.  00:6397  14                  	db $14		;[Note] 21
    5170.  00:6398  C0                  	db $C0		;[Wait] 1
    5171.  00:6399  16                  	db $16		;[Note] 23
    5172.  00:639A  C2                  	db $C2		;[Wait] 3
    5173.  00:639B  11                  	db $11		;[Note] 18
    5174.  00:639C                      				;[Skip delay] 3
    5175.  00:639C  60                  	db $60		;[Note] 97
    5176.  00:639D  C0                  	db $C0		;[Wait] 1
    5177.  00:639E  19                  	db $19		;[Note] 26
    5178.  00:639F                      				;[Skip delay] 1
    5179.  00:639F  60                  	db $60		;[Note] 97
    5180.  00:63A0                      				;[Skip delay] 1
    5181.  00:63A0  17                  	db $17		;[Note] 24
    5182.  00:63A1  C1                  	db $C1		;[Wait] 2
    5183.  00:63A2  BF                  	db $BF		;[End-Of-Track]
    5184.  00:63A3                      .track_78:
    5185.  00:63A3  33                  	db $33		;[Note] 52
    5186.  00:63A4  6C                  	db $6C		;[Volume] 12
    5187.  00:63A5  80                  	db $80		;[Instrument] 17
    5188.  00:63A6  C3                  	db $C3		;[Wait] 4
    5189.  00:63A7  A7 75               	db $A7, $75		;[CMD vibrato]
    5190.  00:63A9  C0                  	db $C0		;[Wait] 1
    5191.  00:63AA  B1 03               	db $B1, $03		;[CMD vibrato] rep
    5192.  00:63AC  C2                  	db $C2		;[Wait] 3
    5193.  00:63AD  3A                  	db $3A		;[Note] 59
    5194.  00:63AE  C3                  	db $C3		;[Wait] 4
    5195.  00:63AF  A7 75               	db $A7, $75		;[CMD vibrato]
    5196.  00:63B1  C0                  	db $C0		;[Wait] 1
    5197.  00:63B2  B1 03               	db $B1, $03		;[CMD vibrato] rep
    5198.  00:63B4  C2                  	db $C2		;[Wait] 3
    5199.  00:63B5  38                  	db $38		;[Note] 57
    5200.  00:63B6  C3                  	db $C3		;[Wait] 4
    5201.  00:63B7  36                  	db $36		;[Note] 55
    5202.  00:63B8                      				;[Skip delay] 4
    5203.  00:63B8  35                  	db $35		;[Note] 54
    5204.  00:63B9  C3                  	db $C3		;[Wait..] 4
    5205.  00:63BA  A7 75               	db $A7, $75		;[CMD vibrato]
    5206.  00:63BC  C0                  	db $C0		;[Wait] 1
    5207.  00:63BD  B1 03               	db $B1, $03		;[CMD vibrato] rep
    5208.  00:63BF  C2                  	db $C2		;[Wait] 3
    5209.  00:63C0  38                  	db $38		;[Note] 57
    5210.  00:63C1  C3                  	db $C3		;[Wait] 4
    5211.  00:63C2  A7 75               	db $A7, $75		;[CMD vibrato]
    5212.  00:63C4  C0                  	db $C0		;[Wait] 1
    5213.  00:63C5  B1 03               	db $B1, $03		;[CMD vibrato] rep
    5214.  00:63C7  C2                  	db $C2		;[Wait] 3
    5215.  00:63C8  31                  	db $31		;[Note] 50
    5216.  00:63C9  C3                  	db $C3		;[Wait] 4
    5217.  00:63CA  33                  	db $33		;[Note] 52
    5218.  00:63CB  C3                  	db $C3		;[Wait..] 4
    5219.  00:63CC  A7 75               	db $A7, $75		;[CMD vibrato]
    5220.  00:63CE  C0                  	db $C0		;[Wait] 1
    5221.  00:63CF  B1 03               	db $B1, $03		;[CMD vibrato] rep
    5222.  00:63D1  C2                  	db $C2		;[Wait] 3
    5223.  00:63D2  35                  	db $35		;[Note] 54
    5224.  00:63D3  C3                  	db $C3		;[Wait] 4
    5225.  00:63D4  A7 75               	db $A7, $75		;[CMD vibrato]
    5226.  00:63D6  C0                  	db $C0		;[Wait] 1
    5227.  00:63D7  B1 03               	db $B1, $03		;[CMD vibrato] rep
    5228.  00:63D9  C2                  	db $C2		;[Wait] 3
    5229.  00:63DA  31                  	db $31		;[Note] 50
    5230.  00:63DB  C3                  	db $C3		;[Wait] 4
    5231.  00:63DC  BF                  	db $BF		;[End-Of-Track]
    5232.  00:63DD                      .track_79:
    5233.  00:63DD  60                  	db $60		;[Note] 97
    5234.  00:63DE  C1                  	db $C1		;[Wait] 2
    5235.  00:63DF  33                  	db $33		;[Note] 52
    5236.  00:63E0  6A                  	db $6A		;[Volume] 10
    5237.  00:63E1  75                  	db $75		;[Instrument] 6
    5238.  00:63E2  95 01               	db $95, $01		; track detune
    5239.  00:63E4  C3                  	db $C3		;[Wait] 4
    5240.  00:63E5  A7 75               	db $A7, $75		;[CMD vibrato]
    5241.  00:63E7  C0                  	db $C0		;[Wait] 1
    5242.  00:63E8  B1 03               	db $B1, $03		;[CMD vibrato] rep
    5243.  00:63EA  C2                  	db $C2		;[Wait] 3
    5244.  00:63EB  36                  	db $36		;[Note] 55
    5245.  00:63EC  C3                  	db $C3		;[Wait] 4
    5246.  00:63ED  A7 75               	db $A7, $75		;[CMD vibrato]
    5247.  00:63EF  C0                  	db $C0		;[Wait] 1
    5248.  00:63F0  B1 03               	db $B1, $03		;[CMD vibrato] rep
    5249.  00:63F2  C2                  	db $C2		;[Wait] 3
    5250.  00:63F3  35                  	db $35		;[Note] 54
    5251.  00:63F4  C3                  	db $C3		;[Wait] 4
    5252.  00:63F5  36                  	db $36		;[Note] 55
    5253.  00:63F6                      				;[Skip delay] 4
    5254.  00:63F6  38                  	db $38		;[Note] 57
    5255.  00:63F7                      				;[Skip delay] 4
    5256.  00:63F7  38                  	db $38		;[Note] 57
    5257.  00:63F8  C3                  	db $C3		;[Wait..] 4
    5258.  00:63F9  A7 75               	db $A7, $75		;[CMD vibrato]
    5259.  00:63FB  C0                  	db $C0		;[Wait] 1
    5260.  00:63FC  B1 0B               	db $B1, $0B		;[CMD vibrato] rep
    5261.  00:63FE  CA                  	db $CA		;[Wait] 11
    5262.  00:63FF  3A                  	db $3A		;[Note] 59
    5263.  00:6400  C7                  	db $C7		;[Wait] 8
    5264.  00:6401  3D                  	db $3D		;[Note] 62
    5265.  00:6402  C3                  	db $C3		;[Wait] 4
    5266.  00:6403  A7 75               	db $A7, $75		;[CMD vibrato]
    5267.  00:6405  C0                  	db $C0		;[Wait] 1
    5268.  00:6406  B1 03               	db $B1, $03		;[CMD vibrato] rep
    5269.  00:6408  C2                  	db $C2		;[Wait] 3
    5270.  00:6409  3A                  	db $3A		;[Note] 59
    5271.  00:640A  C1                  	db $C1		;[Wait] 2
    5272.  00:640B  BF                  	db $BF		;[End-Of-Track]
    5273.  00:640C                      .track_80:
    5274.  00:640C  60                  	db $60		;[Note] 97
    5275.  00:640D  C1                  	db $C1		;[Wait] 2
    5276.  00:640E  33                  	db $33		;[Note] 52
    5277.  00:640F  6C                  	db $6C		;[Volume] 12
    5278.  00:6410  75                  	db $75		;[Instrument] 6
    5279.  00:6411  95 01               	db $95, $01		; track detune
    5280.  00:6413  C3                  	db $C3		;[Wait] 4
    5281.  00:6414  A7 75               	db $A7, $75		;[CMD vibrato]
    5282.  00:6416  C0                  	db $C0		;[Wait] 1
    5283.  00:6417  B1 03               	db $B1, $03		;[CMD vibrato] rep
    5284.  00:6419  C2                  	db $C2		;[Wait] 3
    5285.  00:641A  3A                  	db $3A		;[Note] 59
    5286.  00:641B  C3                  	db $C3		;[Wait] 4
    5287.  00:641C  A7 75               	db $A7, $75		;[CMD vibrato]
    5288.  00:641E  C0                  	db $C0		;[Wait] 1
    5289.  00:641F  B1 03               	db $B1, $03		;[CMD vibrato] rep
    5290.  00:6421  C2                  	db $C2		;[Wait] 3
    5291.  00:6422  38                  	db $38		;[Note] 57
    5292.  00:6423  C3                  	db $C3		;[Wait] 4
    5293.  00:6424  36                  	db $36		;[Note] 55
    5294.  00:6425                      				;[Skip delay] 4
    5295.  00:6425  35                  	db $35		;[Note] 54
    5296.  00:6426  C3                  	db $C3		;[Wait..] 4
    5297.  00:6427  A7 75               	db $A7, $75		;[CMD vibrato]
    5298.  00:6429  C0                  	db $C0		;[Wait] 1
    5299.  00:642A  B1 03               	db $B1, $03		;[CMD vibrato] rep
    5300.  00:642C  C2                  	db $C2		;[Wait] 3
    5301.  00:642D  38                  	db $38		;[Note] 57
    5302.  00:642E  C3                  	db $C3		;[Wait] 4
    5303.  00:642F  A7 75               	db $A7, $75		;[CMD vibrato]
    5304.  00:6431  C0                  	db $C0		;[Wait] 1
    5305.  00:6432  B1 03               	db $B1, $03		;[CMD vibrato] rep
    5306.  00:6434  C2                  	db $C2		;[Wait] 3
    5307.  00:6435  31                  	db $31		;[Note] 50
    5308.  00:6436  C3                  	db $C3		;[Wait] 4
    5309.  00:6437  33                  	db $33		;[Note] 52
    5310.  00:6438  C3                  	db $C3		;[Wait..] 4
    5311.  00:6439  A7 75               	db $A7, $75		;[CMD vibrato]
    5312.  00:643B  C0                  	db $C0		;[Wait] 1
    5313.  00:643C  B1 03               	db $B1, $03		;[CMD vibrato] rep
    5314.  00:643E  C2                  	db $C2		;[Wait] 3
    5315.  00:643F  35                  	db $35		;[Note] 54
    5316.  00:6440  C3                  	db $C3		;[Wait] 4
    5317.  00:6441  A7 75               	db $A7, $75		;[CMD vibrato]
    5318.  00:6443  C0                  	db $C0		;[Wait] 1
    5319.  00:6444  B1 03               	db $B1, $03		;[CMD vibrato] rep
    5320.  00:6446  C2                  	db $C2		;[Wait] 3
    5321.  00:6447  31                  	db $31		;[Note] 50
    5322.  00:6448  C1                  	db $C1		;[Wait] 2
    5323.  00:6449  BF                  	db $BF		;[End-Of-Track]
    5324.  00:644A                      .track_81:
    5325.  00:644A  33                  	db $33		;[Note] 52
    5326.  00:644B  6C                  	db $6C		;[Volume] 12
    5327.  00:644C  74                  	db $74		;[Instrument] 5
    5328.  00:644D  C3                  	db $C3		;[Wait] 4
    5329.  00:644E  A7 75               	db $A7, $75		;[CMD vibrato]
    5330.  00:6450  C0                  	db $C0		;[Wait] 1
    5331.  00:6451  B1 03               	db $B1, $03		;[CMD vibrato] rep
    5332.  00:6453  C2                  	db $C2		;[Wait] 3
    5333.  00:6454  36                  	db $36		;[Note] 55
    5334.  00:6455  C3                  	db $C3		;[Wait] 4
    5335.  00:6456  A7 75               	db $A7, $75		;[CMD vibrato]
    5336.  00:6458  C0                  	db $C0		;[Wait] 1
    5337.  00:6459  B1 03               	db $B1, $03		;[CMD vibrato] rep
    5338.  00:645B  C2                  	db $C2		;[Wait] 3
    5339.  00:645C  35                  	db $35		;[Note] 54
    5340.  00:645D  C3                  	db $C3		;[Wait] 4
    5341.  00:645E  36                  	db $36		;[Note] 55
    5342.  00:645F                      				;[Skip delay] 4
    5343.  00:645F  38                  	db $38		;[Note] 57
    5344.  00:6460                      				;[Skip delay] 4
    5345.  00:6460  38                  	db $38		;[Note] 57
    5346.  00:6461  C3                  	db $C3		;[Wait..] 4
    5347.  00:6462  A7 75               	db $A7, $75		;[CMD vibrato]
    5348.  00:6464  C0                  	db $C0		;[Wait] 1
    5349.  00:6465  B1 0B               	db $B1, $0B		;[CMD vibrato] rep
    5350.  00:6467  CA                  	db $CA		;[Wait] 11
    5351.  00:6468  3A                  	db $3A		;[Note] 59
    5352.  00:6469  C7                  	db $C7		;[Wait] 8
    5353.  00:646A  3D                  	db $3D		;[Note] 62
    5354.  00:646B  C3                  	db $C3		;[Wait] 4
    5355.  00:646C  A7 75               	db $A7, $75		;[CMD vibrato]
    5356.  00:646E  C0                  	db $C0		;[Wait] 1
    5357.  00:646F  B1 03               	db $B1, $03		;[CMD vibrato] rep
    5358.  00:6471  C2                  	db $C2		;[Wait] 3
    5359.  00:6472  3A                  	db $3A		;[Note] 59
    5360.  00:6473  C1                  	db $C1		;[Wait] 2
    5361.  00:6474  60                  	db $60		;[Note] 97
    5362.  00:6475                      				;[Skip delay] 2
    5363.  00:6475  BF                  	db $BF		;[End-Of-Track]
    5364.  00:6476                      .track_82:
    5365.  00:6476  33                  	db $33		;[Note] 52
    5366.  00:6477  6F                  	db $6F		;[Volume] 15
    5367.  00:6478  82                  	db $82		;[Instrument] 19
    5368.  00:6479  C3                  	db $C3		;[Wait] 4
    5369.  00:647A  A7 75               	db $A7, $75		;[CMD vibrato]
    5370.  00:647C  C0                  	db $C0		;[Wait] 1
    5371.  00:647D  B1 03               	db $B1, $03		;[CMD vibrato] rep
    5372.  00:647F  C2                  	db $C2		;[Wait] 3
    5373.  00:6480  3A                  	db $3A		;[Note] 59
    5374.  00:6481  C3                  	db $C3		;[Wait] 4
    5375.  00:6482  A7 75               	db $A7, $75		;[CMD vibrato]
    5376.  00:6484  C0                  	db $C0		;[Wait] 1
    5377.  00:6485  B1 03               	db $B1, $03		;[CMD vibrato] rep
    5378.  00:6487  C2                  	db $C2		;[Wait] 3
    5379.  00:6488  38                  	db $38		;[Note] 57
    5380.  00:6489  C3                  	db $C3		;[Wait] 4
    5381.  00:648A  36                  	db $36		;[Note] 55
    5382.  00:648B                      				;[Skip delay] 4
    5383.  00:648B  35                  	db $35		;[Note] 54
    5384.  00:648C  C3                  	db $C3		;[Wait..] 4
    5385.  00:648D  A7 75               	db $A7, $75		;[CMD vibrato]
    5386.  00:648F  C0                  	db $C0		;[Wait] 1
    5387.  00:6490  B1 03               	db $B1, $03		;[CMD vibrato] rep
    5388.  00:6492  C2                  	db $C2		;[Wait] 3
    5389.  00:6493  38                  	db $38		;[Note] 57
    5390.  00:6494  C3                  	db $C3		;[Wait] 4
    5391.  00:6495  A7 75               	db $A7, $75		;[CMD vibrato]
    5392.  00:6497  C0                  	db $C0		;[Wait] 1
    5393.  00:6498  B1 03               	db $B1, $03		;[CMD vibrato] rep
    5394.  00:649A  C2                  	db $C2		;[Wait] 3
    5395.  00:649B  31                  	db $31		;[Note] 50
    5396.  00:649C  C3                  	db $C3		;[Wait] 4
    5397.  00:649D  33                  	db $33		;[Note] 52
    5398.  00:649E  C3                  	db $C3		;[Wait..] 4
    5399.  00:649F  A7 75               	db $A7, $75		;[CMD vibrato]
    5400.  00:64A1  C0                  	db $C0		;[Wait] 1
    5401.  00:64A2  B1 03               	db $B1, $03		;[CMD vibrato] rep
    5402.  00:64A4  C2                  	db $C2		;[Wait] 3
    5403.  00:64A5  35                  	db $35		;[Note] 54
    5404.  00:64A6  C3                  	db $C3		;[Wait] 4
    5405.  00:64A7  A7 75               	db $A7, $75		;[CMD vibrato]
    5406.  00:64A9  C0                  	db $C0		;[Wait] 1
    5407.  00:64AA  B1 03               	db $B1, $03		;[CMD vibrato] rep
    5408.  00:64AC  C2                  	db $C2		;[Wait] 3
    5409.  00:64AD  31                  	db $31		;[Note] 50
    5410.  00:64AE  C3                  	db $C3		;[Wait] 4
    5411.  00:64AF  BF                  	db $BF		;[End-Of-Track]
    5412.  00:64B0                      .track_83:
    5413.  00:64B0  91 05               	db $91, $05		;[FM drum] 6
    5414.  00:64B2  C1                  	db $C1		;[Wait] 2
    5415.  00:64B3  91 01               	db $91, $01		;[FM drum] 1
    5416.  00:64B5                      				;[Skip delay] 2
    5417.  00:64B5  26                  	db $26		;[Note] 39
    5418.  00:64B6  91 02               	db $91, $02		;[FM drum] 2
    5419.  00:64B8                      				;[Skip delay] 2
    5420.  00:64B8  91 01               	db $91, $01		;[FM drum] 1
    5421.  00:64BA                      				;[Skip delay] 2
    5422.  00:64BA  91 06               	db $91, $06		;[FM drum] 11
    5423.  00:64BC                      				;[Skip delay] 2
    5424.  00:64BC  91 01               	db $91, $01		;[FM drum] 1
    5425.  00:64BE                      				;[Skip delay] 2
    5426.  00:64BE  26                  	db $26		;[Note] 39
    5427.  00:64BF  91 02               	db $91, $02		;[FM drum] 2
    5428.  00:64C1                      				;[Skip delay] 2
    5429.  00:64C1  91 05               	db $91, $05		;[FM drum] 6
    5430.  00:64C3  C3                  	db $C3		;[Wait] 4
    5431.  00:64C4  91 01               	db $91, $01		;[FM drum] 1
    5432.  00:64C6  C1                  	db $C1		;[Wait] 2
    5433.  00:64C7  26                  	db $26		;[Note] 39
    5434.  00:64C8  91 02               	db $91, $02		;[FM drum] 2
    5435.  00:64CA                      				;[Skip delay] 2
    5436.  00:64CA  91 01               	db $91, $01		;[FM drum] 1
    5437.  00:64CC                      				;[Skip delay] 2
    5438.  00:64CC  91 06               	db $91, $06		;[FM drum] 11
    5439.  00:64CE  C3                  	db $C3		;[Wait] 4
    5440.  00:64CF  26                  	db $26		;[Note] 39
    5441.  00:64D0  91 02               	db $91, $02		;[FM drum] 2
    5442.  00:64D2                      				;[Skip delay] 4
    5443.  00:64D2  91 05               	db $91, $05		;[FM drum] 6
    5444.  00:64D4  C1                  	db $C1		;[Wait] 2
    5445.  00:64D5  91 01               	db $91, $01		;[FM drum] 1
    5446.  00:64D7                      				;[Skip delay] 2
    5447.  00:64D7  26                  	db $26		;[Note] 39
    5448.  00:64D8  91 02               	db $91, $02		;[FM drum] 2
    5449.  00:64DA                      				;[Skip delay] 2
    5450.  00:64DA  91 01               	db $91, $01		;[FM drum] 1
    5451.  00:64DC                      				;[Skip delay] 2
    5452.  00:64DC  91 06               	db $91, $06		;[FM drum] 11
    5453.  00:64DE                      				;[Skip delay] 2
    5454.  00:64DE  91 01               	db $91, $01		;[FM drum] 1
    5455.  00:64E0                      				;[Skip delay] 2
    5456.  00:64E0  26                  	db $26		;[Note] 39
    5457.  00:64E1  91 02               	db $91, $02		;[FM drum] 2
    5458.  00:64E3                      				;[Skip delay] 2
    5459.  00:64E3  91 05               	db $91, $05		;[FM drum] 6
    5460.  00:64E5  C3                  	db $C3		;[Wait] 4
    5461.  00:64E6  91 01               	db $91, $01		;[FM drum] 1
    5462.  00:64E8  C1                  	db $C1		;[Wait] 2
    5463.  00:64E9  26                  	db $26		;[Note] 39
    5464.  00:64EA  91 02               	db $91, $02		;[FM drum] 2
    5465.  00:64EC                      				;[Skip delay] 2
    5466.  00:64EC  91 01               	db $91, $01		;[FM drum] 1
    5467.  00:64EE                      				;[Skip delay] 2
    5468.  00:64EE  91 06               	db $91, $06		;[FM drum] 11
    5469.  00:64F0  C0                  	db $C0		;[Wait] 1
    5470.  00:64F1  26                  	db $26		;[Note] 39
    5471.  00:64F2  91 02               	db $91, $02		;[FM drum] 2
    5472.  00:64F4                      				;[Skip delay] 1
    5473.  00:64F4  26                  	db $26		;[Note] 39
    5474.  00:64F5  91 02               	db $91, $02		;[FM drum] 2
    5475.  00:64F7  C1                  	db $C1		;[Wait] 2
    5476.  00:64F8  91 05               	db $91, $05		;[FM drum] 6
    5477.  00:64FA                      				;[Skip delay] 2
    5478.  00:64FA  26                  	db $26		;[Note] 39
    5479.  00:64FB  91 02               	db $91, $02		;[FM drum] 2
    5480.  00:64FD                      				;[Skip delay] 2
    5481.  00:64FD  BF                  	db $BF		;[End-Of-Track]
    5482.  00:64FE                      .track_84:
    5483.  00:64FE  C0                  	db $C0		;[Wait] 1
    5484.  00:64FF  A4 03               	db $A4, $03		; slide-up
    5485.  00:6501                      				;[Skip delay] 1
    5486.  00:6501  12                  	db $12		;[Note] 19
    5487.  00:6502  C3                  	db $C3		;[Wait] 4
    5488.  00:6503  17                  	db $17		;[Note] 24
    5489.  00:6504                      				;[Skip delay] 4
    5490.  00:6504  12                  	db $12		;[Note] 19
    5491.  00:6505  C1                  	db $C1		;[Wait] 2
    5492.  00:6506  17                  	db $17		;[Note] 24
    5493.  00:6507                      				;[Skip delay] 2
    5494.  00:6507  14                  	db $14		;[Note] 21
    5495.  00:6508  C3                  	db $C3		;[Wait] 4
    5496.  00:6509  19                  	db $19		;[Note] 26
    5497.  00:650A  C1                  	db $C1		;[Wait] 2
    5498.  00:650B  14                  	db $14		;[Note] 21
    5499.  00:650C                      				;[Skip delay] 2
    5500.  00:650C  19                  	db $19		;[Note] 26
    5501.  00:650D                      				;[Skip delay] 2
    5502.  00:650D  1B                  	db $1B		;[Note] 28
    5503.  00:650E  C3                  	db $C3		;[Wait] 4
    5504.  00:650F  1D                  	db $1D		;[Note] 30
    5505.  00:6510  C0                  	db $C0		;[Wait] 1
    5506.  00:6511  60                  	db $60		;[Note] 97
    5507.  00:6512                      				;[Skip delay] 1
    5508.  00:6512  1E                  	db $1E		;[Note] 31
    5509.  00:6513  C1                  	db $C1		;[Wait] 2
    5510.  00:6514  A5 01               	db $A5, $01		; slide-down
    5511.  00:6516  C0                  	db $C0		;[Wait] 1
    5512.  00:6517  AF 01               	db $AF, $01		; slide-down rep
    5513.  00:6519                      				;[Skip delay] 1
    5514.  00:6519  1D                  	db $1D		;[Note] 30
    5515.  00:651A  C1                  	db $C1		;[Wait] 2
    5516.  00:651B  1B                  	db $1B		;[Note] 28
    5517.  00:651C  C3                  	db $C3		;[Wait] 4
    5518.  00:651D  12                  	db $12		;[Note] 19
    5519.  00:651E  C2                  	db $C2		;[Wait] 3
    5520.  00:651F  60                  	db $60		;[Note] 97
    5521.  00:6520  C0                  	db $C0		;[Wait] 1
    5522.  00:6521  16                  	db $16		;[Note] 23
    5523.  00:6522  C1                  	db $C1		;[Wait] 2
    5524.  00:6523  19                  	db $19		;[Note] 26
    5525.  00:6524  C2                  	db $C2		;[Wait] 3
    5526.  00:6525  A5 03               	db $A5, $03		; slide-down
    5527.  00:6527  C0                  	db $C0		;[Wait] 1
    5528.  00:6528  17                  	db $17		;[Note] 24
    5529.  00:6529  C1                  	db $C1		;[Wait] 2
    5530.  00:652A  16                  	db $16		;[Note] 23
    5531.  00:652B                      				;[Skip delay] 2
    5532.  00:652B  12                  	db $12		;[Note] 19
    5533.  00:652C                      				;[Skip delay] 2
    5534.  00:652C  11                  	db $11		;[Note] 18
    5535.  00:652D                      				;[Skip delay] 2
    5536.  00:652D  60                  	db $60		;[Note] 97
    5537.  00:652E                      				;[Skip delay] 2
    5538.  00:652E  19                  	db $19		;[Note] 26
    5539.  00:652F  C0                  	db $C0		;[Wait] 1
    5540.  00:6530  1B                  	db $1B		;[Note] 28
    5541.  00:6531                      				;[Skip delay] 1
    5542.  00:6531  60                  	db $60		;[Note] 97
    5543.  00:6532  C1                  	db $C1		;[Wait] 2
    5544.  00:6533  BF                  	db $BF		;[End-Of-Track]
    5545.  00:6534                      .track_85:
    5546.  00:6534  33                  	db $33		;[Note] 52
    5547.  00:6535  C3                  	db $C3		;[Wait] 4
    5548.  00:6536  A7 75               	db $A7, $75		;[CMD vibrato]
    5549.  00:6538  C0                  	db $C0		;[Wait] 1
    5550.  00:6539  B1 07               	db $B1, $07		;[CMD vibrato] rep
    5551.  00:653B  C6                  	db $C6		;[Wait] 7
    5552.  00:653C  38                  	db $38		;[Note] 57
    5553.  00:653D  C3                  	db $C3		;[Wait] 4
    5554.  00:653E  3A                  	db $3A		;[Note] 59
    5555.  00:653F                      				;[Skip delay] 4
    5556.  00:653F  38                  	db $38		;[Note] 57
    5557.  00:6540                      				;[Skip delay] 4
    5558.  00:6540  3A                  	db $3A		;[Note] 59
    5559.  00:6541                      				;[Skip delay] 4
    5560.  00:6541  3D                  	db $3D		;[Note] 62
    5561.  00:6542  C1                  	db $C1		;[Wait] 2
    5562.  00:6543  3A                  	db $3A		;[Note] 59
    5563.  00:6544  C3                  	db $C3		;[Wait] 4
    5564.  00:6545  A7 75               	db $A7, $75		;[CMD vibrato]
    5565.  00:6547  C0                  	db $C0		;[Wait] 1
    5566.  00:6548  B1 17               	db $B1, $17		;[CMD vibrato] rep
    5567.  00:654A  D6                  	db $D6		;[Wait] 23
    5568.  00:654B  60                  	db $60		;[Note] 97
    5569.  00:654C  C1                  	db $C1		;[Wait] 2
    5570.  00:654D  31                  	db $31		;[Note] 50
    5571.  00:654E  C3                  	db $C3		;[Wait] 4
    5572.  00:654F  BF                  	db $BF		;[End-Of-Track]
    5573.  00:6550                      .track_86:
    5574.  00:6550  60                  	db $60		;[Note] 97
    5575.  00:6551  C1                  	db $C1		;[Wait] 2
    5576.  00:6552  36                  	db $36		;[Note] 55
    5577.  00:6553  C3                  	db $C3		;[Wait] 4
    5578.  00:6554  A7 75               	db $A7, $75		;[CMD vibrato]
    5579.  00:6556  C0                  	db $C0		;[Wait] 1
    5580.  00:6557  B1 0B               	db $B1, $0B		;[CMD vibrato] rep
    5581.  00:6559  CA                  	db $CA		;[Wait] 11
    5582.  00:655A  35                  	db $35		;[Note] 54
    5583.  00:655B  C3                  	db $C3		;[Wait] 4
    5584.  00:655C  A7 75               	db $A7, $75		;[CMD vibrato]
    5585.  00:655E  C0                  	db $C0		;[Wait] 1
    5586.  00:655F  B1 09               	db $B1, $09		;[CMD vibrato] rep
    5587.  00:6561  C8                  	db $C8		;[Wait] 9
    5588.  00:6562  33                  	db $33		;[Note] 52
    5589.  00:6563  C3                  	db $C3		;[Wait] 4
    5590.  00:6564  A7 75               	db $A7, $75		;[CMD vibrato]
    5591.  00:6566  C0                  	db $C0		;[Wait] 1
    5592.  00:6567  B1 09               	db $B1, $09		;[CMD vibrato] rep
    5593.  00:6569  C8                  	db $C8		;[Wait] 9
    5594.  00:656A  35                  	db $35		;[Note] 54
    5595.  00:656B  C3                  	db $C3		;[Wait] 4
    5596.  00:656C  A7 75               	db $A7, $75		;[CMD vibrato]
    5597.  00:656E  C0                  	db $C0		;[Wait] 1
    5598.  00:656F  B1 03               	db $B1, $03		;[CMD vibrato] rep
    5599.  00:6571  C2                  	db $C2		;[Wait] 3
    5600.  00:6572  31                  	db $31		;[Note] 50
    5601.  00:6573  C3                  	db $C3		;[Wait] 4
    5602.  00:6574  A7 75               	db $A7, $75		;[CMD vibrato]
    5603.  00:6576  C0                  	db $C0		;[Wait] 1
    5604.  00:6577  B1 03               	db $B1, $03		;[CMD vibrato] rep
    5605.  00:6579  C2                  	db $C2		;[Wait] 3
    5606.  00:657A  2E                  	db $2E		;[Note] 47
    5607.  00:657B  C1                  	db $C1		;[Wait] 2
    5608.  00:657C  BF                  	db $BF		;[End-Of-Track]
    5609.  00:657D                      .track_87:
    5610.  00:657D  C1                  	db $C1		;[Wait] 2
    5611.  00:657E  33                  	db $33		;[Note] 52
    5612.  00:657F  C3                  	db $C3		;[Wait] 4
    5613.  00:6580  A7 75               	db $A7, $75		;[CMD vibrato]
    5614.  00:6582  C0                  	db $C0		;[Wait] 1
    5615.  00:6583  B1 07               	db $B1, $07		;[CMD vibrato] rep
    5616.  00:6585  C6                  	db $C6		;[Wait] 7
    5617.  00:6586  38                  	db $38		;[Note] 57
    5618.  00:6587  C3                  	db $C3		;[Wait] 4
    5619.  00:6588  3A                  	db $3A		;[Note] 59
    5620.  00:6589                      				;[Skip delay] 4
    5621.  00:6589  38                  	db $38		;[Note] 57
    5622.  00:658A                      				;[Skip delay] 4
    5623.  00:658A  3A                  	db $3A		;[Note] 59
    5624.  00:658B                      				;[Skip delay] 4
    5625.  00:658B  3D                  	db $3D		;[Note] 62
    5626.  00:658C  C1                  	db $C1		;[Wait] 2
    5627.  00:658D  3A                  	db $3A		;[Note] 59
    5628.  00:658E  C3                  	db $C3		;[Wait] 4
    5629.  00:658F  A7 75               	db $A7, $75		;[CMD vibrato]
    5630.  00:6591  C0                  	db $C0		;[Wait] 1
    5631.  00:6592  B1 17               	db $B1, $17		;[CMD vibrato] rep
    5632.  00:6594  D6                  	db $D6		;[Wait] 23
    5633.  00:6595  60                  	db $60		;[Note] 97
    5634.  00:6596  C1                  	db $C1		;[Wait] 2
    5635.  00:6597  31                  	db $31		;[Note] 50
    5636.  00:6598                      				;[Skip delay] 2
    5637.  00:6598  BF                  	db $BF		;[End-Of-Track]
    5638.  00:6599                      .track_88:
    5639.  00:6599  36                  	db $36		;[Note] 55
    5640.  00:659A  C3                  	db $C3		;[Wait] 4
    5641.  00:659B  A7 75               	db $A7, $75		;[CMD vibrato]
    5642.  00:659D  C0                  	db $C0		;[Wait] 1
    5643.  00:659E  B1 0B               	db $B1, $0B		;[CMD vibrato] rep
    5644.  00:65A0  CA                  	db $CA		;[Wait] 11
    5645.  00:65A1  35                  	db $35		;[Note] 54
    5646.  00:65A2  C3                  	db $C3		;[Wait] 4
    5647.  00:65A3  A7 75               	db $A7, $75		;[CMD vibrato]
    5648.  00:65A5  C0                  	db $C0		;[Wait] 1
    5649.  00:65A6  B1 09               	db $B1, $09		;[CMD vibrato] rep
    5650.  00:65A8  C8                  	db $C8		;[Wait] 9
    5651.  00:65A9  33                  	db $33		;[Note] 52
    5652.  00:65AA  C3                  	db $C3		;[Wait] 4
    5653.  00:65AB  A7 75               	db $A7, $75		;[CMD vibrato]
    5654.  00:65AD  C0                  	db $C0		;[Wait] 1
    5655.  00:65AE  B1 09               	db $B1, $09		;[CMD vibrato] rep
    5656.  00:65B0  C8                  	db $C8		;[Wait] 9
    5657.  00:65B1  35                  	db $35		;[Note] 54
    5658.  00:65B2  C3                  	db $C3		;[Wait] 4
    5659.  00:65B3  A7 75               	db $A7, $75		;[CMD vibrato]
    5660.  00:65B5  C0                  	db $C0		;[Wait] 1
    5661.  00:65B6  B1 03               	db $B1, $03		;[CMD vibrato] rep
    5662.  00:65B8  C2                  	db $C2		;[Wait] 3
    5663.  00:65B9  31                  	db $31		;[Note] 50
    5664.  00:65BA  C3                  	db $C3		;[Wait] 4
    5665.  00:65BB  A7 75               	db $A7, $75		;[CMD vibrato]
    5666.  00:65BD  C0                  	db $C0		;[Wait] 1
    5667.  00:65BE  B1 03               	db $B1, $03		;[CMD vibrato] rep
    5668.  00:65C0  C2                  	db $C2		;[Wait] 3
    5669.  00:65C1  2E                  	db $2E		;[Note] 47
    5670.  00:65C2  C1                  	db $C1		;[Wait] 2
    5671.  00:65C3  60                  	db $60		;[Note] 97
    5672.  00:65C4                      				;[Skip delay] 2
    5673.  00:65C4  BF                  	db $BF		;[End-Of-Track]
    5674.  00:65C5                      .track_89:
    5675.  00:65C5  91 05               	db $91, $05		;[FM drum] 6
    5676.  00:65C7  C1                  	db $C1		;[Wait] 2
    5677.  00:65C8  91 01               	db $91, $01		;[FM drum] 1
    5678.  00:65CA                      				;[Skip delay] 2
    5679.  00:65CA  26                  	db $26		;[Note] 39
    5680.  00:65CB  6F                  	db $6F		;[Volume] 15
    5681.  00:65CC  78                  	db $78		;[Instrument] 9
    5682.  00:65CD  91 02               	db $91, $02		;[FM drum] 2
    5683.  00:65CF                      				;[Skip delay] 2
    5684.  00:65CF  91 01               	db $91, $01		;[FM drum] 1
    5685.  00:65D1                      				;[Skip delay] 2
    5686.  00:65D1  91 06               	db $91, $06		;[FM drum] 11
    5687.  00:65D3                      				;[Skip delay] 2
    5688.  00:65D3  91 01               	db $91, $01		;[FM drum] 1
    5689.  00:65D5                      				;[Skip delay] 2
    5690.  00:65D5  26                  	db $26		;[Note] 39
    5691.  00:65D6  91 02               	db $91, $02		;[FM drum] 2
    5692.  00:65D8                      				;[Skip delay] 2
    5693.  00:65D8  91 05               	db $91, $05		;[FM drum] 6
    5694.  00:65DA  C3                  	db $C3		;[Wait] 4
    5695.  00:65DB  91 01               	db $91, $01		;[FM drum] 1
    5696.  00:65DD  C1                  	db $C1		;[Wait] 2
    5697.  00:65DE  26                  	db $26		;[Note] 39
    5698.  00:65DF  91 02               	db $91, $02		;[FM drum] 2
    5699.  00:65E1                      				;[Skip delay] 2
    5700.  00:65E1  91 01               	db $91, $01		;[FM drum] 1
    5701.  00:65E3                      				;[Skip delay] 2
    5702.  00:65E3  91 06               	db $91, $06		;[FM drum] 11
    5703.  00:65E5  C3                  	db $C3		;[Wait] 4
    5704.  00:65E6  26                  	db $26		;[Note] 39
    5705.  00:65E7  91 02               	db $91, $02		;[FM drum] 2
    5706.  00:65E9                      				;[Skip delay] 4
    5707.  00:65E9  91 05               	db $91, $05		;[FM drum] 6
    5708.  00:65EB  C1                  	db $C1		;[Wait] 2
    5709.  00:65EC  91 01               	db $91, $01		;[FM drum] 1
    5710.  00:65EE                      				;[Skip delay] 2
    5711.  00:65EE  26                  	db $26		;[Note] 39
    5712.  00:65EF  91 02               	db $91, $02		;[FM drum] 2
    5713.  00:65F1                      				;[Skip delay] 2
    5714.  00:65F1  91 01               	db $91, $01		;[FM drum] 1
    5715.  00:65F3                      				;[Skip delay] 2
    5716.  00:65F3  91 06               	db $91, $06		;[FM drum] 11
    5717.  00:65F5                      				;[Skip delay] 2
    5718.  00:65F5  91 01               	db $91, $01		;[FM drum] 1
    5719.  00:65F7                      				;[Skip delay] 2
    5720.  00:65F7  26                  	db $26		;[Note] 39
    5721.  00:65F8  91 02               	db $91, $02		;[FM drum] 2
    5722.  00:65FA                      				;[Skip delay] 2
    5723.  00:65FA  91 05               	db $91, $05		;[FM drum] 6
    5724.  00:65FC                      				;[Skip delay] 2
    5725.  00:65FC  91 01               	db $91, $01		;[FM drum] 1
    5726.  00:65FE  C3                  	db $C3		;[Wait] 4
    5727.  00:65FF  91 03               	db $91, $03		;[FM drum] 4
    5728.  00:6601                      				;[Skip delay] 4
    5729.  00:6601  26                  	db $26		;[Note] 39
    5730.  00:6602  91 02               	db $91, $02		;[FM drum] 2
    5731.  00:6604                      				;[Skip delay] 4
    5732.  00:6604  91 03               	db $91, $03		;[FM drum] 4
    5733.  00:6606  C1                  	db $C1		;[Wait] 2
    5734.  00:6607  91 05               	db $91, $05		;[FM drum] 6
    5735.  00:6609                      				;[Skip delay] 2
    5736.  00:6609  BF                  	db $BF		;[End-Of-Track]
    5737.  00:660A                      .track_90:
    5738.  00:660A  17                  	db $17		;[Note] 24
    5739.  00:660B  C3                  	db $C3		;[Wait] 4
    5740.  00:660C  0B                  	db $0B		;[Note] 12
    5741.  00:660D                      				;[Skip delay] 4
    5742.  00:660D  12                  	db $12		;[Note] 19
    5743.  00:660E  C1                  	db $C1		;[Wait] 2
    5744.  00:660F  17                  	db $17		;[Note] 24
    5745.  00:6610                      				;[Skip delay] 2
    5746.  00:6610  0B                  	db $0B		;[Note] 12
    5747.  00:6611                      				;[Skip delay] 2
    5748.  00:6611  19                  	db $19		;[Note] 26
    5749.  00:6612  C3                  	db $C3		;[Wait] 4
    5750.  00:6613  20                  	db $20		;[Note] 33
    5751.  00:6614  C1                  	db $C1		;[Wait] 2
    5752.  00:6615  1E                  	db $1E		;[Note] 31
    5753.  00:6616                      				;[Skip delay] 2
    5754.  00:6616  1B                  	db $1B		;[Note] 28
    5755.  00:6617                      				;[Skip delay] 2
    5756.  00:6617  16                  	db $16		;[Note] 23
    5757.  00:6618  C2                  	db $C2		;[Wait] 3
    5758.  00:6619  60                  	db $60		;[Note] 97
    5759.  00:661A  C0                  	db $C0		;[Wait] 1
    5760.  00:661B  1D                  	db $1D		;[Note] 30
    5761.  00:661C                      				;[Skip delay] 1
    5762.  00:661C  1E                  	db $1E		;[Note] 31
    5763.  00:661D                      				;[Skip delay] 1
    5764.  00:661D  1D                  	db $1D		;[Note] 30
    5765.  00:661E  C2                  	db $C2		;[Wait] 3
    5766.  00:661F  A5 03               	db $A5, $03		; slide-down
    5767.  00:6621  C0                  	db $C0		;[Wait] 1
    5768.  00:6622  1B                  	db $1B		;[Note] 28
    5769.  00:6623  C1                  	db $C1		;[Wait] 2
    5770.  00:6624  16                  	db $16		;[Note] 23
    5771.  00:6625                      				;[Skip delay] 2
    5772.  00:6625  12                  	db $12		;[Note] 19
    5773.  00:6626                      				;[Skip delay] 2
    5774.  00:6626  11                  	db $11		;[Note] 18
    5775.  00:6627  C2                  	db $C2		;[Wait] 3
    5776.  00:6628  60                  	db $60		;[Note] 97
    5777.  00:6629  C0                  	db $C0		;[Wait] 1
    5778.  00:662A  16                  	db $16		;[Note] 23
    5779.  00:662B                      				;[Skip delay] 1
    5780.  00:662B  60                  	db $60		;[Note] 97
    5781.  00:662C                      				;[Skip delay] 1
    5782.  00:662C  19                  	db $19		;[Note] 26
    5783.  00:662D  C3                  	db $C3		;[Wait] 4
    5784.  00:662E  0A                  	db $0A		;[Note] 11
    5785.  00:662F  C1                  	db $C1		;[Wait] 2
    5786.  00:6630  17                  	db $17		;[Note] 24
    5787.  00:6631                      				;[Skip delay] 2
    5788.  00:6631  16                  	db $16		;[Note] 23
    5789.  00:6632                      				;[Skip delay] 2
    5790.  00:6632  11                  	db $11		;[Note] 18
    5791.  00:6633                      				;[Skip delay] 2
    5792.  00:6633  17                  	db $17		;[Note] 24
    5793.  00:6634                      				;[Skip delay] 2
    5794.  00:6634  16                  	db $16		;[Note] 23
    5795.  00:6635  C0                  	db $C0		;[Wait] 1
    5796.  00:6636  60                  	db $60		;[Note] 97
    5797.  00:6637                      				;[Skip delay] 1
    5798.  00:6637  17                  	db $17		;[Note] 24
    5799.  00:6638  C1                  	db $C1		;[Wait] 2
    5800.  00:6639  BF                  	db $BF		;[End-Of-Track]
    5801.  00:663A                      .track_91:
    5802.  00:663A  33                  	db $33		;[Note] 52
    5803.  00:663B  C3                  	db $C3		;[Wait] 4
    5804.  00:663C  A7 75               	db $A7, $75		;[CMD vibrato]
    5805.  00:663E  C0                  	db $C0		;[Wait] 1
    5806.  00:663F  B1 03               	db $B1, $03		;[CMD vibrato] rep
    5807.  00:6641  C2                  	db $C2		;[Wait] 3
    5808.  00:6642  3A                  	db $3A		;[Note] 59
    5809.  00:6643  C3                  	db $C3		;[Wait] 4
    5810.  00:6644  A7 75               	db $A7, $75		;[CMD vibrato]
    5811.  00:6646  C0                  	db $C0		;[Wait] 1
    5812.  00:6647  B1 03               	db $B1, $03		;[CMD vibrato] rep
    5813.  00:6649  C2                  	db $C2		;[Wait] 3
    5814.  00:664A  38                  	db $38		;[Note] 57
    5815.  00:664B  C3                  	db $C3		;[Wait] 4
    5816.  00:664C  36                  	db $36		;[Note] 55
    5817.  00:664D                      				;[Skip delay] 4
    5818.  00:664D  35                  	db $35		;[Note] 54
    5819.  00:664E  C3                  	db $C3		;[Wait..] 4
    5820.  00:664F  A7 75               	db $A7, $75		;[CMD vibrato]
    5821.  00:6651  C0                  	db $C0		;[Wait] 1
    5822.  00:6652  B1 03               	db $B1, $03		;[CMD vibrato] rep
    5823.  00:6654  C2                  	db $C2		;[Wait] 3
    5824.  00:6655  38                  	db $38		;[Note] 57
    5825.  00:6656  C3                  	db $C3		;[Wait] 4
    5826.  00:6657  A7 75               	db $A7, $75		;[CMD vibrato]
    5827.  00:6659  C0                  	db $C0		;[Wait] 1
    5828.  00:665A  B1 03               	db $B1, $03		;[CMD vibrato] rep
    5829.  00:665C  C2                  	db $C2		;[Wait] 3
    5830.  00:665D  31                  	db $31		;[Note] 50
    5831.  00:665E  C3                  	db $C3		;[Wait] 4
    5832.  00:665F  33                  	db $33		;[Note] 52
    5833.  00:6660  C3                  	db $C3		;[Wait..] 4
    5834.  00:6661  A7 75               	db $A7, $75		;[CMD vibrato]
    5835.  00:6663  C0                  	db $C0		;[Wait] 1
    5836.  00:6664  B1 03               	db $B1, $03		;[CMD vibrato] rep
    5837.  00:6666  C2                  	db $C2		;[Wait] 3
    5838.  00:6667  35                  	db $35		;[Note] 54
    5839.  00:6668  C3                  	db $C3		;[Wait] 4
    5840.  00:6669  A7 75               	db $A7, $75		;[CMD vibrato]
    5841.  00:666B  C0                  	db $C0		;[Wait] 1
    5842.  00:666C  B1 03               	db $B1, $03		;[CMD vibrato] rep
    5843.  00:666E  C2                  	db $C2		;[Wait] 3
    5844.  00:666F  31                  	db $31		;[Note] 50
    5845.  00:6670  C3                  	db $C3		;[Wait] 4
    5846.  00:6671  BF                  	db $BF		;[End-Of-Track]
    5847.  00:6672                      .track_92:
    5848.  00:6672  60                  	db $60		;[Note] 97
    5849.  00:6673  C1                  	db $C1		;[Wait] 2
    5850.  00:6674  2A                  	db $2A		;[Note] 43
    5851.  00:6675  C3                  	db $C3		;[Wait] 4
    5852.  00:6676  A7 75               	db $A7, $75		;[CMD vibrato]
    5853.  00:6678  C0                  	db $C0		;[Wait] 1
    5854.  00:6679  B1 03               	db $B1, $03		;[CMD vibrato] rep
    5855.  00:667B  C2                  	db $C2		;[Wait] 3
    5856.  00:667C  36                  	db $36		;[Note] 55
    5857.  00:667D  C3                  	db $C3		;[Wait] 4
    5858.  00:667E  A7 75               	db $A7, $75		;[CMD vibrato]
    5859.  00:6680  C0                  	db $C0		;[Wait] 1
    5860.  00:6681  B1 03               	db $B1, $03		;[CMD vibrato] rep
    5861.  00:6683  C2                  	db $C2		;[Wait] 3
    5862.  00:6684  35                  	db $35		;[Note] 54
    5863.  00:6685  C3                  	db $C3		;[Wait] 4
    5864.  00:6686  36                  	db $36		;[Note] 55
    5865.  00:6687                      				;[Skip delay] 4
    5866.  00:6687  38                  	db $38		;[Note] 57
    5867.  00:6688                      				;[Skip delay] 4
    5868.  00:6688  38                  	db $38		;[Note] 57
    5869.  00:6689  C3                  	db $C3		;[Wait..] 4
    5870.  00:668A  A7 75               	db $A7, $75		;[CMD vibrato]
    5871.  00:668C  C0                  	db $C0		;[Wait] 1
    5872.  00:668D  B1 0B               	db $B1, $0B		;[CMD vibrato] rep
    5873.  00:668F  CA                  	db $CA		;[Wait] 11
    5874.  00:6690  3A                  	db $3A		;[Note] 59
    5875.  00:6691  C3                  	db $C3		;[Wait] 4
    5876.  00:6692  A7 75               	db $A7, $75		;[CMD vibrato]
    5877.  00:6694  C0                  	db $C0		;[Wait] 1
    5878.  00:6695  B1 03               	db $B1, $03		;[CMD vibrato] rep
    5879.  00:6697  C2                  	db $C2		;[Wait] 3
    5880.  00:6698  3D                  	db $3D		;[Note] 62
    5881.  00:6699  C3                  	db $C3		;[Wait] 4
    5882.  00:669A  A7 75               	db $A7, $75		;[CMD vibrato]
    5883.  00:669C  C0                  	db $C0		;[Wait] 1
    5884.  00:669D  B1 03               	db $B1, $03		;[CMD vibrato] rep
    5885.  00:669F  C2                  	db $C2		;[Wait] 3
    5886.  00:66A0  3A                  	db $3A		;[Note] 59
    5887.  00:66A1  C1                  	db $C1		;[Wait] 2
    5888.  00:66A2  BF                  	db $BF		;[End-Of-Track]
    5889.  00:66A3                      .track_93:
    5890.  00:66A3  C1                  	db $C1		;[Wait] 2
    5891.  00:66A4  33                  	db $33		;[Note] 52
    5892.  00:66A5  C3                  	db $C3		;[Wait] 4
    5893.  00:66A6  A7 75               	db $A7, $75		;[CMD vibrato]
    5894.  00:66A8  C0                  	db $C0		;[Wait] 1
    5895.  00:66A9  B1 03               	db $B1, $03		;[CMD vibrato] rep
    5896.  00:66AB  C2                  	db $C2		;[Wait] 3
    5897.  00:66AC  3A                  	db $3A		;[Note] 59
    5898.  00:66AD  C3                  	db $C3		;[Wait] 4
    5899.  00:66AE  A7 75               	db $A7, $75		;[CMD vibrato]
    5900.  00:66B0  C0                  	db $C0		;[Wait] 1
    5901.  00:66B1  B1 03               	db $B1, $03		;[CMD vibrato] rep
    5902.  00:66B3  C2                  	db $C2		;[Wait] 3
    5903.  00:66B4  38                  	db $38		;[Note] 57
    5904.  00:66B5  C3                  	db $C3		;[Wait] 4
    5905.  00:66B6  36                  	db $36		;[Note] 55
    5906.  00:66B7                      				;[Skip delay] 4
    5907.  00:66B7  35                  	db $35		;[Note] 54
    5908.  00:66B8  C3                  	db $C3		;[Wait..] 4
    5909.  00:66B9  A7 75               	db $A7, $75		;[CMD vibrato]
    5910.  00:66BB  C0                  	db $C0		;[Wait] 1
    5911.  00:66BC  B1 03               	db $B1, $03		;[CMD vibrato] rep
    5912.  00:66BE  C2                  	db $C2		;[Wait] 3
    5913.  00:66BF  38                  	db $38		;[Note] 57
    5914.  00:66C0  C3                  	db $C3		;[Wait] 4
    5915.  00:66C1  A7 75               	db $A7, $75		;[CMD vibrato]
    5916.  00:66C3  C0                  	db $C0		;[Wait] 1
    5917.  00:66C4  B1 03               	db $B1, $03		;[CMD vibrato] rep
    5918.  00:66C6  C2                  	db $C2		;[Wait] 3
    5919.  00:66C7  31                  	db $31		;[Note] 50
    5920.  00:66C8  C3                  	db $C3		;[Wait] 4
    5921.  00:66C9  33                  	db $33		;[Note] 52
    5922.  00:66CA  C3                  	db $C3		;[Wait..] 4
    5923.  00:66CB  A7 75               	db $A7, $75		;[CMD vibrato]
    5924.  00:66CD  C0                  	db $C0		;[Wait] 1
    5925.  00:66CE  B1 03               	db $B1, $03		;[CMD vibrato] rep
    5926.  00:66D0  C2                  	db $C2		;[Wait] 3
    5927.  00:66D1  35                  	db $35		;[Note] 54
    5928.  00:66D2  C3                  	db $C3		;[Wait] 4
    5929.  00:66D3  A7 75               	db $A7, $75		;[CMD vibrato]
    5930.  00:66D5  C0                  	db $C0		;[Wait] 1
    5931.  00:66D6  B1 03               	db $B1, $03		;[CMD vibrato] rep
    5932.  00:66D8  C2                  	db $C2		;[Wait] 3
    5933.  00:66D9  31                  	db $31		;[Note] 50
    5934.  00:66DA  C1                  	db $C1		;[Wait] 2
    5935.  00:66DB  BF                  	db $BF		;[End-Of-Track]
    5936.  00:66DC                      .track_94:
    5937.  00:66DC  2A                  	db $2A		;[Note] 43
    5938.  00:66DD  C3                  	db $C3		;[Wait] 4
    5939.  00:66DE  A7 75               	db $A7, $75		;[CMD vibrato]
    5940.  00:66E0  C0                  	db $C0		;[Wait] 1
    5941.  00:66E1  B1 03               	db $B1, $03		;[CMD vibrato] rep
    5942.  00:66E3  C2                  	db $C2		;[Wait] 3
    5943.  00:66E4  36                  	db $36		;[Note] 55
    5944.  00:66E5  C3                  	db $C3		;[Wait] 4
    5945.  00:66E6  A7 75               	db $A7, $75		;[CMD vibrato]
    5946.  00:66E8  C0                  	db $C0		;[Wait] 1
    5947.  00:66E9  B1 03               	db $B1, $03		;[CMD vibrato] rep
    5948.  00:66EB  C2                  	db $C2		;[Wait] 3
    5949.  00:66EC  35                  	db $35		;[Note] 54
    5950.  00:66ED  C3                  	db $C3		;[Wait] 4
    5951.  00:66EE  36                  	db $36		;[Note] 55
    5952.  00:66EF                      				;[Skip delay] 4
    5953.  00:66EF  38                  	db $38		;[Note] 57
    5954.  00:66F0                      				;[Skip delay] 4
    5955.  00:66F0  38                  	db $38		;[Note] 57
    5956.  00:66F1  C3                  	db $C3		;[Wait..] 4
    5957.  00:66F2  A7 75               	db $A7, $75		;[CMD vibrato]
    5958.  00:66F4  C0                  	db $C0		;[Wait] 1
    5959.  00:66F5  B1 0B               	db $B1, $0B		;[CMD vibrato] rep
    5960.  00:66F7  CA                  	db $CA		;[Wait] 11
    5961.  00:66F8  3A                  	db $3A		;[Note] 59
    5962.  00:66F9  C3                  	db $C3		;[Wait] 4
    5963.  00:66FA  A7 75               	db $A7, $75		;[CMD vibrato]
    5964.  00:66FC  C0                  	db $C0		;[Wait] 1
    5965.  00:66FD  B1 03               	db $B1, $03		;[CMD vibrato] rep
    5966.  00:66FF  C2                  	db $C2		;[Wait] 3
    5967.  00:6700  3D                  	db $3D		;[Note] 62
    5968.  00:6701  C3                  	db $C3		;[Wait] 4
    5969.  00:6702  A7 75               	db $A7, $75		;[CMD vibrato]
    5970.  00:6704  C0                  	db $C0		;[Wait] 1
    5971.  00:6705  B1 03               	db $B1, $03		;[CMD vibrato] rep
    5972.  00:6707  C2                  	db $C2		;[Wait] 3
    5973.  00:6708  3A                  	db $3A		;[Note] 59
    5974.  00:6709  C1                  	db $C1		;[Wait] 2
    5975.  00:670A  60                  	db $60		;[Note] 97
    5976.  00:670B                      				;[Skip delay] 2
    5977.  00:670B  BF                  	db $BF		;[End-Of-Track]
    5978.  00:670C                      .track_95:
    5979.  00:670C  C3                  	db $C3		;[Wait] 4
    5980.  00:670D  91 03               	db $91, $03		;[FM drum] 4
    5981.  00:670F                      				;[Skip delay] 4
    5982.  00:670F  26                  	db $26		;[Note] 39
    5983.  00:6710  6F                  	db $6F		;[Volume] 15
    5984.  00:6711  78                  	db $78		;[Instrument] 9
    5985.  00:6712  91 02               	db $91, $02		;[FM drum] 2
    5986.  00:6714  C1                  	db $C1		;[Wait] 2
    5987.  00:6715  26                  	db $26		;[Note] 39
    5988.  00:6716  67                  	db $67		;[Volume] 7
    5989.  00:6717  C1                  	db $C1		;[Wait..] 2
    5990.  00:6718  91 06               	db $91, $06		;[FM drum] 11
    5991.  00:671A  C3                  	db $C3		;[Wait] 4
    5992.  00:671B  91 06               	db $91, $06		;[FM drum] 11
    5993.  00:671D                      				;[Skip delay] 4
    5994.  00:671D  91 03               	db $91, $03		;[FM drum] 4
    5995.  00:671F                      				;[Skip delay] 4
    5996.  00:671F  26                  	db $26		;[Note] 39
    5997.  00:6720  6F                  	db $6F		;[Volume] 15
    5998.  00:6721  91 02               	db $91, $02		;[FM drum] 2
    5999.  00:6723  C1                  	db $C1		;[Wait] 2
    6000.  00:6724  26                  	db $26		;[Note] 39
    6001.  00:6725  67                  	db $67		;[Volume] 7
    6002.  00:6726  C1                  	db $C1		;[Wait..] 2
    6003.  00:6727  91 03               	db $91, $03		;[FM drum] 4
    6004.  00:6729  C3                  	db $C3		;[Wait] 4
    6005.  00:672A  91 05               	db $91, $05		;[FM drum] 6
    6006.  00:672C                      				;[Skip delay] 4
    6007.  00:672C  91 03               	db $91, $03		;[FM drum] 4
    6008.  00:672E                      				;[Skip delay] 4
    6009.  00:672E  26                  	db $26		;[Note] 39
    6010.  00:672F  6F                  	db $6F		;[Volume] 15
    6011.  00:6730  91 02               	db $91, $02		;[FM drum] 2
    6012.  00:6732  C1                  	db $C1		;[Wait] 2
    6013.  00:6733  26                  	db $26		;[Note] 39
    6014.  00:6734  67                  	db $67		;[Volume] 7
    6015.  00:6735  C1                  	db $C1		;[Wait..] 2
    6016.  00:6736  91 06               	db $91, $06		;[FM drum] 11
    6017.  00:6738  C3                  	db $C3		;[Wait] 4
    6018.  00:6739  91 05               	db $91, $05		;[FM drum] 6
    6019.  00:673B                      				;[Skip delay] 4
    6020.  00:673B  91 04               	db $91, $04		;[FM drum] 5
    6021.  00:673D                      				;[Skip delay] 4
    6022.  00:673D  26                  	db $26		;[Note] 39
    6023.  00:673E  6F                  	db $6F		;[Volume] 15
    6024.  00:673F  91 02               	db $91, $02		;[FM drum] 2
    6025.  00:6741  C1                  	db $C1		;[Wait] 2
    6026.  00:6742  26                  	db $26		;[Note] 39
    6027.  00:6743  67                  	db $67		;[Volume] 7
    6028.  00:6744                      				;[Skip delay] 2
    6029.  00:6744  26                  	db $26		;[Note] 39
    6030.  00:6745  6F                  	db $6F		;[Volume] 15
    6031.  00:6746  91 02               	db $91, $02		;[FM drum] 2
    6032.  00:6748                      				;[Skip delay] 2
    6033.  00:6748  26                  	db $26		;[Note] 39
    6034.  00:6749  67                  	db $67		;[Volume] 7
    6035.  00:674A                      				;[Skip delay] 2
    6036.  00:674A  BF                  	db $BF		;[End-Of-Track]
    6037.  00:674B                      .track_96:
    6038.  00:674B  C1                  	db $C1		;[Wait] 2
    6039.  00:674C  A7 75               	db $A7, $75		;[CMD vibrato]
    6040.  00:674E  C0                  	db $C0		;[Wait] 1
    6041.  00:674F  B1 01               	db $B1, $01		;[CMD vibrato] rep
    6042.  00:6751                      				;[Skip delay] 1
    6043.  00:6751  0B                  	db $0B		;[Note] 12
    6044.  00:6752  C3                  	db $C3		;[Wait] 4
    6045.  00:6753  0F                  	db $0F		;[Note] 16
    6046.  00:6754  C2                  	db $C2		;[Wait] 3
    6047.  00:6755  60                  	db $60		;[Note] 97
    6048.  00:6756  C0                  	db $C0		;[Wait] 1
    6049.  00:6757  12                  	db $12		;[Note] 19
    6050.  00:6758  C5                  	db $C5		;[Wait] 6
    6051.  00:6759  60                  	db $60		;[Note] 97
    6052.  00:675A  C1                  	db $C1		;[Wait] 2
    6053.  00:675B  17                  	db $17		;[Note] 24
    6054.  00:675C  C3                  	db $C3		;[Wait] 4
    6055.  00:675D  A7 75               	db $A7, $75		;[CMD vibrato]
    6056.  00:675F  C0                  	db $C0		;[Wait] 1
    6057.  00:6760  B1 07               	db $B1, $07		;[CMD vibrato] rep
    6058.  00:6762  C5                  	db $C5		;[Wait] 6
    6059.  00:6763  60                  	db $60		;[Note] 97
    6060.  00:6764  C0                  	db $C0		;[Wait] 1
    6061.  00:6765  19                  	db $19		;[Note] 26
    6062.  00:6766  C3                  	db $C3		;[Wait] 4
    6063.  00:6767  0D                  	db $0D		;[Note] 14
    6064.  00:6768                      				;[Skip delay] 4
    6065.  00:6768  14                  	db $14		;[Note] 21
    6066.  00:6769  C2                  	db $C2		;[Wait] 3
    6067.  00:676A  60                  	db $60		;[Note] 97
    6068.  00:676B  C0                  	db $C0		;[Wait] 1
    6069.  00:676C  19                  	db $19		;[Note] 26
    6070.  00:676D  C3                  	db $C3		;[Wait] 4
    6071.  00:676E  19                  	db $19		;[Note] 26
    6072.  00:676F  C0                  	db $C0		;[Wait] 1
    6073.  00:6770  1B                  	db $1B		;[Note] 28
    6074.  00:6771  C4                  	db $C4		;[Wait] 5
    6075.  00:6772  16                  	db $16		;[Note] 23
    6076.  00:6773  C5                  	db $C5		;[Wait] 6
    6077.  00:6774  11                  	db $11		;[Note] 18
    6078.  00:6775  C1                  	db $C1		;[Wait] 2
    6079.  00:6776  60                  	db $60		;[Note] 97
    6080.  00:6777                      				;[Skip delay] 2
    6081.  00:6777  BF                  	db $BF		;[End-Of-Track]
    6082.  00:6778                      .track_97:
    6083.  00:6778  36                  	db $36		;[Note] 55
    6084.  00:6779  C3                  	db $C3		;[Wait] 4
    6085.  00:677A  A7 75               	db $A7, $75		;[CMD vibrato]
    6086.  00:677C  C0                  	db $C0		;[Wait] 1
    6087.  00:677D  B1 15               	db $B1, $15		;[CMD vibrato] rep
    6088.  00:677F  D4                  	db $D4		;[Wait] 21
    6089.  00:6780  60                  	db $60		;[Note] 97
    6090.  00:6781  C1                  	db $C1		;[Wait] 2
    6091.  00:6782  38                  	db $38		;[Note] 57
    6092.  00:6783                      				;[Skip delay] 2
    6093.  00:6783  36                  	db $36		;[Note] 55
    6094.  00:6784                      				;[Skip delay] 2
    6095.  00:6784  35                  	db $35		;[Note] 54
    6096.  00:6785  C3                  	db $C3		;[Wait] 4
    6097.  00:6786  A7 75               	db $A7, $75		;[CMD vibrato]
    6098.  00:6788  C0                  	db $C0		;[Wait] 1
    6099.  00:6789  B1 07               	db $B1, $07		;[CMD vibrato] rep
    6100.  00:678B  C6                  	db $C6		;[Wait] 7
    6101.  00:678C  31                  	db $31		;[Note] 50
    6102.  00:678D  C3                  	db $C3		;[Wait] 4
    6103.  00:678E  A7 75               	db $A7, $75		;[CMD vibrato]
    6104.  00:6790  C0                  	db $C0		;[Wait] 1
    6105.  00:6791  B1 03               	db $B1, $03		;[CMD vibrato] rep
    6106.  00:6793  C2                  	db $C2		;[Wait] 3
    6107.  00:6794  2E                  	db $2E		;[Note] 47
    6108.  00:6795  C3                  	db $C3		;[Wait] 4
    6109.  00:6796  A7 75               	db $A7, $75		;[CMD vibrato]
    6110.  00:6798  C0                  	db $C0		;[Wait] 1
    6111.  00:6799  B1 03               	db $B1, $03		;[CMD vibrato] rep
    6112.  00:679B  C2                  	db $C2		;[Wait] 3
    6113.  00:679C  33                  	db $33		;[Note] 52
    6114.  00:679D  C1                  	db $C1		;[Wait] 2
    6115.  00:679E  60                  	db $60		;[Note] 97
    6116.  00:679F                      				;[Skip delay] 2
    6117.  00:679F  BF                  	db $BF		;[End-Of-Track]
    6118.  00:67A0                      .track_98:
    6119.  00:67A0  60                  	db $60		;[Note] 97
    6120.  00:67A1  C1                  	db $C1		;[Wait] 2
    6121.  00:67A2  33                  	db $33		;[Note] 52
    6122.  00:67A3  C3                  	db $C3		;[Wait] 4
    6123.  00:67A4  A7 75               	db $A7, $75		;[CMD vibrato]
    6124.  00:67A6  C0                  	db $C0		;[Wait] 1
    6125.  00:67A7  B1 1B               	db $B1, $1B		;[CMD vibrato] rep
    6126.  00:67A9  DA                  	db $DA		;[Wait] 27
    6127.  00:67AA  38                  	db $38		;[Note] 57
    6128.  00:67AB  C3                  	db $C3		;[Wait] 4
    6129.  00:67AC  A7 75               	db $A7, $75		;[CMD vibrato]
    6130.  00:67AE  C0                  	db $C0		;[Wait] 1
    6131.  00:67AF  B1 07               	db $B1, $07		;[CMD vibrato] rep
    6132.  00:67B1  C6                  	db $C6		;[Wait] 7
    6133.  00:67B2  35                  	db $35		;[Note] 54
    6134.  00:67B3  C7                  	db $C7		;[Wait] 8
    6135.  00:67B4  31                  	db $31		;[Note] 50
    6136.  00:67B5  C3                  	db $C3		;[Wait] 4
    6137.  00:67B6  A7 75               	db $A7, $75		;[CMD vibrato]
    6138.  00:67B8  C0                  	db $C0		;[Wait] 1
    6139.  00:67B9  B1 05               	db $B1, $05		;[CMD vibrato] rep
    6140.  00:67BB  C4                  	db $C4		;[Wait] 5
    6141.  00:67BC  BF                  	db $BF		;[End-Of-Track]
    6142.  00:67BD                      .track_99:
    6143.  00:67BD  C1                  	db $C1		;[Wait] 2
    6144.  00:67BE  36                  	db $36		;[Note] 55
    6145.  00:67BF  C3                  	db $C3		;[Wait] 4
    6146.  00:67C0  A7 75               	db $A7, $75		;[CMD vibrato]
    6147.  00:67C2  C0                  	db $C0		;[Wait] 1
    6148.  00:67C3  B1 15               	db $B1, $15		;[CMD vibrato] rep
    6149.  00:67C5  D4                  	db $D4		;[Wait] 21
    6150.  00:67C6  60                  	db $60		;[Note] 97
    6151.  00:67C7  C2                  	db $C2		;[Wait] 3
    6152.  00:67C8  38                  	db $38		;[Note] 57
    6153.  00:67C9  C1                  	db $C1		;[Wait] 2
    6154.  00:67CA  36                  	db $36		;[Note] 55
    6155.  00:67CB                      				;[Skip delay] 2
    6156.  00:67CB  35                  	db $35		;[Note] 54
    6157.  00:67CC  C2                  	db $C2		;[Wait] 3
    6158.  00:67CD  A7 75               	db $A7, $75		;[CMD vibrato]
    6159.  00:67CF  C0                  	db $C0		;[Wait] 1
    6160.  00:67D0  B1 07               	db $B1, $07		;[CMD vibrato] rep
    6161.  00:67D2  C6                  	db $C6		;[Wait] 7
    6162.  00:67D3  31                  	db $31		;[Note] 50
    6163.  00:67D4  C3                  	db $C3		;[Wait] 4
    6164.  00:67D5  A7 75               	db $A7, $75		;[CMD vibrato]
    6165.  00:67D7  C0                  	db $C0		;[Wait] 1
    6166.  00:67D8  B1 03               	db $B1, $03		;[CMD vibrato] rep
    6167.  00:67DA  C2                  	db $C2		;[Wait] 3
    6168.  00:67DB  2E                  	db $2E		;[Note] 47
    6169.  00:67DC  C3                  	db $C3		;[Wait] 4
    6170.  00:67DD  A7 75               	db $A7, $75		;[CMD vibrato]
    6171.  00:67DF  C0                  	db $C0		;[Wait] 1
    6172.  00:67E0  B1 03               	db $B1, $03		;[CMD vibrato] rep
    6173.  00:67E2  C2                  	db $C2		;[Wait] 3
    6174.  00:67E3  33                  	db $33		;[Note] 52
    6175.  00:67E4  C1                  	db $C1		;[Wait] 2
    6176.  00:67E5  BF                  	db $BF		;[End-Of-Track]
    6177.  00:67E6                      .track_100:
    6178.  00:67E6  33                  	db $33		;[Note] 52
    6179.  00:67E7  C3                  	db $C3		;[Wait] 4
    6180.  00:67E8  A7 75               	db $A7, $75		;[CMD vibrato]
    6181.  00:67EA  C0                  	db $C0		;[Wait] 1
    6182.  00:67EB  B1 1B               	db $B1, $1B		;[CMD vibrato] rep
    6183.  00:67ED  DA                  	db $DA		;[Wait] 27
    6184.  00:67EE  38                  	db $38		;[Note] 57
    6185.  00:67EF  C3                  	db $C3		;[Wait] 4
    6186.  00:67F0  A7 75               	db $A7, $75		;[CMD vibrato]
    6187.  00:67F2  C0                  	db $C0		;[Wait] 1
    6188.  00:67F3  B1 07               	db $B1, $07		;[CMD vibrato] rep
    6189.  00:67F5  C6                  	db $C6		;[Wait] 7
    6190.  00:67F6  35                  	db $35		;[Note] 54
    6191.  00:67F7  C7                  	db $C7		;[Wait] 8
    6192.  00:67F8  31                  	db $31		;[Note] 50
    6193.  00:67F9  C3                  	db $C3		;[Wait] 4
    6194.  00:67FA  A7 75               	db $A7, $75		;[CMD vibrato]
    6195.  00:67FC  C0                  	db $C0		;[Wait] 1
    6196.  00:67FD  B1 07               	db $B1, $07		;[CMD vibrato] rep
    6197.  00:67FF  C6                  	db $C6		;[Wait] 7
    6198.  00:6800  BF                  	db $BF		;[End-Of-Track]
    6199.  00:6801                      .track_101:
    6200.  00:6801  91 05               	db $91, $05		;[FM drum] 6
    6201.  00:6803  C1                  	db $C1		;[Wait] 2
    6202.  00:6804  91 08               	db $91, $08		;[FM drum] 14
    6203.  00:6806                      				;[Skip delay] 2
    6204.  00:6806  91 08               	db $91, $08		;[FM drum] 14
    6205.  00:6808                      				;[Skip delay] 2
    6206.  00:6808  91 08               	db $91, $08		;[FM drum] 14
    6207.  00:680A                      				;[Skip delay] 2
    6208.  00:680A  91 05               	db $91, $05		;[FM drum] 6
    6209.  00:680C                      				;[Skip delay] 2
    6210.  00:680C  91 08               	db $91, $08		;[FM drum] 14
    6211.  00:680E                      				;[Skip delay] 2
    6212.  00:680E  91 08               	db $91, $08		;[FM drum] 14
    6213.  00:6810                      				;[Skip delay] 2
    6214.  00:6810  91 08               	db $91, $08		;[FM drum] 14
    6215.  00:6812                      				;[Skip delay] 2
    6216.  00:6812  91 05               	db $91, $05		;[FM drum] 6
    6217.  00:6814                      				;[Skip delay] 2
    6218.  00:6814  91 08               	db $91, $08		;[FM drum] 14
    6219.  00:6816                      				;[Skip delay] 2
    6220.  00:6816  91 08               	db $91, $08		;[FM drum] 14
    6221.  00:6818                      				;[Skip delay] 2
    6222.  00:6818  91 08               	db $91, $08		;[FM drum] 14
    6223.  00:681A                      				;[Skip delay] 2
    6224.  00:681A  91 05               	db $91, $05		;[FM drum] 6
    6225.  00:681C                      				;[Skip delay] 2
    6226.  00:681C  91 08               	db $91, $08		;[FM drum] 14
    6227.  00:681E                      				;[Skip delay] 2
    6228.  00:681E  91 08               	db $91, $08		;[FM drum] 14
    6229.  00:6820                      				;[Skip delay] 2
    6230.  00:6820  91 08               	db $91, $08		;[FM drum] 14
    6231.  00:6822                      				;[Skip delay] 2
    6232.  00:6822  91 05               	db $91, $05		;[FM drum] 6
    6233.  00:6824                      				;[Skip delay] 2
    6234.  00:6824  91 09               	db $91, $09		;[FM drum] 15
    6235.  00:6826                      				;[Skip delay] 2
    6236.  00:6826  91 09               	db $91, $09		;[FM drum] 15
    6237.  00:6828                      				;[Skip delay] 2
    6238.  00:6828  91 09               	db $91, $09		;[FM drum] 15
    6239.  00:682A                      				;[Skip delay] 2
    6240.  00:682A  91 05               	db $91, $05		;[FM drum] 6
    6241.  00:682C                      				;[Skip delay] 2
    6242.  00:682C  91 09               	db $91, $09		;[FM drum] 15
    6243.  00:682E                      				;[Skip delay] 2
    6244.  00:682E  91 09               	db $91, $09		;[FM drum] 15
    6245.  00:6830                      				;[Skip delay] 2
    6246.  00:6830  91 09               	db $91, $09		;[FM drum] 15
    6247.  00:6832                      				;[Skip delay] 2
    6248.  00:6832  91 05               	db $91, $05		;[FM drum] 6
    6249.  00:6834                      				;[Skip delay] 2
    6250.  00:6834  91 09               	db $91, $09		;[FM drum] 15
    6251.  00:6836                      				;[Skip delay] 2
    6252.  00:6836  91 09               	db $91, $09		;[FM drum] 15
    6253.  00:6838                      				;[Skip delay] 2
    6254.  00:6838  91 09               	db $91, $09		;[FM drum] 15
    6255.  00:683A                      				;[Skip delay] 2
    6256.  00:683A  91 05               	db $91, $05		;[FM drum] 6
    6257.  00:683C                      				;[Skip delay] 2
    6258.  00:683C  91 09               	db $91, $09		;[FM drum] 15
    6259.  00:683E                      				;[Skip delay] 2
    6260.  00:683E  91 09               	db $91, $09		;[FM drum] 15
    6261.  00:6840                      				;[Skip delay] 2
    6262.  00:6840  91 09               	db $91, $09		;[FM drum] 15
    6263.  00:6842                      				;[Skip delay] 2
    6264.  00:6842  BF                  	db $BF		;[End-Of-Track]
    6265.  00:6843                      .track_102:
    6266.  00:6843  0F                  	db $0F		;[Note] 16
    6267.  00:6844  6A                  	db $6A		;[Volume] 10
    6268.  00:6845  C0                  	db $C0		;[Wait] 1
    6269.  00:6846  0F                  	db $0F		;[Note] 16
    6270.  00:6847                      				;[Skip delay] 1
    6271.  00:6847  0F                  	db $0F		;[Note] 16
    6272.  00:6848  C1                  	db $C1		;[Wait] 2
    6273.  00:6849  16                  	db $16		;[Note] 23
    6274.  00:684A                      				;[Skip delay] 2
    6275.  00:684A  0F                  	db $0F		;[Note] 16
    6276.  00:684B                      				;[Skip delay] 2
    6277.  00:684B  1B                  	db $1B		;[Note] 28
    6278.  00:684C                      				;[Skip delay] 2
    6279.  00:684C  0F                  	db $0F		;[Note] 16
    6280.  00:684D                      				;[Skip delay] 2
    6281.  00:684D  1B                  	db $1B		;[Note] 28
    6282.  00:684E                      				;[Skip delay] 2
    6283.  00:684E  1A                  	db $1A		;[Note] 27
    6284.  00:684F  C0                  	db $C0		;[Wait] 1
    6285.  00:6850  1A                  	db $1A		;[Note] 27
    6286.  00:6851                      				;[Skip delay] 1
    6287.  00:6851  0E                  	db $0E		;[Note] 15
    6288.  00:6852                      				;[Skip delay] 1
    6289.  00:6852  0E                  	db $0E		;[Note] 15
    6290.  00:6853                      				;[Skip delay] 1
    6291.  00:6853  0E                  	db $0E		;[Note] 15
    6292.  00:6854  C1                  	db $C1		;[Wait] 2
    6293.  00:6855  15                  	db $15		;[Note] 22
    6294.  00:6856                      				;[Skip delay] 2
    6295.  00:6856  0E                  	db $0E		;[Note] 15
    6296.  00:6857                      				;[Skip delay] 2
    6297.  00:6857  1A                  	db $1A		;[Note] 27
    6298.  00:6858                      				;[Skip delay] 2
    6299.  00:6858  0E                  	db $0E		;[Note] 15
    6300.  00:6859                      				;[Skip delay] 2
    6301.  00:6859  1A                  	db $1A		;[Note] 27
    6302.  00:685A                      				;[Skip delay] 2
    6303.  00:685A  19                  	db $19		;[Note] 26
    6304.  00:685B  C0                  	db $C0		;[Wait] 1
    6305.  00:685C  19                  	db $19		;[Note] 26
    6306.  00:685D                      				;[Skip delay] 1
    6307.  00:685D  0D                  	db $0D		;[Note] 14
    6308.  00:685E                      				;[Skip delay] 1
    6309.  00:685E  0D                  	db $0D		;[Note] 14
    6310.  00:685F                      				;[Skip delay] 1
    6311.  00:685F  0D                  	db $0D		;[Note] 14
    6312.  00:6860  C1                  	db $C1		;[Wait] 2
    6313.  00:6861  14                  	db $14		;[Note] 21
    6314.  00:6862                      				;[Skip delay] 2
    6315.  00:6862  0D                  	db $0D		;[Note] 14
    6316.  00:6863                      				;[Skip delay] 2
    6317.  00:6863  19                  	db $19		;[Note] 26
    6318.  00:6864                      				;[Skip delay] 2
    6319.  00:6864  0D                  	db $0D		;[Note] 14
    6320.  00:6865                      				;[Skip delay] 2
    6321.  00:6865  19                  	db $19		;[Note] 26
    6322.  00:6866                      				;[Skip delay] 2
    6323.  00:6866  1A                  	db $1A		;[Note] 27
    6324.  00:6867  C0                  	db $C0		;[Wait] 1
    6325.  00:6868  1A                  	db $1A		;[Note] 27
    6326.  00:6869                      				;[Skip delay] 1
    6327.  00:6869  14                  	db $14		;[Note] 21
    6328.  00:686A                      				;[Skip delay] 1
    6329.  00:686A  14                  	db $14		;[Note] 21
    6330.  00:686B                      				;[Skip delay] 1
    6331.  00:686B  14                  	db $14		;[Note] 21
    6332.  00:686C  C1                  	db $C1		;[Wait] 2
    6333.  00:686D  1B                  	db $1B		;[Note] 28
    6334.  00:686E                      				;[Skip delay] 2
    6335.  00:686E  14                  	db $14		;[Note] 21
    6336.  00:686F                      				;[Skip delay] 2
    6337.  00:686F  20                  	db $20		;[Note] 33
    6338.  00:6870                      				;[Skip delay] 2
    6339.  00:6870  14                  	db $14		;[Note] 21
    6340.  00:6871                      				;[Skip delay] 2
    6341.  00:6871  20                  	db $20		;[Note] 33
    6342.  00:6872                      				;[Skip delay] 2
    6343.  00:6872  15                  	db $15		;[Note] 22
    6344.  00:6873  C0                  	db $C0		;[Wait] 1
    6345.  00:6874  15                  	db $15		;[Note] 22
    6346.  00:6875                      				;[Skip delay] 1
    6347.  00:6875  BF                  	db $BF		;[End-Of-Track]
    6348.  00:6876                      .track_103:
    6349.  00:6876  0F                  	db $0F		;[Note] 16
    6350.  00:6877  6F                  	db $6F		;[Volume] 15
    6351.  00:6878  C0                  	db $C0		;[Wait] 1
    6352.  00:6879  0F                  	db $0F		;[Note] 16
    6353.  00:687A                      				;[Skip delay] 1
    6354.  00:687A  0F                  	db $0F		;[Note] 16
    6355.  00:687B  C1                  	db $C1		;[Wait] 2
    6356.  00:687C  16                  	db $16		;[Note] 23
    6357.  00:687D                      				;[Skip delay] 2
    6358.  00:687D  0F                  	db $0F		;[Note] 16
    6359.  00:687E                      				;[Skip delay] 2
    6360.  00:687E  1B                  	db $1B		;[Note] 28
    6361.  00:687F                      				;[Skip delay] 2
    6362.  00:687F  0F                  	db $0F		;[Note] 16
    6363.  00:6880                      				;[Skip delay] 2
    6364.  00:6880  1B                  	db $1B		;[Note] 28
    6365.  00:6881                      				;[Skip delay] 2
    6366.  00:6881  1A                  	db $1A		;[Note] 27
    6367.  00:6882  C0                  	db $C0		;[Wait] 1
    6368.  00:6883  1A                  	db $1A		;[Note] 27
    6369.  00:6884                      				;[Skip delay] 1
    6370.  00:6884  0E                  	db $0E		;[Note] 15
    6371.  00:6885                      				;[Skip delay] 1
    6372.  00:6885  0E                  	db $0E		;[Note] 15
    6373.  00:6886                      				;[Skip delay] 1
    6374.  00:6886  0E                  	db $0E		;[Note] 15
    6375.  00:6887  C1                  	db $C1		;[Wait] 2
    6376.  00:6888  15                  	db $15		;[Note] 22
    6377.  00:6889                      				;[Skip delay] 2
    6378.  00:6889  0E                  	db $0E		;[Note] 15
    6379.  00:688A                      				;[Skip delay] 2
    6380.  00:688A  1A                  	db $1A		;[Note] 27
    6381.  00:688B                      				;[Skip delay] 2
    6382.  00:688B  0E                  	db $0E		;[Note] 15
    6383.  00:688C                      				;[Skip delay] 2
    6384.  00:688C  1A                  	db $1A		;[Note] 27
    6385.  00:688D                      				;[Skip delay] 2
    6386.  00:688D  19                  	db $19		;[Note] 26
    6387.  00:688E  C0                  	db $C0		;[Wait] 1
    6388.  00:688F  19                  	db $19		;[Note] 26
    6389.  00:6890                      				;[Skip delay] 1
    6390.  00:6890  0D                  	db $0D		;[Note] 14
    6391.  00:6891                      				;[Skip delay] 1
    6392.  00:6891  0D                  	db $0D		;[Note] 14
    6393.  00:6892                      				;[Skip delay] 1
    6394.  00:6892  0D                  	db $0D		;[Note] 14
    6395.  00:6893  C1                  	db $C1		;[Wait] 2
    6396.  00:6894  14                  	db $14		;[Note] 21
    6397.  00:6895                      				;[Skip delay] 2
    6398.  00:6895  0D                  	db $0D		;[Note] 14
    6399.  00:6896                      				;[Skip delay] 2
    6400.  00:6896  19                  	db $19		;[Note] 26
    6401.  00:6897                      				;[Skip delay] 2
    6402.  00:6897  0D                  	db $0D		;[Note] 14
    6403.  00:6898                      				;[Skip delay] 2
    6404.  00:6898  19                  	db $19		;[Note] 26
    6405.  00:6899                      				;[Skip delay] 2
    6406.  00:6899  1A                  	db $1A		;[Note] 27
    6407.  00:689A  C0                  	db $C0		;[Wait] 1
    6408.  00:689B  1A                  	db $1A		;[Note] 27
    6409.  00:689C                      				;[Skip delay] 1
    6410.  00:689C  14                  	db $14		;[Note] 21
    6411.  00:689D                      				;[Skip delay] 1
    6412.  00:689D  14                  	db $14		;[Note] 21
    6413.  00:689E                      				;[Skip delay] 1
    6414.  00:689E  14                  	db $14		;[Note] 21
    6415.  00:689F  C1                  	db $C1		;[Wait] 2
    6416.  00:68A0  1B                  	db $1B		;[Note] 28
    6417.  00:68A1                      				;[Skip delay] 2
    6418.  00:68A1  14                  	db $14		;[Note] 21
    6419.  00:68A2                      				;[Skip delay] 2
    6420.  00:68A2  20                  	db $20		;[Note] 33
    6421.  00:68A3                      				;[Skip delay] 2
    6422.  00:68A3  14                  	db $14		;[Note] 21
    6423.  00:68A4                      				;[Skip delay] 2
    6424.  00:68A4  20                  	db $20		;[Note] 33
    6425.  00:68A5                      				;[Skip delay] 2
    6426.  00:68A5  15                  	db $15		;[Note] 22
    6427.  00:68A6  C0                  	db $C0		;[Wait] 1
    6428.  00:68A7  15                  	db $15		;[Note] 22
    6429.  00:68A8                      				;[Skip delay] 1
    6430.  00:68A8  BF                  	db $BF		;[End-Of-Track]
    6431.  00:68A9                      .track_104:
    6432.  00:68A9  2E                  	db $2E		;[Note] 47
    6433.  00:68AA  6D                  	db $6D		;[Volume] 13
    6434.  00:68AB  75                  	db $75		;[Instrument] 6
    6435.  00:68AC  95 00               	db $95, $00		; track detune
    6436.  00:68AE  C1                  	db $C1		;[Wait] 2
    6437.  00:68AF  6E                  	db $6E		;[Volume] 14
    6438.  00:68B0  A7 75               	db $A7, $75		;[CMD vibrato]
    6439.  00:68B2  C0                  	db $C0		;[Wait] 1
    6440.  00:68B3  B1 1D               	db $B1, $1D		;[CMD vibrato] rep
    6441.  00:68B5                      				;[Skip delay] 1
    6442.  00:68B5  6F                  	db $6F		;[Volume] 15
    6443.  00:68B6  DB                  	db $DB		;[Wait] 28
    6444.  00:68B7  33                  	db $33		;[Note] 52
    6445.  00:68B8  6D                  	db $6D		;[Volume] 13
    6446.  00:68B9  C1                  	db $C1		;[Wait] 2
    6447.  00:68BA  6E                  	db $6E		;[Volume] 14
    6448.  00:68BB  A7 75               	db $A7, $75		;[CMD vibrato]
    6449.  00:68BD  C0                  	db $C0		;[Wait] 1
    6450.  00:68BE  B1 1D               	db $B1, $1D		;[CMD vibrato] rep
    6451.  00:68C0                      				;[Skip delay] 1
    6452.  00:68C0  6F                  	db $6F		;[Volume] 15
    6453.  00:68C1  DB                  	db $DB		;[Wait] 28
    6454.  00:68C2  BF                  	db $BF		;[End-Of-Track]
    6455.  00:68C3                      .track_105:
    6456.  00:68C3  33                  	db $33		;[Note] 52
    6457.  00:68C4  6F                  	db $6F		;[Volume] 15
    6458.  00:68C5  72                  	db $72		;[Instrument] 3
    6459.  00:68C6  95 00               	db $95, $00		; track detune
    6460.  00:68C8  C0                  	db $C0		;[Wait] 1
    6461.  00:68C9  33                  	db $33		;[Note] 52
    6462.  00:68CA                      				;[Skip delay] 1
    6463.  00:68CA  33                  	db $33		;[Note] 52
    6464.  00:68CB                      				;[Skip delay] 1
    6465.  00:68CB  60                  	db $60		;[Note] 97
    6466.  00:68CC                      				;[Skip delay] 1
    6467.  00:68CC  3F                  	db $3F		;[Note] 64
    6468.  00:68CD  C1                  	db $C1		;[Wait] 2
    6469.  00:68CE  A7 76               	db $A7, $76		;[CMD vibrato]
    6470.  00:68D0  C0                  	db $C0		;[Wait] 1
    6471.  00:68D1  B1 19               	db $B1, $19		;[CMD vibrato] rep
    6472.  00:68D3  D8                  	db $D8		;[Wait] 25
    6473.  00:68D4  31                  	db $31		;[Note] 50
    6474.  00:68D5  C0                  	db $C0		;[Wait] 1
    6475.  00:68D6  31                  	db $31		;[Note] 50
    6476.  00:68D7                      				;[Skip delay] 1
    6477.  00:68D7  3A                  	db $3A		;[Note] 59
    6478.  00:68D8                      				;[Skip delay] 1
    6479.  00:68D8  60                  	db $60		;[Note] 97
    6480.  00:68D9                      				;[Skip delay] 1
    6481.  00:68D9  3F                  	db $3F		;[Note] 64
    6482.  00:68DA  C1                  	db $C1		;[Wait] 2
    6483.  00:68DB  A7 76               	db $A7, $76		;[CMD vibrato]
    6484.  00:68DD  C0                  	db $C0		;[Wait] 1
    6485.  00:68DE  B1 19               	db $B1, $19		;[CMD vibrato] rep
    6486.  00:68E0  D8                  	db $D8		;[Wait] 25
    6487.  00:68E1  BF                  	db $BF		;[End-Of-Track]
    6488.  00:68E2                      .track_106:
    6489.  00:68E2  33                  	db $33		;[Note] 52
    6490.  00:68E3  6D                  	db $6D		;[Volume] 13
    6491.  00:68E4  81                  	db $81		;[Instrument] 18
    6492.  00:68E5  95 00               	db $95, $00		; track detune
    6493.  00:68E7  C1                  	db $C1		;[Wait] 2
    6494.  00:68E8  2E                  	db $2E		;[Note] 47
    6495.  00:68E9                      				;[Skip delay] 2
    6496.  00:68E9  35                  	db $35		;[Note] 54
    6497.  00:68EA                      				;[Skip delay] 2
    6498.  00:68EA  36                  	db $36		;[Note] 55
    6499.  00:68EB                      				;[Skip delay] 2
    6500.  00:68EB  33                  	db $33		;[Note] 52
    6501.  00:68EC                      				;[Skip delay] 2
    6502.  00:68EC  2E                  	db $2E		;[Note] 47
    6503.  00:68ED                      				;[Skip delay] 2
    6504.  00:68ED  35                  	db $35		;[Note] 54
    6505.  00:68EE                      				;[Skip delay] 2
    6506.  00:68EE  36                  	db $36		;[Note] 55
    6507.  00:68EF                      				;[Skip delay] 2
    6508.  00:68EF  33                  	db $33		;[Note] 52
    6509.  00:68F0                      				;[Skip delay] 2
    6510.  00:68F0  2E                  	db $2E		;[Note] 47
    6511.  00:68F1                      				;[Skip delay] 2
    6512.  00:68F1  35                  	db $35		;[Note] 54
    6513.  00:68F2                      				;[Skip delay] 2
    6514.  00:68F2  36                  	db $36		;[Note] 55
    6515.  00:68F3                      				;[Skip delay] 2
    6516.  00:68F3  33                  	db $33		;[Note] 52
    6517.  00:68F4                      				;[Skip delay] 2
    6518.  00:68F4  2E                  	db $2E		;[Note] 47
    6519.  00:68F5                      				;[Skip delay] 2
    6520.  00:68F5  35                  	db $35		;[Note] 54
    6521.  00:68F6                      				;[Skip delay] 2
    6522.  00:68F6  36                  	db $36		;[Note] 55
    6523.  00:68F7                      				;[Skip delay] 2
    6524.  00:68F7  33                  	db $33		;[Note] 52
    6525.  00:68F8                      				;[Skip delay] 2
    6526.  00:68F8  2E                  	db $2E		;[Note] 47
    6527.  00:68F9                      				;[Skip delay] 2
    6528.  00:68F9  35                  	db $35		;[Note] 54
    6529.  00:68FA                      				;[Skip delay] 2
    6530.  00:68FA  36                  	db $36		;[Note] 55
    6531.  00:68FB                      				;[Skip delay] 2
    6532.  00:68FB  33                  	db $33		;[Note] 52
    6533.  00:68FC                      				;[Skip delay] 2
    6534.  00:68FC  2E                  	db $2E		;[Note] 47
    6535.  00:68FD                      				;[Skip delay] 2
    6536.  00:68FD  35                  	db $35		;[Note] 54
    6537.  00:68FE                      				;[Skip delay] 2
    6538.  00:68FE  36                  	db $36		;[Note] 55
    6539.  00:68FF                      				;[Skip delay] 2
    6540.  00:68FF  33                  	db $33		;[Note] 52
    6541.  00:6900                      				;[Skip delay] 2
    6542.  00:6900  2E                  	db $2E		;[Note] 47
    6543.  00:6901                      				;[Skip delay] 2
    6544.  00:6901  35                  	db $35		;[Note] 54
    6545.  00:6902                      				;[Skip delay] 2
    6546.  00:6902  36                  	db $36		;[Note] 55
    6547.  00:6903                      				;[Skip delay] 2
    6548.  00:6903  33                  	db $33		;[Note] 52
    6549.  00:6904                      				;[Skip delay] 2
    6550.  00:6904  2E                  	db $2E		;[Note] 47
    6551.  00:6905                      				;[Skip delay] 2
    6552.  00:6905  35                  	db $35		;[Note] 54
    6553.  00:6906                      				;[Skip delay] 2
    6554.  00:6906  36                  	db $36		;[Note] 55
    6555.  00:6907                      				;[Skip delay] 2
    6556.  00:6907  BF                  	db $BF		;[End-Of-Track]
    6557.  00:6908                      .track_107:
    6558.  00:6908  3A                  	db $3A		;[Note] 59
    6559.  00:6909  6C                  	db $6C		;[Volume] 12
    6560.  00:690A  81                  	db $81		;[Instrument] 18
    6561.  00:690B  95 00               	db $95, $00		; track detune
    6562.  00:690D  C1                  	db $C1		;[Wait] 2
    6563.  00:690E  3F                  	db $3F		;[Note] 64
    6564.  00:690F                      				;[Skip delay] 2
    6565.  00:690F  41                  	db $41		;[Note] 66
    6566.  00:6910                      				;[Skip delay] 2
    6567.  00:6910  3A                  	db $3A		;[Note] 59
    6568.  00:6911                      				;[Skip delay] 2
    6569.  00:6911  41                  	db $41		;[Note] 66
    6570.  00:6912                      				;[Skip delay] 2
    6571.  00:6912  42                  	db $42		;[Note] 67
    6572.  00:6913                      				;[Skip delay] 2
    6573.  00:6913  3A                  	db $3A		;[Note] 59
    6574.  00:6914                      				;[Skip delay] 2
    6575.  00:6914  42                  	db $42		;[Note] 67
    6576.  00:6915                      				;[Skip delay] 2
    6577.  00:6915  41                  	db $41		;[Note] 66
    6578.  00:6916                      				;[Skip delay] 2
    6579.  00:6916  3F                  	db $3F		;[Note] 64
    6580.  00:6917                      				;[Skip delay] 2
    6581.  00:6917  3A                  	db $3A		;[Note] 59
    6582.  00:6918                      				;[Skip delay] 2
    6583.  00:6918  41                  	db $41		;[Note] 66
    6584.  00:6919                      				;[Skip delay] 2
    6585.  00:6919  3A                  	db $3A		;[Note] 59
    6586.  00:691A                      				;[Skip delay] 2
    6587.  00:691A  3F                  	db $3F		;[Note] 64
    6588.  00:691B                      				;[Skip delay] 2
    6589.  00:691B  41                  	db $41		;[Note] 66
    6590.  00:691C                      				;[Skip delay] 2
    6591.  00:691C  42                  	db $42		;[Note] 67
    6592.  00:691D                      				;[Skip delay] 2
    6593.  00:691D  3A                  	db $3A		;[Note] 59
    6594.  00:691E                      				;[Skip delay] 2
    6595.  00:691E  3F                  	db $3F		;[Note] 64
    6596.  00:691F                      				;[Skip delay] 2
    6597.  00:691F  41                  	db $41		;[Note] 66
    6598.  00:6920                      				;[Skip delay] 2
    6599.  00:6920  3A                  	db $3A		;[Note] 59
    6600.  00:6921                      				;[Skip delay] 2
    6601.  00:6921  41                  	db $41		;[Note] 66
    6602.  00:6922                      				;[Skip delay] 2
    6603.  00:6922  42                  	db $42		;[Note] 67
    6604.  00:6923                      				;[Skip delay] 2
    6605.  00:6923  3A                  	db $3A		;[Note] 59
    6606.  00:6924                      				;[Skip delay] 2
    6607.  00:6924  42                  	db $42		;[Note] 67
    6608.  00:6925                      				;[Skip delay] 2
    6609.  00:6925  41                  	db $41		;[Note] 66
    6610.  00:6926                      				;[Skip delay] 2
    6611.  00:6926  3F                  	db $3F		;[Note] 64
    6612.  00:6927                      				;[Skip delay] 2
    6613.  00:6927  3A                  	db $3A		;[Note] 59
    6614.  00:6928                      				;[Skip delay] 2
    6615.  00:6928  41                  	db $41		;[Note] 66
    6616.  00:6929                      				;[Skip delay] 2
    6617.  00:6929  3A                  	db $3A		;[Note] 59
    6618.  00:692A                      				;[Skip delay] 2
    6619.  00:692A  3F                  	db $3F		;[Note] 64
    6620.  00:692B                      				;[Skip delay] 2
    6621.  00:692B  41                  	db $41		;[Note] 66
    6622.  00:692C                      				;[Skip delay] 2
    6623.  00:692C  42                  	db $42		;[Note] 67
    6624.  00:692D                      				;[Skip delay] 2
    6625.  00:692D  BF                  	db $BF		;[End-Of-Track]
    6626.  00:692E                      .track_108:
    6627.  00:692E  60                  	db $60		;[Note] 97
    6628.  00:692F  C2                  	db $C2		;[Wait] 3
    6629.  00:6930  3A                  	db $3A		;[Note] 59
    6630.  00:6931  6A                  	db $6A		;[Volume] 10
    6631.  00:6932  81                  	db $81		;[Instrument] 18
    6632.  00:6933  95 01               	db $95, $01		; track detune
    6633.  00:6935  C1                  	db $C1		;[Wait] 2
    6634.  00:6936  3F                  	db $3F		;[Note] 64
    6635.  00:6937                      				;[Skip delay] 2
    6636.  00:6937  41                  	db $41		;[Note] 66
    6637.  00:6938                      				;[Skip delay] 2
    6638.  00:6938  3A                  	db $3A		;[Note] 59
    6639.  00:6939                      				;[Skip delay] 2
    6640.  00:6939  41                  	db $41		;[Note] 66
    6641.  00:693A                      				;[Skip delay] 2
    6642.  00:693A  42                  	db $42		;[Note] 67
    6643.  00:693B                      				;[Skip delay] 2
    6644.  00:693B  3A                  	db $3A		;[Note] 59
    6645.  00:693C                      				;[Skip delay] 2
    6646.  00:693C  42                  	db $42		;[Note] 67
    6647.  00:693D                      				;[Skip delay] 2
    6648.  00:693D  41                  	db $41		;[Note] 66
    6649.  00:693E                      				;[Skip delay] 2
    6650.  00:693E  3F                  	db $3F		;[Note] 64
    6651.  00:693F                      				;[Skip delay] 2
    6652.  00:693F  3A                  	db $3A		;[Note] 59
    6653.  00:6940                      				;[Skip delay] 2
    6654.  00:6940  41                  	db $41		;[Note] 66
    6655.  00:6941                      				;[Skip delay] 2
    6656.  00:6941  3A                  	db $3A		;[Note] 59
    6657.  00:6942                      				;[Skip delay] 2
    6658.  00:6942  3F                  	db $3F		;[Note] 64
    6659.  00:6943                      				;[Skip delay] 2
    6660.  00:6943  41                  	db $41		;[Note] 66
    6661.  00:6944                      				;[Skip delay] 2
    6662.  00:6944  42                  	db $42		;[Note] 67
    6663.  00:6945                      				;[Skip delay] 2
    6664.  00:6945  3A                  	db $3A		;[Note] 59
    6665.  00:6946                      				;[Skip delay] 2
    6666.  00:6946  3F                  	db $3F		;[Note] 64
    6667.  00:6947                      				;[Skip delay] 2
    6668.  00:6947  41                  	db $41		;[Note] 66
    6669.  00:6948                      				;[Skip delay] 2
    6670.  00:6948  3A                  	db $3A		;[Note] 59
    6671.  00:6949                      				;[Skip delay] 2
    6672.  00:6949  41                  	db $41		;[Note] 66
    6673.  00:694A                      				;[Skip delay] 2
    6674.  00:694A  42                  	db $42		;[Note] 67
    6675.  00:694B                      				;[Skip delay] 2
    6676.  00:694B  3A                  	db $3A		;[Note] 59
    6677.  00:694C                      				;[Skip delay] 2
    6678.  00:694C  42                  	db $42		;[Note] 67
    6679.  00:694D                      				;[Skip delay] 2
    6680.  00:694D  41                  	db $41		;[Note] 66
    6681.  00:694E                      				;[Skip delay] 2
    6682.  00:694E  3F                  	db $3F		;[Note] 64
    6683.  00:694F                      				;[Skip delay] 2
    6684.  00:694F  3A                  	db $3A		;[Note] 59
    6685.  00:6950                      				;[Skip delay] 2
    6686.  00:6950  41                  	db $41		;[Note] 66
    6687.  00:6951                      				;[Skip delay] 2
    6688.  00:6951  3A                  	db $3A		;[Note] 59
    6689.  00:6952                      				;[Skip delay] 2
    6690.  00:6952  3F                  	db $3F		;[Note] 64
    6691.  00:6953                      				;[Skip delay] 2
    6692.  00:6953  41                  	db $41		;[Note] 66
    6693.  00:6954  C0                  	db $C0		;[Wait] 1
    6694.  00:6955  BF                  	db $BF		;[End-Of-Track]
    6695.  00:6956                      .track_109:
    6696.  00:6956  91 05               	db $91, $05		;[FM drum] 6
    6697.  00:6958  C1                  	db $C1		;[Wait] 2
    6698.  00:6959  91 04               	db $91, $04		;[FM drum] 5
    6699.  00:695B                      				;[Skip delay] 2
    6700.  00:695B  91 04               	db $91, $04		;[FM drum] 5
    6701.  00:695D                      				;[Skip delay] 2
    6702.  00:695D  91 04               	db $91, $04		;[FM drum] 5
    6703.  00:695F                      				;[Skip delay] 2
    6704.  00:695F  91 05               	db $91, $05		;[FM drum] 6
    6705.  00:6961                      				;[Skip delay] 2
    6706.  00:6961  91 04               	db $91, $04		;[FM drum] 5
    6707.  00:6963                      				;[Skip delay] 2
    6708.  00:6963  91 04               	db $91, $04		;[FM drum] 5
    6709.  00:6965                      				;[Skip delay] 2
    6710.  00:6965  91 04               	db $91, $04		;[FM drum] 5
    6711.  00:6967                      				;[Skip delay] 2
    6712.  00:6967  91 05               	db $91, $05		;[FM drum] 6
    6713.  00:6969                      				;[Skip delay] 2
    6714.  00:6969  26                  	db $26		;[Note] 39
    6715.  00:696A  6F                  	db $6F		;[Volume] 15
    6716.  00:696B  78                  	db $78		;[Instrument] 9
    6717.  00:696C  91 02               	db $91, $02		;[FM drum] 2
    6718.  00:696E                      				;[Skip delay] 2
    6719.  00:696E  26                  	db $26		;[Note] 39
    6720.  00:696F  91 02               	db $91, $02		;[FM drum] 2
    6721.  00:6971                      				;[Skip delay] 2
    6722.  00:6971  26                  	db $26		;[Note] 39
    6723.  00:6972  69                  	db $69		;[Volume] 9
    6724.  00:6973  91 04               	db $91, $04		;[FM drum] 5
    6725.  00:6975                      				;[Skip delay] 2
    6726.  00:6975  26                  	db $26		;[Note] 39
    6727.  00:6976  6F                  	db $6F		;[Volume] 15
    6728.  00:6977  91 02               	db $91, $02		;[FM drum] 2
    6729.  00:6979  C0                  	db $C0		;[Wait] 1
    6730.  00:697A  26                  	db $26		;[Note] 39
    6731.  00:697B  91 02               	db $91, $02		;[FM drum] 2
    6732.  00:697D  C1                  	db $C1		;[Wait] 2
    6733.  00:697E  26                  	db $26		;[Note] 39
    6734.  00:697F  69                  	db $69		;[Volume] 9
    6735.  00:6980  91 01               	db $91, $01		;[FM drum] 1
    6736.  00:6982  C0                  	db $C0		;[Wait] 1
    6737.  00:6983  26                  	db $26		;[Note] 39
    6738.  00:6984  6F                  	db $6F		;[Volume] 15
    6739.  00:6985  91 02               	db $91, $02		;[FM drum] 2
    6740.  00:6987  C1                  	db $C1		;[Wait] 2
    6741.  00:6988  26                  	db $26		;[Note] 39
    6742.  00:6989  91 02               	db $91, $02		;[FM drum] 2
    6743.  00:698B  C0                  	db $C0		;[Wait] 1
    6744.  00:698C  26                  	db $26		;[Note] 39
    6745.  00:698D  91 02               	db $91, $02		;[FM drum] 2
    6746.  00:698F                      				;[Skip delay] 1
    6747.  00:698F  BF                  	db $BF		;[End-Of-Track]
    6748.  00:6990                      .track_110:
    6749.  00:6990  16                  	db $16		;[Note] 23
    6750.  00:6991  C0                  	db $C0		;[Wait] 1
    6751.  00:6992  16                  	db $16		;[Note] 23
    6752.  00:6993                      				;[Skip delay] 1
    6753.  00:6993  16                  	db $16		;[Note] 23
    6754.  00:6994  C1                  	db $C1		;[Wait] 2
    6755.  00:6995  1D                  	db $1D		;[Note] 30
    6756.  00:6996                      				;[Skip delay] 2
    6757.  00:6996  16                  	db $16		;[Note] 23
    6758.  00:6997                      				;[Skip delay] 2
    6759.  00:6997  22                  	db $22		;[Note] 35
    6760.  00:6998                      				;[Skip delay] 2
    6761.  00:6998  16                  	db $16		;[Note] 23
    6762.  00:6999                      				;[Skip delay] 2
    6763.  00:6999  21                  	db $21		;[Note] 34
    6764.  00:699A                      				;[Skip delay] 2
    6765.  00:699A  22                  	db $22		;[Note] 35
    6766.  00:699B  C0                  	db $C0		;[Wait] 1
    6767.  00:699C  22                  	db $22		;[Note] 35
    6768.  00:699D                      				;[Skip delay] 1
    6769.  00:699D  23                  	db $23		;[Note] 36
    6770.  00:699E                      				;[Skip delay] 1
    6771.  00:699E  23                  	db $23		;[Note] 36
    6772.  00:699F                      				;[Skip delay] 1
    6773.  00:699F  17                  	db $17		;[Note] 24
    6774.  00:69A0  C1                  	db $C1		;[Wait] 2
    6775.  00:69A1  16                  	db $16		;[Note] 23
    6776.  00:69A2                      				;[Skip delay] 2
    6777.  00:69A2  60                  	db $60		;[Note] 97
    6778.  00:69A3                      				;[Skip delay] 2
    6779.  00:69A3  16                  	db $16		;[Note] 23
    6780.  00:69A4  6A                  	db $6A		;[Volume] 10
    6781.  00:69A5  7E                  	db $7E		;[Instrument] 15
    6782.  00:69A6  95 03               	db $95, $03		; track detune
    6783.  00:69A8                      				;[Skip delay] 2
    6784.  00:69A8  0A                  	db $0A		;[Note] 11
    6785.  00:69A9                      				;[Skip delay] 2
    6786.  00:69A9  17                  	db $17		;[Note] 24
    6787.  00:69AA                      				;[Skip delay] 2
    6788.  00:69AA  19                  	db $19		;[Note] 26
    6789.  00:69AB                      				;[Skip delay] 2
    6790.  00:69AB  BF                  	db $BF		;[End-Of-Track]
    6791.  00:69AC                      .track_111:
    6792.  00:69AC  16                  	db $16		;[Note] 23
    6793.  00:69AD  C0                  	db $C0		;[Wait] 1
    6794.  00:69AE  16                  	db $16		;[Note] 23
    6795.  00:69AF                      				;[Skip delay] 1
    6796.  00:69AF  16                  	db $16		;[Note] 23
    6797.  00:69B0  C1                  	db $C1		;[Wait] 2
    6798.  00:69B1  1D                  	db $1D		;[Note] 30
    6799.  00:69B2                      				;[Skip delay] 2
    6800.  00:69B2  16                  	db $16		;[Note] 23
    6801.  00:69B3                      				;[Skip delay] 2
    6802.  00:69B3  22                  	db $22		;[Note] 35
    6803.  00:69B4                      				;[Skip delay] 2
    6804.  00:69B4  16                  	db $16		;[Note] 23
    6805.  00:69B5                      				;[Skip delay] 2
    6806.  00:69B5  21                  	db $21		;[Note] 34
    6807.  00:69B6                      				;[Skip delay] 2
    6808.  00:69B6  22                  	db $22		;[Note] 35
    6809.  00:69B7  C0                  	db $C0		;[Wait] 1
    6810.  00:69B8  22                  	db $22		;[Note] 35
    6811.  00:69B9                      				;[Skip delay] 1
    6812.  00:69B9  23                  	db $23		;[Note] 36
    6813.  00:69BA                      				;[Skip delay] 1
    6814.  00:69BA  23                  	db $23		;[Note] 36
    6815.  00:69BB                      				;[Skip delay] 1
    6816.  00:69BB  17                  	db $17		;[Note] 24
    6817.  00:69BC  C1                  	db $C1		;[Wait] 2
    6818.  00:69BD  16                  	db $16		;[Note] 23
    6819.  00:69BE                      				;[Skip delay] 2
    6820.  00:69BE  60                  	db $60		;[Note] 97
    6821.  00:69BF                      				;[Skip delay] 2
    6822.  00:69BF  16                  	db $16		;[Note] 23
    6823.  00:69C0  6F                  	db $6F		;[Volume] 15
    6824.  00:69C1  70                  	db $70		;[Instrument] 1
    6825.  00:69C2                      				;[Skip delay] 2
    6826.  00:69C2  0A                  	db $0A		;[Note] 11
    6827.  00:69C3                      				;[Skip delay] 2
    6828.  00:69C3  17                  	db $17		;[Note] 24
    6829.  00:69C4                      				;[Skip delay] 2
    6830.  00:69C4  19                  	db $19		;[Note] 26
    6831.  00:69C5  C0                  	db $C0		;[Wait] 1
    6832.  00:69C6  A5 02               	db $A5, $02		; slide-down
    6833.  00:69C8                      				;[Skip delay] 1
    6834.  00:69C8  BF                  	db $BF		;[End-Of-Track]
    6835.  00:69C9                      .track_112:
    6836.  00:69C9  35                  	db $35		;[Note] 54
    6837.  00:69CA  6D                  	db $6D		;[Volume] 13
    6838.  00:69CB  C1                  	db $C1		;[Wait] 2
    6839.  00:69CC  6E                  	db $6E		;[Volume] 14
    6840.  00:69CD  A7 75               	db $A7, $75		;[CMD vibrato]
    6841.  00:69CF  C0                  	db $C0		;[Wait] 1
    6842.  00:69D0  B1 0D               	db $B1, $0D		;[CMD vibrato] rep
    6843.  00:69D2                      				;[Skip delay] 1
    6844.  00:69D2  6F                  	db $6F		;[Volume] 15
    6845.  00:69D3  CB                  	db $CB		;[Wait] 12
    6846.  00:69D4  33                  	db $33		;[Note] 52
    6847.  00:69D5  C3                  	db $C3		;[Wait] 4
    6848.  00:69D6  60                  	db $60		;[Note] 97
    6849.  00:69D7                      				;[Skip delay] 4
    6850.  00:69D7  60                  	db $60		;[Note] 97
    6851.  00:69D8  71                  	db $71		;[Instrument] 2
    6852.  00:69D9  95 00               	db $95, $00		; track detune
    6853.  00:69DB  C5                  	db $C5		;[Wait] 6
    6854.  00:69DC  31                  	db $31		;[Note] 50
    6855.  00:69DD  C1                  	db $C1		;[Wait] 2
    6856.  00:69DE  BF                  	db $BF		;[End-Of-Track]
    6857.  00:69DF                      .track_113:
    6858.  00:69DF  33                  	db $33		;[Note] 52
    6859.  00:69E0  C0                  	db $C0		;[Wait] 1
    6860.  00:69E1  33                  	db $33		;[Note] 52
    6861.  00:69E2                      				;[Skip delay] 1
    6862.  00:69E2  3A                  	db $3A		;[Note] 59
    6863.  00:69E3                      				;[Skip delay] 1
    6864.  00:69E3  60                  	db $60		;[Note] 97
    6865.  00:69E4                      				;[Skip delay] 1
    6866.  00:69E4  3F                  	db $3F		;[Note] 64
    6867.  00:69E5  C1                  	db $C1		;[Wait] 2
    6868.  00:69E6  A7 75               	db $A7, $75		;[CMD vibrato]
    6869.  00:69E8  C0                  	db $C0		;[Wait] 1
    6870.  00:69E9  B1 17               	db $B1, $17		;[CMD vibrato] rep
    6871.  00:69EB  D6                  	db $D6		;[Wait] 23
    6872.  00:69EC  31                  	db $31		;[Note] 50
    6873.  00:69ED  95 00               	db $95, $00		; track detune
    6874.  00:69EF  C1                  	db $C1		;[Wait] 2
    6875.  00:69F0  BF                  	db $BF		;[End-Of-Track]
    6876.  00:69F1                      .track_114:
    6877.  00:69F1  33                  	db $33		;[Note] 52
    6878.  00:69F2  C1                  	db $C1		;[Wait] 2
    6879.  00:69F3  2E                  	db $2E		;[Note] 47
    6880.  00:69F4                      				;[Skip delay] 2
    6881.  00:69F4  35                  	db $35		;[Note] 54
    6882.  00:69F5                      				;[Skip delay] 2
    6883.  00:69F5  36                  	db $36		;[Note] 55
    6884.  00:69F6                      				;[Skip delay] 2
    6885.  00:69F6  33                  	db $33		;[Note] 52
    6886.  00:69F7                      				;[Skip delay] 2
    6887.  00:69F7  2E                  	db $2E		;[Note] 47
    6888.  00:69F8                      				;[Skip delay] 2
    6889.  00:69F8  35                  	db $35		;[Note] 54
    6890.  00:69F9                      				;[Skip delay] 2
    6891.  00:69F9  36                  	db $36		;[Note] 55
    6892.  00:69FA                      				;[Skip delay] 2
    6893.  00:69FA  33                  	db $33		;[Note] 52
    6894.  00:69FB                      				;[Skip delay] 2
    6895.  00:69FB  2E                  	db $2E		;[Note] 47
    6896.  00:69FC                      				;[Skip delay] 2
    6897.  00:69FC  35                  	db $35		;[Note] 54
    6898.  00:69FD                      				;[Skip delay] 2
    6899.  00:69FD  60                  	db $60		;[Note] 97
    6900.  00:69FE  C1                  	db $C1		;[Wait..] 2
    6901.  00:69FF  6F                  	db $6F		;[Volume] 15
    6902.  00:6A00  73                  	db $73		;[Instrument] 4
    6903.  00:6A01  95 02               	db $95, $02		; track detune
    6904.  00:6A03  C5                  	db $C5		;[Wait] 6
    6905.  00:6A04  3D                  	db $3D		;[Note] 62
    6906.  00:6A05  C1                  	db $C1		;[Wait] 2
    6907.  00:6A06  BF                  	db $BF		;[End-Of-Track]
    6908.  00:6A07                      .track_115:
    6909.  00:6A07  3A                  	db $3A		;[Note] 59
    6910.  00:6A08  C1                  	db $C1		;[Wait] 2
    6911.  00:6A09  3F                  	db $3F		;[Note] 64
    6912.  00:6A0A                      				;[Skip delay] 2
    6913.  00:6A0A  41                  	db $41		;[Note] 66
    6914.  00:6A0B                      				;[Skip delay] 2
    6915.  00:6A0B  3A                  	db $3A		;[Note] 59
    6916.  00:6A0C                      				;[Skip delay] 2
    6917.  00:6A0C  41                  	db $41		;[Note] 66
    6918.  00:6A0D                      				;[Skip delay] 2
    6919.  00:6A0D  42                  	db $42		;[Note] 67
    6920.  00:6A0E                      				;[Skip delay] 2
    6921.  00:6A0E  3A                  	db $3A		;[Note] 59
    6922.  00:6A0F                      				;[Skip delay] 2
    6923.  00:6A0F  42                  	db $42		;[Note] 67
    6924.  00:6A10                      				;[Skip delay] 2
    6925.  00:6A10  41                  	db $41		;[Note] 66
    6926.  00:6A11                      				;[Skip delay] 2
    6927.  00:6A11  3F                  	db $3F		;[Note] 64
    6928.  00:6A12                      				;[Skip delay] 2
    6929.  00:6A12  3A                  	db $3A		;[Note] 59
    6930.  00:6A13                      				;[Skip delay] 2
    6931.  00:6A13  60                  	db $60		;[Note] 97
    6932.  00:6A14  C1                  	db $C1		;[Wait..] 2
    6933.  00:6A15  69                  	db $69		;[Volume] 9
    6934.  00:6A16  74                  	db $74		;[Instrument] 5
    6935.  00:6A17  95 01               	db $95, $01		; track detune
    6936.  00:6A19  C7                  	db $C7		;[Wait] 8
    6937.  00:6A1A  BF                  	db $BF		;[End-Of-Track]
    6938.  00:6A1B                      .track_116:
    6939.  00:6A1B  C0                  	db $C0		;[Wait] 1
    6940.  00:6A1C  42                  	db $42		;[Note] 67
    6941.  00:6A1D  C1                  	db $C1		;[Wait] 2
    6942.  00:6A1E  3A                  	db $3A		;[Note] 59
    6943.  00:6A1F                      				;[Skip delay] 2
    6944.  00:6A1F  3F                  	db $3F		;[Note] 64
    6945.  00:6A20                      				;[Skip delay] 2
    6946.  00:6A20  41                  	db $41		;[Note] 66
    6947.  00:6A21                      				;[Skip delay] 2
    6948.  00:6A21  3A                  	db $3A		;[Note] 59
    6949.  00:6A22                      				;[Skip delay] 2
    6950.  00:6A22  41                  	db $41		;[Note] 66
    6951.  00:6A23                      				;[Skip delay] 2
    6952.  00:6A23  42                  	db $42		;[Note] 67
    6953.  00:6A24                      				;[Skip delay] 2
    6954.  00:6A24  3A                  	db $3A		;[Note] 59
    6955.  00:6A25                      				;[Skip delay] 2
    6956.  00:6A25  42                  	db $42		;[Note] 67
    6957.  00:6A26                      				;[Skip delay] 2
    6958.  00:6A26  41                  	db $41		;[Note] 66
    6959.  00:6A27                      				;[Skip delay] 2
    6960.  00:6A27  3F                  	db $3F		;[Note] 64
    6961.  00:6A28  69                  	db $69		;[Volume] 9
    6962.  00:6A29                      				;[Skip delay] 2
    6963.  00:6A29  3A                  	db $3A		;[Note] 59
    6964.  00:6A2A                      				;[Skip delay] 2
    6965.  00:6A2A  60                  	db $60		;[Note] 97
    6966.  00:6A2B  6B                  	db $6B		;[Volume] 11
    6967.  00:6A2C  72                  	db $72		;[Instrument] 3
    6968.  00:6A2D  95 01               	db $95, $01		; track detune
    6969.  00:6A2F  C6                  	db $C6		;[Wait] 7
    6970.  00:6A30  BF                  	db $BF		;[End-Of-Track]
    6971.  00:6A31                      .track_117:
    6972.  00:6A31  BF                  	db $BF		;[End-Of-Track]
    6973.  00:6A32                      ; [ Song sub-track data ]
     134   00:6A32                      
     135   00:6A32                      ;	include ".\sfx.asm"
     136   00:6A32                      	
     137   00:6A32                      ;sfx_PSG_STREAMS:
     138   00:6A32                      ;sfx_SCC_STREAMS:
     139   00:6A32                      ;	dw	sfx1
     140   00:6A32                      ;	dw	sfx2
     141   00:6A32                      ;	dw	sfx3
     142   00:6A32                      ;	dw	sfx4
     143   00:6A32                      ;	dw	sfx5
     144   00:6A32                      ;
     145   00:6A32                      ;
     146   00:6A32                      ;
     147   00:6A32                      ;sfx1:
     148   00:6A32                      ;	db	1,4*8
     149   00:6A32                      ;	incbin	"..\ttsfxplay\sfx\menu1.afx"
     150   00:6A32                      ;sfx2:
     151   00:6A32                      ;	db	1,2*8
     152   00:6A32                      ;	incbin	"..\ttsfxplay\sfx\menu2.afx"	
     153   00:6A32                      ;sfx3:
     154   00:6A32                      ;	db	1,3*8
     155   00:6A32                      ;	incbin	"..\ttsfxplay\sfx\menu3.afx"
     156   00:6A32                      ;sfx4:
     157   00:6A32                      ;	db	1,5*8
     158   00:6A32                      ;	incbin	"..\ttsfxplay\sfx\menu4.afx"
     159   00:6A32                      ;sfx5:
     160   00:6A32                      ;	db	1,6*8
     161   00:6A32                      ;	incbin	"..\ttsfxplay\sfx\menu5.afx"
     162   00:6A32                      ;
     163   00:6A32                      	
     164   00:6A32                      	
     165   00:6A32  (C000)              	map	0xc000
     166   00:6A32                      	include	"..\code\ttreplayRAM.asm"
       1.  00:6A32                      ;================================
       2.  00:6A32                      ; The new replayer.
       3.  00:6A32                      ;
       4.  00:6A32                      ; Persistent RAM unswappable
       5.  00:6A32                      ;
       6.  00:6A32                      ;================================
       7.  00:6A32                      
       8.  00:6A32  (00:FFFFFFEF)       TRACK_Instrument		equ 0-17
       9.  00:6A32  (00:FFFFFFF0)       TRACK_Command		equ 1-17
      10.  00:6A32  (00:FFFFFFF1)       TRACK_MacroPointer	equ 2-17
      11.  00:6A32  (00:FFFFFFF3)       TRACK_MacroStart		equ 4-17
      12.  00:6A32  (00:FFFFFFF5)       TRACK_MacroRestart 	equ 6-17		; no longer needed
      13.  00:6A32  (00:FFFFFFF6)       TRACK_Note			equ 7-17
      14.  00:6A32  (00:FFFFFFF7)       TRACK_Volume		equ 8-17
      15.  00:6A32  (00:FFFFFFF8)       TRACK_Voice			equ 9-17
      16.  00:6A32  (00:FFFFFFF9)       TRACK_Flags			equ 10-17
      17.  00:6A32                      	; 0 = note trigger
      18.  00:6A32                      	; 1 = note active
      19.  00:6A32                      	; 4 = morph active		;-< for SCC when 1 then waveform is following morph buffer
      20.  00:6A32                      	; 3 = command trigger
      21.  00:6A32                      	; 2 = envelope trigger
      22.  00:6A32                      	; 5 = instrument trigger
      23.  00:6A32                      	; 6 = waveform trigger
      24.  00:6A32                      	; 7 = PSG/SCC
      25.  00:6A32  (00:FFFFFFFA)       TRACK_empty			equ 11-17		; needed for pushing 0 at note start
      26.  00:6A32  (00:FFFFFFFB)       TRACK_ToneAdd		equ 12-17		; reset after note set
      27.  00:6A32  (00:FFFFFFFD)       TRACK_VolumeAdd		equ 14-17		; reset after note set
      28.  00:6A32  (00:FFFFFFFE)       TRACK_Noise			equ 15-17		; reset after note set
      29.  00:6A32  (00:FFFFFFFF)       TRACK_cmd_VolumeAdd	equ 16-17		; reset after note set
      30.  00:6A32  (00:0000)           TRACK_cmd_ToneSlideAdd	equ 17-17		; reset after note set
      31.  00:6A32  (00:0002)           TRACK_cmd_ToneAdd		equ 19-17		; reset after note set
      32.  00:6A32                      
      33.  00:6A32  (00:0004)           TRACK_cmd_detune		equ 21-17
      34.  00:6A32  (00:0005)           TRACK_cmd_0			equ 22-17
      35.  00:6A32  (00:0006)           TRACK_cmd_1			equ 23-17
      36.  00:6A32  (00:0007)           TRACK_cmd_2			equ 24-17
      37.  00:6A32  (00:0008)           TRACK_cmd_3			equ 25-17
      38.  00:6A32  (00:0009)           TRACK_cmd_4_depth		equ 26-17
      39.  00:6A32  (00:000A)           TRACK_cmd_4_step		equ 27-17
      40.  00:6A32  (00:000B)           TRACK_cmd_NoteAdd		equ 28-17		;x reset after note set
      41.  00:6A32  (00:000C)           TRACK_cmd_A			equ 29-17		
      42.  00:6A32  (00:000D)           TRACK_cmd_B			equ 30-17		
      43.  00:6A32  (00:000E)           TRACK_cmd_E			equ 31-17
      44.  00:6A32  (00:000F)           TRACK_Timer			equ 32-17		; used for timing by all cmd's
      45.  00:6A32  (00:0010)           TRACK_Step			equ 33-17		; only for VIBRATO???
      46.  00:6A32  (00:0011)           TRACK_Delay			equ 34-17		; rows to wait till next data
      47.  00:6A32  (00:0012)           TRACK_Retrig		equ 35-17		; rows to retrigger command
      48.  00:6A32  (00:0013)           TRACK_prevDelay		equ 36-17
      49.  00:6A32  (00:0014)           TRACK_cmd_A_add		equ 37-17		;<< Still in use???
      50.  00:6A32                      
      51.  00:6A32  (00:0026)           TRACK_REC_SIZE		equ 38
      52.  00:6A32                      
      53.  00:6A32                      
      54.  00:6A32  (00:0000)           B_TRGNOT			equ 0			; note trigger
      55.  00:6A32  (00:0001)           B_ACTNOT			equ 1			; note active
      56.  00:6A32  (00:0002)           B_TRGENV			equ 2			; envelope trigger
      57.  00:6A32  (00:0003)           B_TRGCMD			equ 3			; command active
      58.  00:6A32  (00:0004)           B_KEYON			equ 4			; for fm note trigger
      59.  00:6A32  (00:0005)           B_SUST			equ 5			; for fm note sustain
      60.  00:6A32  (00:0006)           B_TRGVOI			equ 6			; custom voice trigger	
      61.  00:6A32  (00:0007)           B_PSGFM			equ 7			; chip type (PSG or FM)	
      62.  00:6A32                      
      63.  00:6A32                      ;B_ACTMOR			equ 4			; morph active
      64.  00:6A32                      ;B_TRGINS			equ 5			; instrument trigger
      65.  00:6A32                      ;B_TRGWAV			equ 6			; waveform trigger
      66.  00:6A32                      
      67.  00:6A32                      
      68.  00:6A32  (00:C000)           _SP_Storage			#2			; to store the SP
      69.  00:6A32                      
      70.  00:6A32  (00:C002)           replay_trigger		#1			; trigger byte.
      71.  00:6A32  (00:C003)           replay_mainPSGvol		#2			; volume mixer for PSG SCC balance
      72.  00:6A32  (00:C005)           replay_mainSCCvol		#2			; volume mixer for PSG SCC balance
      73.  00:6A32                      ;replay_songbase:		#2			; pointer to song data
      74.  00:6A32  (00:C007)           replay_voicebase:		#2			; pointer to custom voice data
      75.  00:6A32  (00:C009)           replay_drumbase:		#2			; pointer to drummacro data
      76.  00:6A32  (00:C00B)           replay_insbase:		#2			; pointer to instrument data
      77.  00:6A32  (00:C00D)           replay_orderpointer:	#2			; pointer to the order track list pointers
      78.  00:6A32                      
      79.  00:6A32  (00:C00F)           replay_speed 		#1			; speed to replay (get from song)
      80.  00:6A32  (00:C010)           replay_speed_subtimer 	#1			; counter for finer speed
      81.  00:6A32  (00:C011)           replay_speed_timer 	#1 			; counter for speed
      82.  00:6A32  (00:C012)           replay_mode 		#1			; Replayer status
      83.  00:6A32                      ; mode 0  = no sound output
      84.  00:6A32                      ; mode 1  = replay song 
      85.  00:6A32  (00:C013)           replay_chan_setup		#1			; 0 = 2 psg+ 6 fm, 1 = 3psg + 5 fm
      86.  00:6A32  (00:C014)           replay_fade			#1			; Fade active (value = fade speed)
      87.  00:6A32  (00:C015)           replay_fade_timer		#1			; Timer for fade
      88.  00:6A32  (00:C016)           replay_fade_vol		#1			; fade volume to lower the channel volume.
      89.  00:6A32                      
      90.  00:6A32  (00:C017)           replay_previous_note	#1			; previous note played
      91.  00:6A32  (00:C018)           replay_mainvol		#2			; the volume correction.
      92.  00:6A32                      
      93.  00:6A32  (00:C01A)           replay_vib_table		#2			; pointer to the vibrato table
      94.  00:6A32  (00:C01C)           replay_Tonetable		#2			; ToneTable (affected by transpose);
      95.  00:6A32                      
      96.  00:6A32  (00:C01E)           replay_morph_active	#1			; flag to indicate morphing is active
      97.  00:6A32                      ;replay_morph_update	#1			; flag to indicate a new waveform is ready
      98.  00:6A32  (00:C01F)           replay_morph_timer	#1			; step timer between morphs
      99.  00:6A32  (00:C020)           replay_morph_speed	#1 
     100.  00:6A32  (00:C021)           replay_morph_counter	#1			; counter till end morph
     101.  00:6A32  (00:C022)           replay_morph_buffer	#64			; interleaved buffer with morphed waveform and morph delta values
     102.  00:6A32  (00:C062)           replay_morph_waveform	#1 			; waveform we are morphing to.
     103.  00:6A32                      
     104.  00:6A32  (00:C063)           equalization_freq:			#1	; vdp type for correct playback on 60hz 0=50Hx, >0=60Hz
     105.  00:6A32  (00:C064)           equalization_cnt:			#1	; counter for correct playback on 60hz
     106.  00:6A32  (00:C065)           equalization_flag:			#1	; flag indicating if only instruments need to be processed.
     107.  00:6A32                      
     108.  00:6A32                      
     109.  00:6A32                      
     110.  00:6A32  (00:C066)           TRACK_Chan1			#TRACK_REC_SIZE
     111.  00:6A32  (00:C08C)           TRACK_Chan2			#TRACK_REC_SIZE
     112.  00:6A32  (00:C0B2)           TRACK_Chan3			#TRACK_REC_SIZE
     113.  00:6A32  (00:C0D8)           TRACK_Chan4			#TRACK_REC_SIZE
     114.  00:6A32  (00:C0FE)           TRACK_Chan5			#TRACK_REC_SIZE
     115.  00:6A32  (00:C124)           TRACK_Chan6			#TRACK_REC_SIZE
     116.  00:6A32  (00:C14A)           TRACK_Chan7			#TRACK_REC_SIZE
     117.  00:6A32  (00:C170)           TRACK_Chan8			#TRACK_REC_SIZE
     118.  00:6A32                      
     119.  00:6A32  (00:C196)           TRACK_pointer1		#2
     120.  00:6A32  (00:C198)           TRACK_pointer2		#2
     121.  00:6A32  (00:C19A)           TRACK_pointer3		#2
     122.  00:6A32  (00:C19C)           TRACK_pointer4		#2
     123.  00:6A32  (00:C19E)           TRACK_pointer5		#2
     124.  00:6A32  (00:C1A0)           TRACK_pointer6		#2
     125.  00:6A32  (00:C1A2)           TRACK_pointer7		#2
     126.  00:6A32  (00:C1A4)           TRACK_pointer8		#2
     127.  00:6A32                      
     128.  00:6A32                      
     129.  00:6A32                      ;--- AY SPECIFIC
     130.  00:6A32  (00:C1A6)           AY_registers		#0 
     131.  00:6A32  (00:C1A6)           AY_regToneA 		#2	; Tone A freq low (8bit)
     132.  00:6A32                      					; Tone A freq high (4bit)
     133.  00:6A32  (00:C1A8)           AY_regToneB 		#2	; Tone B freq low
     134.  00:6A32                      					; Tone B freq high
     135.  00:6A32  (00:C1AA)           AY_regToneC 		#2	; Tone C freq low
     136.  00:6A32                      					; Tone C freq high
     137.  00:6A32  (00:C1AC)           AY_regNOISE 		#1	; Noise freq (5bit)
     138.  00:6A32  (00:C1AD)           AY_regMIXER 		#1	;0x38	;x3f	; Mixer control (1 = off, 0 = on)
     139.  00:6A32  (00:C1AE)           AY_regVOLA 			#1	; Chan A volume
     140.  00:6A32  (00:C1AF)           AY_regVOLB 			#1	; Chan B volume
     141.  00:6A32  (00:C1B0)           AY_regVOLC  		#1	; Chan C volume
     142.  00:6A32  (00:C1B1)           AY_regEnvL 			#1	; Volume Env Freq low (8bit)	
     143.  00:6A32  (00:C1B2)           AY_regEnvH 			#1	; Volume Env Freq high (4bit)
     144.  00:6A32  (00:C1B3)           AY_regEnvShape 		#1	; Volume Env Shape (4bit)
     145.  00:6A32                      
     146.  00:6A32                      ;--- SCC SPECIFIC
     147.  00:6A32                      
     148.  00:6A32  (00:C1B4)           _0x9800:	#32			; Waveform data
     149.  00:6A32  (00:C1D4)           _0x9820:	#32
     150.  00:6A32  (00:C1F4)           _0x9840:	#32
     151.  00:6A32  (00:C214)           _0x9860:	#32
     152.  00:6A32                      
     153.  00:6A32  (00:C234)           FM_registers 		#0
     154.  00:6A32  (00:C234)           FM_regToneA 		#2	; Tone A freq low (8bit)
     155.  00:6A32                      					; Tone A freq high (4bit)
     156.  00:6A32  (00:C236)           FM_regToneB 		#2	; Tone B freq low
     157.  00:6A32                      					; Tone B freq high
     158.  00:6A32  (00:C238)           FM_regToneC 		#2	; Tone C freq low
     159.  00:6A32                      					; Tone C freq high
     160.  00:6A32  (00:C23A)           FM_regToneD 		#2	; Tone D freq low
     161.  00:6A32                      					; Tone D freq high
     162.  00:6A32  (00:C23C)           FM_regToneE 		#2	; Tone E freq low
     163.  00:6A32                      					; Tone E freq high
     164.  00:6A32  (00:C23E)           FM_regToneF 		#2	; Tone F freq low
     165.  00:6A32                      					; Tone F freq high					
     166.  00:6A32  (00:C240)           FM_regVOLA 			#1	; Chan A volume
     167.  00:6A32  (00:C241)           FM_regVOLB 			#1	; Chan B volume
     168.  00:6A32  (00:C242)           FM_regVOLC  		#1	; Chan C volume
     169.  00:6A32  (00:C243)           FM_regVOLD 			#1	; Chan D volume
     170.  00:6A32  (00:C244)           FM_regVOLE  		#1	; Chan E volume
     171.  00:6A32  (00:C245)           FM_regVOLF  		#1	; Chan F volume
     172.  00:6A32                      
     173.  00:6A32  (00:C246)           FM_DRUM			#1	; Percussion bits
     174.  00:6A32  (00:C247)           FM_DRUM_Flags		#1	; 7, percusion, 6,4,2 = tone update, 5,3,1 = vol update
     175.  00:6A32  (00:C248)           FM_freqreg1			#2	; Base drum
     176.  00:6A32  (00:C24A)           FM_volreg1			#1	; Drum (low)
     177.  00:6A32  (00:C24B)           FM_freqreg2			#2	; Snare + HiHat
     178.  00:6A32  (00:C24D)           FM_volreg2			#1	; Snare(low) Hihat(High)
     179.  00:6A32  (00:C24E)           FM_freqreg3			#2	; Cymbal + TomTom
     180.  00:6A32  (00:C250)           FM_volreg3			#1	; Cymbal(low) TomTom (High)
     181.  00:6A32                      
     182.  00:6A32  (00:C251)           FM_DRUM_LEN			#1	; Length of drum macro
     183.  00:6A32  (00:C252)           FM_DRUM_MACRO		#2	; Pointer to drum macro data
     184.  00:6A32                      
     185.  00:6A32                      ; DEze lijkt niet meer nodig
     186.  00:6A32  (00:C254)           FM_regMIXER 		#1	; x3f	; Mixer control (1 = off, 0 = on)
     187.  00:6A32                      
     188.  00:6A32                      
     189.  00:6A32                      
     190.  00:6A32                      
     191.  00:6A32                      ;/// see to remove this.
     192.  00:6A32                      ;-- SCC registers
     193.  00:6A32  (00:C255)           oldregs:	#(32*4)+(3*5)+1		; a way to int the SCC
     194.  00:6A32                      
     195.  00:6A32                      
     167   00:6A32                      ;	include	"..\ttsfxplay\ttsfxplay_RAM.asm"
     168   00:6A32  (00:C2E5)           pattern	#1

    LABELS
-------------------------------------------------
00:00004010   initmain
00:00004056   infinite
00:0000406D   isr
00:00004076   replay_init
00:00004091   replay_pause
00:000040A6   _replay_pause_r
00:000040AC X replay_fade_out
00:000040B7 X replay_transpose
00:000040C0   replay_set_SCC_balance
00:000040C7   replay_set_PSG_balance
00:000040CE   _getnewbalancebase
00:000040DC   replay_loadsong
00:000041C2   _replay_check_patternend
00:000041E6   _replay_check_patternend.no_restart
00:000041F4   replay_play
00:000041FF X NTSC
00:00004213   PAL
00:0000422A X replay_decodedata
00:00004239   replay_decodedata.retrig_skip1
00:0000425A   replay_decodedata.decode2
00:00004269   replay_decodedata.retrig_skip2
00:0000428A   replay_decodedata.decode3
00:00004299   replay_decodedata.retrig_skip3
00:000042BA   replay_decodedata.decode4
00:000042C9   replay_decodedata.retrig_skip4
00:000042EA   replay_decodedata.decode5
00:000042F9   replay_decodedata.retrig_skip5
00:0000431A   replay_decodedata.decode6
00:00004329   replay_decodedata.retrig_skip6
00:0000434A   replay_decodedata.decode7
00:00004359   replay_decodedata.retrig_skip7
00:0000437A   replay_decodedata.decode8
00:00004389   replay_decodedata.retrig_skip8
00:000043AA   replay_decodedata.decode_end
00:000043AA   replay_decodedata_NO
00:000043EB X _rdd_3psg_5fm
00:00004403   _rdd_2psg_6fm
00:0000442F X _rdd_cont
00:000044BD   _rdd_cont.cont_fadeing
00:000044C3   _rdd_cont.no_new_step
00:000044D7   _rdd_cont.calc_vol
00:000044DD   _rdd_cont.no_carry
00:000044E2   replay_decode_chan
00:000044EE   _rdn2
00:000044F3   _rdv2
00:000044F8   _rdi2
00:00004500   _rdn
00:00004508   _rdi
00:00004510   _rdv
00:00004518   _rdc
00:00004522   _rd_delay
00:00004529   _replay_decode_note
00:00004535   _replay_decode_rest
00:0000453E   _replay_decode_ins
00:00004553   _replay_decode_ins.skip
00:00004570   _replay_decode_ins.skip_ins
00:00004575   _replay_decode_vol
00:0000458A   _replay_decode_delay
00:00004597   _replay_decode_cmd
00:000045A6   _replay_decode_cmd.skip
00:000045AD   DECODE_CMDLIST
00:000045FF   _CHIPcmd0_arpeggio
00:0000460F   _CHIPcmd1_port_up
00:0000461B   _CHIPcmd2_port_down
00:00004627   _CHIPcmd3_RE_port_tone
00:0000462D   _CHIPcmd3_port_tone
00:00004638   _CHIPcmd3_port_tone_cont
00:0000464F   _CHIPcmd3_port_tone_cont.skip
00:00004667   _CHIPcmd3_port_tone_cont.skip2
00:0000467B   _CHIPcmd4_vibrato
00:00004699   _CHIPcmd5_vibrato_port_tone
00:00004699   _CHIPcmd6_vibrato_vol
00:00004699   _CHIPcmd7_vol_slide
00:000046A9   _CHIPcmd8_macro_offset
00:000046AC   _CHIPcmd9_env_shape
00:000046B6   _CHIPcmdA_env_mul
00:000046CB   _CHIPcmd11_sustain_on
00:000046D1   _CHIPcmd12_sustain_off
00:000046D7   _CHIPcmdCd_drum
00:000046FC   _CHIPcmd13_short_arp
00:00004708   _CHIPcmd14_fine_up
00:00004708   _CHIPcmd15_fine_down
00:00004714   _CHIPcmd16_vib_ctrl
00:0000471F X _cmd16_pulse
00:00004728   _cmd16_tri
00:00004731   _cmd16_sine
00:0000473A   _CHIPcmd17_track_detune
00:0000474F   _CHIPcmd17_track_detune.pos
00:00004759   _CHIPcmd18_transpose
00:0000476D   _CHIPcmd18_transpose.skip1
00:00004773   _CHIPcmd18_transpose.pos
00:00004779   _CHIPcmd18_transpose.skip2
00:0000477F   _CHIPcmdXX_note_cut
00:00004788   _CHIPcmd19_note_delay
00:000047A6   _CHIPcmd1A_trigger
00:000047AC   _CHIPcmd1B_speed
00:000047BF   _CHIPcmd1C_notelink
00:000047C5 X _CHIPcmd1C_call
00:000047C5   _CHIPcmd1D_ret
00:000047C9   _CHIPcmd0_RE_arpeggio
00:000047CD   _CHIPcmd1_RE_port_up
00:000047CD   _CHIPcmd2_RE_port_down
00:000047CD   _CHIPcmd4_RE_vibrato
00:000047D5   _CHIPcmd5_RE_vibrato_port_tone
00:000047D5   _CHIPcmd6_RE_vibrato_vol
00:000047D5   _CHIPcmd7_RE_vol_slide
00:000047E1   _CHIPcmd8_RE_macro_offset
00:000047ED   _CHIPcmd9_RE_env_shape
00:000047F3   replay_process_chan_AY
00:00004811   replay_process_chan_AY.skip
00:00004816   _pcAY_noCommand
00:00004816   _pcAY_commandEND
00:0000481B X _pcAY_triggerNote
00:0000483F   _pcAY_noNoteTrigger
00:00004863   _vol_change
00:0000486A X _vol_rel
00:0000487C   _vol_rel.skip
00:0000487D   _vol_base
00:0000488B   _noEnv
00:00004896 X _noEnv.add_Vadd
00:000048A0   _noEnv.sub_Vadd
00:000048AC   _noEnv.skip2
00:000048AC   _Vadd
00:000048B6   _Vadd.skip
00:000048C0   _Vadd.skip2
00:000048C5   _noVolume
00:000048E6   _noVolume.skip
00:000048EF   _noNoise
00:00004900   _noLink
00:0000490D   _pcAY_noTone
00:00004923   _pcAY_noTone.skip
00:0000492A   _pcAY_noToneAdd
00:00004933   _pcAY_noToneAdd.noend
00:00004943   _pcAY_noToneAdd.skip
00:00004960 X _wrap_highcheck
00:00004989   _wrap_lowcheck
00:000049A7   _pcAY_noNoteActive
00:000049AC   _pcAY_cmdlist
00:000049E2   _pcAY_cmd0_arpeggio
00:000049FE   _pcAY_cmd0_arpeggio.step2
00:00004A12   _pcAY_cmd0_arpeggio.step3
00:00004A19   _pcAY_cmd1_port_up
00:00004A2D   _pcAY_cmd2_port_down
00:00004A41   _pcAY_cmd3_port_tone
00:00004A4F X _pcAY_cmd3_add
00:00004A62   _pcAY_cmd3_sub
00:00004A75   _pcAY_cmd3_stop
00:00004A82   _pcAY_cmd4_vibrato
00:00004A9D   _pcAY_cmd4_vibrato.skip
00:00004AA1   _pcAY_cmd4_vibrato.loop
00:00004AB4   _pcAY_cmd4pos
00:00004ABA   _pcAY_cmd4pos.skip
00:00004ABE   _pcAY_cmd4pos.loop
00:00004AC2   _pcAY_cmd4_zero
00:00004ACC   _pcAY_cmd5_vibrato_port_tone
00:00004AD2   _pcAY_cmd6_vibrato_vol
00:00004AD8   _pcAY_cmd7_vol_slide
00:00004ADE   _pcAY_cmdasub
00:00004AF3 X _pcAY_cmda_dec
00:00004AFC   _pcAY_cmda_inc
00:00004B05   _pcAY_cmd8_macro_offset
00:00004B10   _pcAY_cmd13_short_arp
00:00004B21   _pcAY_cmd14_fine_up
00:00004B3B   _pcAY_cmd15_fine_down
00:00004B55   _pcAY_cmdXX_note_cut
00:00004B62   _pcAY_cmd19_note_delay
00:00004B75   replay_route
00:00004B7C   _comp_loop
00:00004B95   _ptAY_loop
00:00004BAD   _ptAY_noEnv
00:00004BB2 X _ptAY_noEnv.nosfx
00:00004BC1   _ptAY_noEnv.skip
00:00004BD0   _ptAY_noEnv.skip2
00:00004BDF   _ptAY_noEnv.skip3
00:00004BEE   _ptAY_noEnv.skip4
00:00004BEE X FM_reg_update
00:00004BFE   loop
00:00004C05   loop.skip
00:00004C0D   _write_SCC_wave
00:00004C15 X _write_SCC_wave.normalwave
00:00004C25   _write_SCC_wave.ramwave
00:00004C33   _write_SCC_wave.skip
00:00004C39   _write_SCC_special
00:00004C3E   _wss_l
00:00004CC6   _VOLUME_TABLE
00:00000D40   C_PER
00:00000C80   C1_PER
00:00000BC0   D_PER
00:00000B20   D1_PER
00:00000A80   E_PER
00:000009E0   F_PER
00:00000940   F1_PER
00:000008C0   G_PER
00:00000840   G1_PER
00:000007E0   A_PER
00:00000760   A1_PER
00:00000700   B_PER
00:00004DC6   TRACK_ToneTable
00:00004E86   TRACK_Vibrato_sine
00:00004EA6   TRACK_Vibrato_triangle
00:00004EC6   TRACK_Vibrato_pulse
00:00004EE6   demo_song
00:00004EFD   demo_song.restart
00:00005001   demo_song.customvoice_start
00:00005021   demo_song.drummacro_start
00:00005033   demo_song.drm_1
00:0000503E   demo_song.drm_2
00:0000505B   demo_song.drm_3
00:00005066   demo_song.drm_4
00:00005071   demo_song.drm_5
00:0000507C   demo_song.drm_6
00:00005087   demo_song.drm_7
00:00005092   demo_song.drm_8
00:0000509D   demo_song.drm_9
00:000050A8   demo_song.instrument_start
00:000050CE   demo_song.ins_1
00:000050DB   demo_song.rst_i1
00:000050F5   demo_song.ins_2
00:000050F6   demo_song.rst_i2
00:000050FA   demo_song.ins_3
00:00005101   demo_song.rst_i3
00:00005106   demo_song.ins_4
00:00005107   demo_song.rst_i4
00:0000510B   demo_song.ins_5
00:0000510C   demo_song.rst_i5
00:00005110   demo_song.ins_6
00:00005111   demo_song.rst_i6
00:00005115   demo_song.ins_7
00:0000511C   demo_song.rst_i7
00:00005121   demo_song.ins_8
00:0000513A   demo_song.rst_i8
00:00005156   demo_song.ins_9
00:00005199   demo_song.rst_i9
00:0000519D   demo_song.ins_10
00:0000519D   demo_song.ins_11
00:000051A8   demo_song.rst_i11
00:000051AC   demo_song.ins_12
00:000051AD   demo_song.rst_i12
00:000051B1   demo_song.ins_13
00:000051B2   demo_song.rst_i13
00:000051B6   demo_song.ins_14
00:000051B7   demo_song.rst_i14
00:000051BB   demo_song.ins_15
00:000051CC   demo_song.rst_i15
00:000051EE   demo_song.ins_16
00:000051FF   demo_song.rst_i16
00:00005221   demo_song.ins_17
00:00005222   demo_song.rst_i17
00:00005226   demo_song.ins_18
00:00005227   demo_song.rst_i18
00:0000522B   demo_song.ins_19
00:0000522C   demo_song.rst_i19
00:00005230   demo_song.track_0
00:00005249   demo_song.track_1
00:00005253   demo_song.track_2
00:0000525E   demo_song.track_3
00:00005265   demo_song.track_4
00:0000526C   demo_song.track_5
00:00005275   demo_song.track_6
00:0000527C   demo_song.track_7
00:00005283   demo_song.track_8
00:000052D5   demo_song.track_9
00:000052F7   demo_song.track_10
00:00005348   demo_song.track_11
00:00005361   demo_song.track_12
00:00005393   demo_song.track_13
00:000053C7   demo_song.track_14
00:000053E2   demo_song.track_15
00:0000542E   demo_song.track_16
00:00005450   demo_song.track_17
00:000054A2   demo_song.track_18
00:000054BB   demo_song.track_19
00:000054F3   demo_song.track_20
00:00005525   demo_song.track_21
00:00005540   demo_song.track_22
00:00005570   demo_song.track_23
00:00005582   demo_song.track_24
00:000055BB   demo_song.track_25
00:000055C8   demo_song.track_26
00:000055E7   demo_song.track_27
00:00005608   demo_song.track_28
00:00005617   demo_song.track_29
00:0000566A   demo_song.track_30
00:00005696   demo_song.track_31
00:000056C2   demo_song.track_32
00:00005719   demo_song.track_33
00:00005751   demo_song.track_34
00:0000576C   demo_song.track_35
00:000057BB   demo_song.track_36
00:000057E8   demo_song.track_37
00:00005810   demo_song.track_38
00:00005843   demo_song.track_39
00:00005874   demo_song.track_40
00:000058A6   demo_song.track_41
00:000058CF   demo_song.track_42
00:000058E1   demo_song.track_43
00:00005907   demo_song.track_44
00:00005913   demo_song.track_45
00:00005933   demo_song.track_46
00:00005955   demo_song.track_47
00:00005964   demo_song.track_48
00:000059BA   demo_song.track_49
00:000059FE   demo_song.track_50
00:00005A52   demo_song.track_51
00:00005A95   demo_song.track_52
00:00005AD9   demo_song.track_53
00:00005BFE   demo_song.track_54
00:00005C30   demo_song.track_55
00:00005C69   demo_song.track_56
00:00005CBC   demo_song.track_57
00:00005D3F   demo_song.track_58
00:00005D9E   demo_song.track_59
00:00005E01   demo_song.track_60
00:00005E43   demo_song.track_61
00:00005F70   demo_song.track_62
00:00005FA7   demo_song.track_63
00:00006004   demo_song.track_64
00:00006051   demo_song.track_65
00:00006093   demo_song.track_66
00:000060E7   demo_song.track_67
00:00006126   demo_song.track_68
00:0000615A   demo_song.track_69
00:0000618D   demo_song.track_70
00:000061CE   demo_song.track_71
00:00006228   demo_song.track_72
00:0000628A   demo_song.track_73
00:000062B2   demo_song.track_74
00:000062E9   demo_song.track_75
00:0000631C   demo_song.track_76
00:00006363   demo_song.track_77
00:000063A3   demo_song.track_78
00:000063DD   demo_song.track_79
00:0000640C   demo_song.track_80
00:0000644A   demo_song.track_81
00:00006476   demo_song.track_82
00:000064B0   demo_song.track_83
00:000064FE   demo_song.track_84
00:00006534   demo_song.track_85
00:00006550   demo_song.track_86
00:0000657D   demo_song.track_87
00:00006599   demo_song.track_88
00:000065C5   demo_song.track_89
00:0000660A   demo_song.track_90
00:0000663A   demo_song.track_91
00:00006672   demo_song.track_92
00:000066A3   demo_song.track_93
00:000066DC   demo_song.track_94
00:0000670C   demo_song.track_95
00:0000674B   demo_song.track_96
00:00006778   demo_song.track_97
00:000067A0   demo_song.track_98
00:000067BD   demo_song.track_99
00:000067E6   demo_song.track_100
00:00006801   demo_song.track_101
00:00006843   demo_song.track_102
00:00006876   demo_song.track_103
00:000068A9   demo_song.track_104
00:000068C3   demo_song.track_105
00:000068E2   demo_song.track_106
00:00006908   demo_song.track_107
00:0000692E   demo_song.track_108
00:00006956   demo_song.track_109
00:00006990   demo_song.track_110
00:000069AC   demo_song.track_111
00:000069C9   demo_song.track_112
00:000069DF   demo_song.track_113
00:000069F1   demo_song.track_114
00:00006A07   demo_song.track_115
00:00006A1B   demo_song.track_116
00:00006A31 X demo_song.track_117
00:FFFFFFEF   TRACK_Instrument
00:FFFFFFF0   TRACK_Command
00:FFFFFFF1   TRACK_MacroPointer
00:FFFFFFF3   TRACK_MacroStart
00:FFFFFFF5 X TRACK_MacroRestart
00:FFFFFFF6   TRACK_Note
00:FFFFFFF7   TRACK_Volume
00:FFFFFFF8   TRACK_Voice
00:FFFFFFF9   TRACK_Flags
00:FFFFFFFA X TRACK_empty
00:FFFFFFFB   TRACK_ToneAdd
00:FFFFFFFD   TRACK_VolumeAdd
00:FFFFFFFE   TRACK_Noise
00:FFFFFFFF   TRACK_cmd_VolumeAdd
00:00000000   TRACK_cmd_ToneSlideAdd
00:00000002   TRACK_cmd_ToneAdd
00:00000004   TRACK_cmd_detune
00:00000005   TRACK_cmd_0
00:00000006   TRACK_cmd_1
00:00000007   TRACK_cmd_2
00:00000008   TRACK_cmd_3
00:00000009   TRACK_cmd_4_depth
00:0000000A   TRACK_cmd_4_step
00:0000000B   TRACK_cmd_NoteAdd
00:0000000C   TRACK_cmd_A
00:0000000D X TRACK_cmd_B
00:0000000E   TRACK_cmd_E
00:0000000F   TRACK_Timer
00:00000010   TRACK_Step
00:00000011   TRACK_Delay
00:00000012   TRACK_Retrig
00:00000013   TRACK_prevDelay
00:00000014 X TRACK_cmd_A_add
00:00000026   TRACK_REC_SIZE
00:00000000   B_TRGNOT
00:00000001   B_ACTNOT
00:00000002 X B_TRGENV
00:00000003   B_TRGCMD
00:00000004   B_KEYON
00:00000005   B_SUST
00:00000006   B_TRGVOI
00:00000007   B_PSGFM
00:0000C000   _SP_Storage
00:0000C002   replay_trigger
00:0000C003   replay_mainPSGvol
00:0000C005   replay_mainSCCvol
00:0000C007   replay_voicebase
00:0000C009   replay_drumbase
00:0000C00B   replay_insbase
00:0000C00D   replay_orderpointer
00:0000C00F   replay_speed
00:0000C010   replay_speed_subtimer
00:0000C011   replay_speed_timer
00:0000C012   replay_mode
00:0000C013   replay_chan_setup
00:0000C014   replay_fade
00:0000C015   replay_fade_timer
00:0000C016   replay_fade_vol
00:0000C017   replay_previous_note
00:0000C018   replay_mainvol
00:0000C01A   replay_vib_table
00:0000C01C   replay_Tonetable
00:0000C01E X replay_morph_active
00:0000C01F   replay_morph_timer
00:0000C020   replay_morph_speed
00:0000C021 X replay_morph_counter
00:0000C022   replay_morph_buffer
00:0000C062 X replay_morph_waveform
00:0000C063   equalization_freq
00:0000C064   equalization_cnt
00:0000C065   equalization_flag
00:0000C066   TRACK_Chan1
00:0000C08C   TRACK_Chan2
00:0000C0B2   TRACK_Chan3
00:0000C0D8   TRACK_Chan4
00:0000C0FE   TRACK_Chan5
00:0000C124   TRACK_Chan6
00:0000C14A   TRACK_Chan7
00:0000C170   TRACK_Chan8
00:0000C196   TRACK_pointer1
00:0000C198   TRACK_pointer2
00:0000C19A   TRACK_pointer3
00:0000C19C   TRACK_pointer4
00:0000C19E   TRACK_pointer5
00:0000C1A0   TRACK_pointer6
00:0000C1A2   TRACK_pointer7
00:0000C1A4   TRACK_pointer8
00:0000C1A6   AY_registers
00:0000C1A6   AY_regToneA
00:0000C1A8   AY_regToneB
00:0000C1AA   AY_regToneC
00:0000C1AC   AY_regNOISE
00:0000C1AD   AY_regMIXER
00:0000C1AE   AY_regVOLA
00:0000C1AF   AY_regVOLB
00:0000C1B0   AY_regVOLC
00:0000C1B1   AY_regEnvL
00:0000C1B2   AY_regEnvH
00:0000C1B3   AY_regEnvShape
00:0000C1B4   _0x9800
00:0000C1D4 X _0x9820
00:0000C1F4 X _0x9840
00:0000C214 X _0x9860
00:0000C234   FM_registers
00:0000C234   FM_regToneA
00:0000C236   FM_regToneB
00:0000C238   FM_regToneC
00:0000C23A   FM_regToneD
00:0000C23C   FM_regToneE
00:0000C23E   FM_regToneF
00:0000C240   FM_regVOLA
00:0000C241   FM_regVOLB
00:0000C242   FM_regVOLC
00:0000C243   FM_regVOLD
00:0000C244   FM_regVOLE
00:0000C245   FM_regVOLF
00:0000C246   FM_DRUM
00:0000C247 X FM_DRUM_Flags
00:0000C248 X FM_freqreg1
00:0000C24A X FM_volreg1
00:0000C24B X FM_freqreg2
00:0000C24D X FM_volreg2
00:0000C24E X FM_freqreg3
00:0000C250 X FM_volreg3
00:0000C251   FM_DRUM_LEN
00:0000C252   FM_DRUM_MACRO
00:0000C254   FM_regMIXER
00:0000C255   oldregs
00:0000C2E5   pattern


 Output: main.rom
-------------------------------------------------

 Page: 00
  Org: 00004000  Size: 00008000  Used: 00002A32

   Address   Length Align   Label
   00004000   10802         initmain
   00006A32   21966       <empty>
